
sleepFStack：     文件格式 elf64-x86-64


Disassembly of section .init:

0000000000400400 <_init>:
  400400:	48 83 ec 08          	sub    $0x8,%rsp
  400404:	48 8b 05 ed 0b 20 00 	mov    0x200bed(%rip),%rax        # 600ff8 <_DYNAMIC+0x1d0>
  40040b:	48 85 c0             	test   %rax,%rax
  40040e:	74 05                	je     400415 <_init+0x15>
  400410:	e8 4b 00 00 00       	callq  400460 <__libc_start_main@plt+0x10>
  400415:	48 83 c4 08          	add    $0x8,%rsp
  400419:	c3                   	retq   

Disassembly of section .plt:

0000000000400420 <getpid@plt-0x10>:
  400420:	ff 35 e2 0b 20 00    	pushq  0x200be2(%rip)        # 601008 <_GLOBAL_OFFSET_TABLE_+0x8>
  400426:	ff 25 e4 0b 20 00    	jmpq   *0x200be4(%rip)        # 601010 <_GLOBAL_OFFSET_TABLE_+0x10>
  40042c:	0f 1f 40 00          	nopl   0x0(%rax)

0000000000400430 <getpid@plt>:
  400430:	ff 25 e2 0b 20 00    	jmpq   *0x200be2(%rip)        # 601018 <_GLOBAL_OFFSET_TABLE_+0x18>
  400436:	68 00 00 00 00       	pushq  $0x0
  40043b:	e9 e0 ff ff ff       	jmpq   400420 <_init+0x20>

0000000000400440 <printf@plt>:
  400440:	ff 25 da 0b 20 00    	jmpq   *0x200bda(%rip)        # 601020 <_GLOBAL_OFFSET_TABLE_+0x20>
  400446:	68 01 00 00 00       	pushq  $0x1
  40044b:	e9 d0 ff ff ff       	jmpq   400420 <_init+0x20>

0000000000400450 <__libc_start_main@plt>:
  400450:	ff 25 d2 0b 20 00    	jmpq   *0x200bd2(%rip)        # 601028 <_GLOBAL_OFFSET_TABLE_+0x28>
  400456:	68 02 00 00 00       	pushq  $0x2
  40045b:	e9 c0 ff ff ff       	jmpq   400420 <_init+0x20>

Disassembly of section .plt.got:

0000000000400460 <.plt.got>:
  400460:	ff 25 92 0b 20 00    	jmpq   *0x200b92(%rip)        # 600ff8 <_DYNAMIC+0x1d0>
  400466:	66 90                	xchg   %ax,%ax

Disassembly of section .text:

0000000000400470 <_start>:
  400470:	31 ed                	xor    %ebp,%ebp
  400472:	49 89 d1             	mov    %rdx,%r9
  400475:	5e                   	pop    %rsi
  400476:	48 89 e2             	mov    %rsp,%rdx
  400479:	48 83 e4 f0          	and    $0xfffffffffffffff0,%rsp
  40047d:	50                   	push   %rax
  40047e:	54                   	push   %rsp
  40047f:	49 c7 c0 40 07 40 00 	mov    $0x400740,%r8
  400486:	48 c7 c1 d0 06 40 00 	mov    $0x4006d0,%rcx
  40048d:	48 c7 c7 95 06 40 00 	mov    $0x400695,%rdi
  400494:	e8 b7 ff ff ff       	callq  400450 <__libc_start_main@plt>
  400499:	f4                   	hlt    
  40049a:	66 0f 1f 44 00 00    	nopw   0x0(%rax,%rax,1)

00000000004004a0 <deregister_tm_clones>:
  4004a0:	b8 47 10 60 00       	mov    $0x601047,%eax
  4004a5:	55                   	push   %rbp
  4004a6:	48 2d 40 10 60 00    	sub    $0x601040,%rax
  4004ac:	48 83 f8 0e          	cmp    $0xe,%rax
  4004b0:	48 89 e5             	mov    %rsp,%rbp
  4004b3:	76 1b                	jbe    4004d0 <deregister_tm_clones+0x30>
  4004b5:	b8 00 00 00 00       	mov    $0x0,%eax
  4004ba:	48 85 c0             	test   %rax,%rax
  4004bd:	74 11                	je     4004d0 <deregister_tm_clones+0x30>
  4004bf:	5d                   	pop    %rbp
  4004c0:	bf 40 10 60 00       	mov    $0x601040,%edi
  4004c5:	ff e0                	jmpq   *%rax
  4004c7:	66 0f 1f 84 00 00 00 	nopw   0x0(%rax,%rax,1)
  4004ce:	00 00 
  4004d0:	5d                   	pop    %rbp
  4004d1:	c3                   	retq   
  4004d2:	0f 1f 40 00          	nopl   0x0(%rax)
  4004d6:	66 2e 0f 1f 84 00 00 	nopw   %cs:0x0(%rax,%rax,1)
  4004dd:	00 00 00 

00000000004004e0 <register_tm_clones>:
  4004e0:	be 40 10 60 00       	mov    $0x601040,%esi
  4004e5:	55                   	push   %rbp
  4004e6:	48 81 ee 40 10 60 00 	sub    $0x601040,%rsi
  4004ed:	48 c1 fe 03          	sar    $0x3,%rsi
  4004f1:	48 89 e5             	mov    %rsp,%rbp
  4004f4:	48 89 f0             	mov    %rsi,%rax
  4004f7:	48 c1 e8 3f          	shr    $0x3f,%rax
  4004fb:	48 01 c6             	add    %rax,%rsi
  4004fe:	48 d1 fe             	sar    %rsi
  400501:	74 15                	je     400518 <register_tm_clones+0x38>
  400503:	b8 00 00 00 00       	mov    $0x0,%eax
  400508:	48 85 c0             	test   %rax,%rax
  40050b:	74 0b                	je     400518 <register_tm_clones+0x38>
  40050d:	5d                   	pop    %rbp
  40050e:	bf 40 10 60 00       	mov    $0x601040,%edi
  400513:	ff e0                	jmpq   *%rax
  400515:	0f 1f 00             	nopl   (%rax)
  400518:	5d                   	pop    %rbp
  400519:	c3                   	retq   
  40051a:	66 0f 1f 44 00 00    	nopw   0x0(%rax,%rax,1)

0000000000400520 <__do_global_dtors_aux>:
  400520:	80 3d 19 0b 20 00 00 	cmpb   $0x0,0x200b19(%rip)        # 601040 <__TMC_END__>
  400527:	75 11                	jne    40053a <__do_global_dtors_aux+0x1a>
  400529:	55                   	push   %rbp
  40052a:	48 89 e5             	mov    %rsp,%rbp
  40052d:	e8 6e ff ff ff       	callq  4004a0 <deregister_tm_clones>
  400532:	5d                   	pop    %rbp
  400533:	c6 05 06 0b 20 00 01 	movb   $0x1,0x200b06(%rip)        # 601040 <__TMC_END__>
  40053a:	f3 c3                	repz retq 
  40053c:	0f 1f 40 00          	nopl   0x0(%rax)

0000000000400540 <frame_dummy>:
  400540:	bf 20 0e 60 00       	mov    $0x600e20,%edi
  400545:	48 83 3f 00          	cmpq   $0x0,(%rdi)
  400549:	75 05                	jne    400550 <frame_dummy+0x10>
  40054b:	eb 93                	jmp    4004e0 <register_tm_clones>
  40054d:	0f 1f 00             	nopl   (%rax)
  400550:	b8 00 00 00 00       	mov    $0x0,%eax
  400555:	48 85 c0             	test   %rax,%rax
  400558:	74 f1                	je     40054b <frame_dummy+0xb>
  40055a:	55                   	push   %rbp
  40055b:	48 89 e5             	mov    %rsp,%rbp
  40055e:	ff d0                	callq  *%rax
  400560:	5d                   	pop    %rbp
  400561:	e9 7a ff ff ff       	jmpq   4004e0 <register_tm_clones>

0000000000400566 <funcc>:
  400566:	55                   	push   %rbp
  400567:	48 89 e5             	mov    %rsp,%rbp
  40056a:	48 83 ec 20          	sub    $0x20,%rsp
  40056e:	89 7d ec             	mov    %edi,-0x14(%rbp)
  400571:	c7 45 fc 00 00 00 00 	movl   $0x0,-0x4(%rbp)
  400578:	81 7d fc 3f 42 0f 00 	cmpl   $0xf423f,-0x4(%rbp)
  40057f:	7e f7                	jle    400578 <funcc+0x12>
  400581:	b8 00 00 00 00       	mov    $0x0,%eax
  400586:	e8 a5 fe ff ff       	callq  400430 <getpid@plt>
  40058b:	89 45 fc             	mov    %eax,-0x4(%rbp)
  40058e:	8b 45 fc             	mov    -0x4(%rbp),%eax
  400591:	89 c6                	mov    %eax,%esi
  400593:	bf 54 07 40 00       	mov    $0x400754,%edi
  400598:	b8 00 00 00 00       	mov    $0x0,%eax
  40059d:	e8 9e fe ff ff       	callq  400440 <printf@plt>
  4005a2:	8b 45 fc             	mov    -0x4(%rbp),%eax
  4005a5:	c9                   	leaveq 
  4005a6:	c3                   	retq   

00000000004005a7 <funcb>:
  4005a7:	55                   	push   %rbp
  4005a8:	48 89 e5             	mov    %rsp,%rbp
  4005ab:	48 83 ec 10          	sub    $0x10,%rsp
  4005af:	89 7d fc             	mov    %edi,-0x4(%rbp)
  4005b2:	8b 45 fc             	mov    -0x4(%rbp),%eax
  4005b5:	89 c7                	mov    %eax,%edi
  4005b7:	e8 aa ff ff ff       	callq  400566 <funcc>
  4005bc:	90                   	nop
  4005bd:	c9                   	leaveq 
  4005be:	c3                   	retq   

00000000004005bf <funca>:
  4005bf:	55                   	push   %rbp
  4005c0:	48 89 e5             	mov    %rsp,%rbp
  4005c3:	48 83 ec 10          	sub    $0x10,%rsp
  4005c7:	89 7d fc             	mov    %edi,-0x4(%rbp)
  4005ca:	8b 45 fc             	mov    -0x4(%rbp),%eax
  4005cd:	89 c7                	mov    %eax,%edi
  4005cf:	e8 d3 ff ff ff       	callq  4005a7 <funcb>
  4005d4:	90                   	nop
  4005d5:	c9                   	leaveq 
  4005d6:	c3                   	retq   

00000000004005d7 <add>:
  4005d7:	55                   	push   %rbp
  4005d8:	48 89 e5             	mov    %rsp,%rbp
  4005db:	48 83 ec 20          	sub    $0x20,%rsp
  4005df:	89 7d ec             	mov    %edi,-0x14(%rbp)
  4005e2:	89 75 e8             	mov    %esi,-0x18(%rbp)
  4005e5:	8b 55 ec             	mov    -0x14(%rbp),%edx
  4005e8:	8b 45 e8             	mov    -0x18(%rbp),%eax
  4005eb:	01 d0                	add    %edx,%eax
  4005ed:	89 45 f8             	mov    %eax,-0x8(%rbp)
  4005f0:	8b 45 ec             	mov    -0x14(%rbp),%eax
  4005f3:	89 c7                	mov    %eax,%edi
  4005f5:	e8 c5 ff ff ff       	callq  4005bf <funca>
  4005fa:	89 45 fc             	mov    %eax,-0x4(%rbp)
  4005fd:	8b 45 f8             	mov    -0x8(%rbp),%eax
  400600:	0f af 45 fc          	imul   -0x4(%rbp),%eax
  400604:	c9                   	leaveq 
  400605:	c3                   	retq   

0000000000400606 <print>:
  400606:	55                   	push   %rbp
  400607:	48 89 e5             	mov    %rsp,%rbp
  40060a:	48 81 ec d0 00 00 00 	sub    $0xd0,%rsp
  400611:	89 bd 3c ff ff ff    	mov    %edi,-0xc4(%rbp)
  400617:	48 89 b5 58 ff ff ff 	mov    %rsi,-0xa8(%rbp)
  40061e:	48 89 95 60 ff ff ff 	mov    %rdx,-0xa0(%rbp)
  400625:	48 89 8d 68 ff ff ff 	mov    %rcx,-0x98(%rbp)
  40062c:	4c 89 85 70 ff ff ff 	mov    %r8,-0x90(%rbp)
  400633:	4c 89 8d 78 ff ff ff 	mov    %r9,-0x88(%rbp)
  40063a:	84 c0                	test   %al,%al
  40063c:	74 20                	je     40065e <print+0x58>
  40063e:	0f 29 45 80          	movaps %xmm0,-0x80(%rbp)
  400642:	0f 29 4d 90          	movaps %xmm1,-0x70(%rbp)
  400646:	0f 29 55 a0          	movaps %xmm2,-0x60(%rbp)
  40064a:	0f 29 5d b0          	movaps %xmm3,-0x50(%rbp)
  40064e:	0f 29 65 c0          	movaps %xmm4,-0x40(%rbp)
  400652:	0f 29 6d d0          	movaps %xmm5,-0x30(%rbp)
  400656:	0f 29 75 e0          	movaps %xmm6,-0x20(%rbp)
  40065a:	0f 29 7d f0          	movaps %xmm7,-0x10(%rbp)
  40065e:	c7 85 44 ff ff ff 17 	movl   $0x171717,-0xbc(%rbp)
  400665:	17 17 00 
  400668:	c7 85 48 ff ff ff 56 	movl   $0x123456,-0xb8(%rbp)
  40066f:	34 12 00 
  400672:	8b 95 48 ff ff ff    	mov    -0xb8(%rbp),%edx
  400678:	8b 85 44 ff ff ff    	mov    -0xbc(%rbp),%eax
  40067e:	89 d6                	mov    %edx,%esi
  400680:	89 c7                	mov    %eax,%edi
  400682:	e8 50 ff ff ff       	callq  4005d7 <add>
  400687:	89 85 4c ff ff ff    	mov    %eax,-0xb4(%rbp)
  40068d:	8b 85 4c ff ff ff    	mov    -0xb4(%rbp),%eax
  400693:	c9                   	leaveq 
  400694:	c3                   	retq   

0000000000400695 <main>:
  400695:	55                   	push   %rbp
  400696:	48 89 e5             	mov    %rsp,%rbp
  400699:	be 03 00 00 00       	mov    $0x3,%esi
  40069e:	bf 02 00 00 00       	mov    $0x2,%edi
  4006a3:	b8 00 00 00 00       	mov    $0x0,%eax
  4006a8:	e8 59 ff ff ff       	callq  400606 <print>
  4006ad:	89 c6                	mov    %eax,%esi
  4006af:	bf 58 07 40 00       	mov    $0x400758,%edi
  4006b4:	b8 00 00 00 00       	mov    $0x0,%eax
  4006b9:	e8 82 fd ff ff       	callq  400440 <printf@plt>
  4006be:	90                   	nop
  4006bf:	5d                   	pop    %rbp
  4006c0:	c3                   	retq   
  4006c1:	66 2e 0f 1f 84 00 00 	nopw   %cs:0x0(%rax,%rax,1)
  4006c8:	00 00 00 
  4006cb:	0f 1f 44 00 00       	nopl   0x0(%rax,%rax,1)

00000000004006d0 <__libc_csu_init>:
  4006d0:	41 57                	push   %r15
  4006d2:	41 56                	push   %r14
  4006d4:	41 89 ff             	mov    %edi,%r15d
  4006d7:	41 55                	push   %r13
  4006d9:	41 54                	push   %r12
  4006db:	4c 8d 25 2e 07 20 00 	lea    0x20072e(%rip),%r12        # 600e10 <__frame_dummy_init_array_entry>
  4006e2:	55                   	push   %rbp
  4006e3:	48 8d 2d 2e 07 20 00 	lea    0x20072e(%rip),%rbp        # 600e18 <__init_array_end>
  4006ea:	53                   	push   %rbx
  4006eb:	49 89 f6             	mov    %rsi,%r14
  4006ee:	49 89 d5             	mov    %rdx,%r13
  4006f1:	4c 29 e5             	sub    %r12,%rbp
  4006f4:	48 83 ec 08          	sub    $0x8,%rsp
  4006f8:	48 c1 fd 03          	sar    $0x3,%rbp
  4006fc:	e8 ff fc ff ff       	callq  400400 <_init>
  400701:	48 85 ed             	test   %rbp,%rbp
  400704:	74 20                	je     400726 <__libc_csu_init+0x56>
  400706:	31 db                	xor    %ebx,%ebx
  400708:	0f 1f 84 00 00 00 00 	nopl   0x0(%rax,%rax,1)
  40070f:	00 
  400710:	4c 89 ea             	mov    %r13,%rdx
  400713:	4c 89 f6             	mov    %r14,%rsi
  400716:	44 89 ff             	mov    %r15d,%edi
  400719:	41 ff 14 dc          	callq  *(%r12,%rbx,8)
  40071d:	48 83 c3 01          	add    $0x1,%rbx
  400721:	48 39 eb             	cmp    %rbp,%rbx
  400724:	75 ea                	jne    400710 <__libc_csu_init+0x40>
  400726:	48 83 c4 08          	add    $0x8,%rsp
  40072a:	5b                   	pop    %rbx
  40072b:	5d                   	pop    %rbp
  40072c:	41 5c                	pop    %r12
  40072e:	41 5d                	pop    %r13
  400730:	41 5e                	pop    %r14
  400732:	41 5f                	pop    %r15
  400734:	c3                   	retq   
  400735:	90                   	nop
  400736:	66 2e 0f 1f 84 00 00 	nopw   %cs:0x0(%rax,%rax,1)
  40073d:	00 00 00 

0000000000400740 <__libc_csu_fini>:
  400740:	f3 c3                	repz retq 

Disassembly of section .fini:

0000000000400744 <_fini>:
  400744:	48 83 ec 08          	sub    $0x8,%rsp
  400748:	48 83 c4 08          	add    $0x8,%rsp
  40074c:	c3                   	retq   
