Contents of the .eh_frame section:

00000000 0000000000000014 00000000 CIE
  Version:               1
  Augmentation:          "zR"
  Code alignment factor: 1
  Data alignment factor: -8
  Return address column: 16
  Augmentation data:     1b

  DW_CFA_def_cfa: r7 (rsp) ofs 8
  DW_CFA_offset: r16 (rip) at cfa-8
  DW_CFA_undefined: r16 (rip)

00000018 0000000000000014 0000001c FDE cie=00000000 pc=0000000000400890..00000000004008ba
  DW_CFA_nop
  DW_CFA_nop
  DW_CFA_nop
  DW_CFA_nop
  DW_CFA_nop
  DW_CFA_nop
  DW_CFA_nop

00000030 0000000000000014 00000000 CIE
  Version:               1
  Augmentation:          "zR"
  Code alignment factor: 1
  Data alignment factor: -8
  Return address column: 16
  Augmentation data:     1b

  DW_CFA_def_cfa: r7 (rsp) ofs 8
  DW_CFA_offset: r16 (rip) at cfa-8
  DW_CFA_nop
  DW_CFA_nop

00000048 0000000000000014 0000001c FDE cie=00000030 pc=00000000004009ae..00000000004009f4
  DW_CFA_advance_loc: 4 to 00000000004009b2
  DW_CFA_def_cfa_offset: 48
  DW_CFA_advance_loc1: 65 to 00000000004009f3
  DW_CFA_def_cfa_offset: 8

00000060 0000000000000014 00000034 FDE cie=00000030 pc=00000000004009f4..0000000000400a0d
  DW_CFA_advance_loc: 4 to 00000000004009f8
  DW_CFA_def_cfa_offset: 32
  DW_CFA_advance_loc: 20 to 0000000000400a0c
  DW_CFA_def_cfa_offset: 8
  DW_CFA_nop

00000078 0000000000000014 0000004c FDE cie=00000030 pc=0000000000400a0d..0000000000400a26
  DW_CFA_advance_loc: 4 to 0000000000400a11
  DW_CFA_def_cfa_offset: 32
  DW_CFA_advance_loc: 20 to 0000000000400a25
  DW_CFA_def_cfa_offset: 8
  DW_CFA_nop

00000090 0000000000000014 00000064 FDE cie=00000030 pc=0000000000400a26..0000000000400a5d
  DW_CFA_advance_loc: 4 to 0000000000400a2a
  DW_CFA_def_cfa_offset: 48
  DW_CFA_advance_loc: 50 to 0000000000400a5c
  DW_CFA_def_cfa_offset: 8
  DW_CFA_nop

000000a8 000000000000001c 0000007c FDE cie=00000030 pc=0000000000400a5d..0000000000400aed
  DW_CFA_advance_loc: 7 to 0000000000400a64
  DW_CFA_def_cfa_offset: 224
  DW_CFA_advance_loc1: 136 to 0000000000400aec
  DW_CFA_def_cfa_offset: 8
  DW_CFA_nop
  DW_CFA_nop
  DW_CFA_nop
  DW_CFA_nop
  DW_CFA_nop
  DW_CFA_nop
  DW_CFA_nop

000000c8 0000000000000014 0000009c FDE cie=00000030 pc=0000000000400aed..0000000000400b1c
  DW_CFA_advance_loc: 4 to 0000000000400af1
  DW_CFA_def_cfa_offset: 16
  DW_CFA_advance_loc: 42 to 0000000000400b1b
  DW_CFA_def_cfa_offset: 8
  DW_CFA_nop

000000e0 000000000000002c 000000b4 FDE cie=00000030 pc=0000000000400b20..0000000000400dbc
  DW_CFA_advance_loc: 2 to 0000000000400b22
  DW_CFA_def_cfa_offset: 16
  DW_CFA_offset: r14 (r14) at cfa-16
  DW_CFA_advance_loc: 2 to 0000000000400b24
  DW_CFA_def_cfa_offset: 24
  DW_CFA_offset: r13 (r13) at cfa-24
  DW_CFA_advance_loc: 7 to 0000000000400b2b
  DW_CFA_def_cfa_offset: 32
  DW_CFA_offset: r12 (r12) at cfa-32
  DW_CFA_advance_loc: 1 to 0000000000400b2c
  DW_CFA_def_cfa_offset: 40
  DW_CFA_offset: r6 (rbp) at cfa-40
  DW_CFA_advance_loc: 4 to 0000000000400b30
  DW_CFA_def_cfa_offset: 48
  DW_CFA_offset: r3 (rbx) at cfa-48
  DW_CFA_advance_loc: 13 to 0000000000400b3d
  DW_CFA_def_cfa_offset: 192
  DW_CFA_nop
  DW_CFA_nop

00000110 000000000000001c 000000e4 FDE cie=00000030 pc=0000000000400dc0..0000000000400e27
  DW_CFA_advance_loc: 4 to 0000000000400dc4
  DW_CFA_def_cfa_offset: 16
  DW_CFA_offset: r3 (rbx) at cfa-16
  DW_CFA_advance_loc1: 98 to 0000000000400e26
  DW_CFA_def_cfa_offset: 8
  DW_CFA_nop
  DW_CFA_nop
  DW_CFA_nop
  DW_CFA_nop
  DW_CFA_nop
  DW_CFA_nop

00000130 0000000000000034 00000104 FDE cie=00000030 pc=0000000000400e30..000000000040120b
  DW_CFA_advance_loc: 2 to 0000000000400e32
  DW_CFA_def_cfa_offset: 16
  DW_CFA_offset: r13 (r13) at cfa-16
  DW_CFA_advance_loc: 2 to 0000000000400e34
  DW_CFA_def_cfa_offset: 24
  DW_CFA_offset: r12 (r12) at cfa-24
  DW_CFA_advance_loc: 3 to 0000000000400e37
  DW_CFA_def_cfa_offset: 32
  DW_CFA_offset: r6 (rbp) at cfa-32
  DW_CFA_advance_loc: 1 to 0000000000400e38
  DW_CFA_def_cfa_offset: 40
  DW_CFA_offset: r3 (rbx) at cfa-40
  DW_CFA_advance_loc: 16 to 0000000000400e48
  DW_CFA_def_cfa_offset: 80
  DW_CFA_advance_loc1: 235 to 0000000000400f33
  DW_CFA_remember_state
  DW_CFA_def_cfa_offset: 88
  DW_CFA_advance_loc: 10 to 0000000000400f3d
  DW_CFA_def_cfa_offset: 96
  DW_CFA_advance_loc: 29 to 0000000000400f5a
  DW_CFA_restore_state
  DW_CFA_nop
  DW_CFA_nop
  DW_CFA_nop
  DW_CFA_nop
  DW_CFA_nop
  DW_CFA_nop

00000168 000000000000001c 0000013c FDE cie=00000030 pc=0000000000401210..00000000004013d1
  DW_CFA_advance_loc: 7 to 0000000000401217
  DW_CFA_def_cfa_offset: 160
  DW_CFA_advance_loc1: 78 to 0000000000401265
  DW_CFA_remember_state
  DW_CFA_def_cfa_offset: 8
  DW_CFA_advance_loc: 1 to 0000000000401266
  DW_CFA_restore_state
  DW_CFA_nop
  DW_CFA_nop
  DW_CFA_nop
  DW_CFA_nop

00000188 000000000000004c 0000015c FDE cie=00000030 pc=00000000004013e0..00000000004015ff
  DW_CFA_advance_loc: 2 to 00000000004013e2
  DW_CFA_def_cfa_offset: 16
  DW_CFA_offset: r15 (r15) at cfa-16
  DW_CFA_advance_loc: 2 to 00000000004013e4
  DW_CFA_def_cfa_offset: 24
  DW_CFA_offset: r14 (r14) at cfa-24
  DW_CFA_advance_loc: 2 to 00000000004013e6
  DW_CFA_def_cfa_offset: 32
  DW_CFA_offset: r13 (r13) at cfa-32
  DW_CFA_advance_loc: 2 to 00000000004013e8
  DW_CFA_def_cfa_offset: 40
  DW_CFA_offset: r12 (r12) at cfa-40
  DW_CFA_advance_loc: 1 to 00000000004013e9
  DW_CFA_def_cfa_offset: 48
  DW_CFA_offset: r6 (rbp) at cfa-48
  DW_CFA_advance_loc: 1 to 00000000004013ea
  DW_CFA_def_cfa_offset: 56
  DW_CFA_offset: r3 (rbx) at cfa-56
  DW_CFA_advance_loc: 7 to 00000000004013f1
  DW_CFA_def_cfa_offset: 80
  DW_CFA_advance_loc2: 492 to 00000000004015dd
  DW_CFA_remember_state
  DW_CFA_def_cfa_offset: 56
  DW_CFA_advance_loc: 1 to 00000000004015de
  DW_CFA_def_cfa_offset: 48
  DW_CFA_advance_loc: 1 to 00000000004015df
  DW_CFA_def_cfa_offset: 40
  DW_CFA_advance_loc: 2 to 00000000004015e1
  DW_CFA_def_cfa_offset: 32
  DW_CFA_advance_loc: 2 to 00000000004015e3
  DW_CFA_def_cfa_offset: 24
  DW_CFA_advance_loc: 2 to 00000000004015e5
  DW_CFA_def_cfa_offset: 16
  DW_CFA_advance_loc: 2 to 00000000004015e7
  DW_CFA_def_cfa_offset: 8
  DW_CFA_advance_loc: 9 to 00000000004015f0
  DW_CFA_restore_state
  DW_CFA_nop
  DW_CFA_nop
  DW_CFA_nop
  DW_CFA_nop

000001d8 0000000000000014 000001ac FDE cie=00000030 pc=0000000000401600..0000000000401663
  DW_CFA_nop
  DW_CFA_nop
  DW_CFA_nop
  DW_CFA_nop
  DW_CFA_nop
  DW_CFA_nop
  DW_CFA_nop

000001f0 0000000000000014 000001c4 FDE cie=00000030 pc=0000000000401670..000000000040167f
  DW_CFA_nop
  DW_CFA_nop
  DW_CFA_nop
  DW_CFA_nop
  DW_CFA_nop
  DW_CFA_nop
  DW_CFA_nop

00000208 000000000000003c 000001dc FDE cie=00000030 pc=0000000000401680..0000000000401709
  DW_CFA_advance_loc: 2 to 0000000000401682
  DW_CFA_def_cfa_offset: 16
  DW_CFA_offset: r14 (r14) at cfa-16
  DW_CFA_advance_loc: 8 to 000000000040168a
  DW_CFA_def_cfa_offset: 24
  DW_CFA_offset: r13 (r13) at cfa-24
  DW_CFA_advance_loc: 9 to 0000000000401693
  DW_CFA_def_cfa_offset: 32
  DW_CFA_offset: r12 (r12) at cfa-32
  DW_CFA_advance_loc: 1 to 0000000000401694
  DW_CFA_def_cfa_offset: 40
  DW_CFA_offset: r6 (rbp) at cfa-40
  DW_CFA_advance_loc: 5 to 0000000000401699
  DW_CFA_def_cfa_offset: 48
  DW_CFA_offset: r3 (rbx) at cfa-48
  DW_CFA_advance_loc1: 104 to 0000000000401701
  DW_CFA_def_cfa_offset: 40
  DW_CFA_advance_loc: 1 to 0000000000401702
  DW_CFA_def_cfa_offset: 32
  DW_CFA_advance_loc: 2 to 0000000000401704
  DW_CFA_def_cfa_offset: 24
  DW_CFA_advance_loc: 2 to 0000000000401706
  DW_CFA_def_cfa_offset: 16
  DW_CFA_advance_loc: 2 to 0000000000401708
  DW_CFA_def_cfa_offset: 8
  DW_CFA_nop
  DW_CFA_nop
  DW_CFA_nop
  DW_CFA_nop
  DW_CFA_nop
  DW_CFA_nop

00000248 000000000000001c 0000021c FDE cie=00000030 pc=0000000000401710..0000000000401743
  DW_CFA_advance_loc: 1 to 0000000000401711
  DW_CFA_def_cfa_offset: 16
  DW_CFA_offset: r3 (rbx) at cfa-16
  DW_CFA_advance_loc: 45 to 000000000040173e
  DW_CFA_def_cfa_offset: 8
  DW_CFA_nop
  DW_CFA_nop
  DW_CFA_nop
  DW_CFA_nop
  DW_CFA_nop
  DW_CFA_nop
  DW_CFA_nop

00000268 000000000000003c 0000023c FDE cie=00000030 pc=0000000000401750..0000000000401881
  DW_CFA_advance_loc: 2 to 0000000000401752
  DW_CFA_def_cfa_offset: 16
  DW_CFA_offset: r14 (r14) at cfa-16
  DW_CFA_advance_loc: 2 to 0000000000401754
  DW_CFA_def_cfa_offset: 24
  DW_CFA_offset: r13 (r13) at cfa-24
  DW_CFA_advance_loc: 7 to 000000000040175b
  DW_CFA_def_cfa_offset: 32
  DW_CFA_offset: r12 (r12) at cfa-32
  DW_CFA_advance_loc: 1 to 000000000040175c
  DW_CFA_def_cfa_offset: 40
  DW_CFA_offset: r6 (rbp) at cfa-40
  DW_CFA_advance_loc: 4 to 0000000000401760
  DW_CFA_def_cfa_offset: 48
  DW_CFA_offset: r3 (rbx) at cfa-48
  DW_CFA_advance_loc: 16 to 0000000000401770
  DW_CFA_def_cfa_offset: 64
  DW_CFA_advance_loc1: 67 to 00000000004017b3
  DW_CFA_def_cfa_offset: 72
  DW_CFA_advance_loc: 2 to 00000000004017b5
  DW_CFA_def_cfa_offset: 80
  DW_CFA_advance_loc: 4 to 00000000004017b9
  DW_CFA_def_cfa_offset: 88
  DW_CFA_advance_loc: 1 to 00000000004017ba
  DW_CFA_def_cfa_offset: 96
  DW_CFA_advance_loc: 22 to 00000000004017d0
  DW_CFA_def_cfa_offset: 64
  DW_CFA_nop
  DW_CFA_nop
  DW_CFA_nop

000002a8 0000000000000024 0000027c FDE cie=00000030 pc=0000000000401890..00000000004018ce
  DW_CFA_advance_loc: 2 to 0000000000401892
  DW_CFA_def_cfa_offset: 16
  DW_CFA_offset: r13 (r13) at cfa-16
  DW_CFA_advance_loc: 2 to 0000000000401894
  DW_CFA_def_cfa_offset: 24
  DW_CFA_offset: r12 (r12) at cfa-24
  DW_CFA_advance_loc: 4 to 0000000000401898
  DW_CFA_def_cfa_offset: 32
  DW_CFA_offset: r6 (rbp) at cfa-32
  DW_CFA_advance_loc: 1 to 0000000000401899
  DW_CFA_def_cfa_offset: 40
  DW_CFA_offset: r3 (rbx) at cfa-40
  DW_CFA_advance_loc: 28 to 00000000004018b5
  DW_CFA_def_cfa_offset: 48

000002d0 0000000000000014 000002a4 FDE cie=00000030 pc=00000000004018d0..00000000004018df
  DW_CFA_nop
  DW_CFA_nop
  DW_CFA_nop
  DW_CFA_nop
  DW_CFA_nop
  DW_CFA_nop
  DW_CFA_nop

000002e8 000000000000001c 000002bc FDE cie=00000030 pc=000000000049ea80..000000000049eb29
  DW_CFA_advance_loc: 1 to 000000000049ea81
  DW_CFA_def_cfa_offset: 16
  DW_CFA_offset: r3 (rbx) at cfa-16
  DW_CFA_advance_loc1: 167 to 000000000049eb28
  DW_CFA_def_cfa_offset: 8
  DW_CFA_nop
  DW_CFA_nop
  DW_CFA_nop
  DW_CFA_nop
  DW_CFA_nop
  DW_CFA_nop

00000308 000000000000002c 000002dc FDE cie=00000030 pc=00000000004018e0..0000000000401956
  DW_CFA_advance_loc: 1 to 00000000004018e1
  DW_CFA_def_cfa_offset: 16
  DW_CFA_offset: r6 (rbp) at cfa-16
  DW_CFA_advance_loc: 1 to 00000000004018e2
  DW_CFA_def_cfa_offset: 24
  DW_CFA_offset: r3 (rbx) at cfa-24
  DW_CFA_advance_loc: 10 to 00000000004018ec
  DW_CFA_def_cfa_offset: 32
  DW_CFA_advance_loc1: 74 to 0000000000401936
  DW_CFA_remember_state
  DW_CFA_def_cfa_offset: 24
  DW_CFA_advance_loc: 1 to 0000000000401937
  DW_CFA_def_cfa_offset: 16
  DW_CFA_advance_loc: 1 to 0000000000401938
  DW_CFA_def_cfa_offset: 8
  DW_CFA_advance_loc: 8 to 0000000000401940
  DW_CFA_restore_state
  DW_CFA_nop
  DW_CFA_nop
  DW_CFA_nop
  DW_CFA_nop
  DW_CFA_nop

00000338 000000000000004c 0000030c FDE cie=00000030 pc=0000000000401960..0000000000402099
  DW_CFA_advance_loc: 2 to 0000000000401962
  DW_CFA_def_cfa_offset: 16
  DW_CFA_offset: r15 (r15) at cfa-16
  DW_CFA_advance_loc: 2 to 0000000000401964
  DW_CFA_def_cfa_offset: 24
  DW_CFA_offset: r14 (r14) at cfa-24
  DW_CFA_advance_loc: 2 to 0000000000401966
  DW_CFA_def_cfa_offset: 32
  DW_CFA_offset: r13 (r13) at cfa-32
  DW_CFA_advance_loc: 2 to 0000000000401968
  DW_CFA_def_cfa_offset: 40
  DW_CFA_offset: r12 (r12) at cfa-40
  DW_CFA_advance_loc: 4 to 000000000040196c
  DW_CFA_def_cfa_offset: 48
  DW_CFA_offset: r6 (rbp) at cfa-48
  DW_CFA_advance_loc: 1 to 000000000040196d
  DW_CFA_def_cfa_offset: 56
  DW_CFA_offset: r3 (rbx) at cfa-56
  DW_CFA_advance_loc: 7 to 0000000000401974
  DW_CFA_def_cfa_offset: 64
  DW_CFA_advance_loc1: 210 to 0000000000401a46
  DW_CFA_remember_state
  DW_CFA_def_cfa_offset: 56
  DW_CFA_advance_loc: 4 to 0000000000401a4a
  DW_CFA_def_cfa_offset: 48
  DW_CFA_advance_loc: 1 to 0000000000401a4b
  DW_CFA_def_cfa_offset: 40
  DW_CFA_advance_loc: 2 to 0000000000401a4d
  DW_CFA_def_cfa_offset: 32
  DW_CFA_advance_loc: 2 to 0000000000401a4f
  DW_CFA_def_cfa_offset: 24
  DW_CFA_advance_loc: 2 to 0000000000401a51
  DW_CFA_def_cfa_offset: 16
  DW_CFA_advance_loc: 2 to 0000000000401a53
  DW_CFA_def_cfa_offset: 8
  DW_CFA_advance_loc: 5 to 0000000000401a58
  DW_CFA_restore_state
  DW_CFA_nop
  DW_CFA_nop
  DW_CFA_nop
  DW_CFA_nop
  DW_CFA_nop

00000388 0000000000000064 0000035c FDE cie=00000030 pc=00000000004020a0..0000000000402cb2
  DW_CFA_advance_loc: 1 to 00000000004020a1
  DW_CFA_def_cfa_offset: 16
  DW_CFA_offset: r6 (rbp) at cfa-16
  DW_CFA_advance_loc: 6 to 00000000004020a7
  DW_CFA_def_cfa_register: r6 (rbp)
  DW_CFA_advance_loc: 16 to 00000000004020b7
  DW_CFA_offset: r15 (r15) at cfa-24
  DW_CFA_offset: r14 (r14) at cfa-32
  DW_CFA_offset: r13 (r13) at cfa-40
  DW_CFA_offset: r12 (r12) at cfa-48
  DW_CFA_offset: r3 (rbx) at cfa-56
  DW_CFA_advance_loc2: 341 to 000000000040220c
  DW_CFA_remember_state
  DW_CFA_def_cfa: r7 (rsp) ofs 8
  DW_CFA_advance_loc: 4 to 0000000000402210
  DW_CFA_restore_state
  DW_CFA_advance_loc2: 646 to 0000000000402496
  DW_CFA_remember_state
  DW_CFA_def_cfa: r7 (rsp) ofs 8
  DW_CFA_advance_loc: 10 to 00000000004024a0
  DW_CFA_restore_state
  DW_CFA_advance_loc2: 393 to 0000000000402629
  DW_CFA_def_cfa_offset: 144
  DW_CFA_advance_loc: 12 to 0000000000402635
  DW_CFA_def_cfa_offset: 16
  DW_CFA_advance_loc: 61 to 0000000000402672
  DW_CFA_def_cfa_offset: 144
  DW_CFA_advance_loc: 12 to 000000000040267e
  DW_CFA_def_cfa_offset: 16
  DW_CFA_advance_loc: 54 to 00000000004026b4
  DW_CFA_def_cfa_offset: 144
  DW_CFA_advance_loc: 12 to 00000000004026c0
  DW_CFA_def_cfa_offset: 16
  DW_CFA_advance_loc: 59 to 00000000004026fb
  DW_CFA_def_cfa_offset: 144
  DW_CFA_advance_loc: 12 to 0000000000402707
  DW_CFA_def_cfa_offset: 16
  DW_CFA_advance_loc2: 1015 to 0000000000402afe
  DW_CFA_def_cfa_offset: 144
  DW_CFA_advance_loc: 12 to 0000000000402b0a
  DW_CFA_def_cfa_offset: 16
  DW_CFA_advance_loc1: 122 to 0000000000402b84
  DW_CFA_def_cfa_offset: 144
  DW_CFA_advance_loc: 12 to 0000000000402b90
  DW_CFA_def_cfa_offset: 16
  DW_CFA_nop
  DW_CFA_nop
  DW_CFA_nop

000003f0 000000000000002c 000003c4 FDE cie=00000030 pc=0000000000402cc0..0000000000403615
  DW_CFA_advance_loc: 1 to 0000000000402cc1
  DW_CFA_def_cfa_offset: 16
  DW_CFA_offset: r6 (rbp) at cfa-16
  DW_CFA_advance_loc: 3 to 0000000000402cc4
  DW_CFA_def_cfa_register: r6 (rbp)
  DW_CFA_advance_loc: 16 to 0000000000402cd4
  DW_CFA_offset: r15 (r15) at cfa-24
  DW_CFA_offset: r14 (r14) at cfa-32
  DW_CFA_offset: r13 (r13) at cfa-40
  DW_CFA_offset: r12 (r12) at cfa-48
  DW_CFA_offset: r3 (rbx) at cfa-56
  DW_CFA_advance_loc2: 942 to 0000000000403082
  DW_CFA_remember_state
  DW_CFA_def_cfa: r7 (rsp) ofs 8
  DW_CFA_advance_loc: 1 to 0000000000403083
  DW_CFA_restore_state
  DW_CFA_nop
  DW_CFA_nop
  DW_CFA_nop

00000420 000000000000009c 000003f4 FDE cie=00000030 pc=0000000000403620..0000000000403888
  DW_CFA_advance_loc: 2 to 0000000000403622
  DW_CFA_def_cfa_offset: 16
  DW_CFA_offset: r15 (r15) at cfa-16
  DW_CFA_advance_loc: 2 to 0000000000403624
  DW_CFA_def_cfa_offset: 24
  DW_CFA_offset: r14 (r14) at cfa-24
  DW_CFA_advance_loc: 7 to 000000000040362b
  DW_CFA_def_cfa_offset: 32
  DW_CFA_offset: r13 (r13) at cfa-32
  DW_CFA_advance_loc: 2 to 000000000040362d
  DW_CFA_def_cfa_offset: 40
  DW_CFA_offset: r12 (r12) at cfa-40
  DW_CFA_advance_loc: 4 to 0000000000403631
  DW_CFA_def_cfa_offset: 48
  DW_CFA_offset: r6 (rbp) at cfa-48
  DW_CFA_advance_loc: 1 to 0000000000403632
  DW_CFA_def_cfa_offset: 56
  DW_CFA_offset: r3 (rbx) at cfa-56
  DW_CFA_advance_loc: 13 to 000000000040363f
  DW_CFA_def_cfa_offset: 128
  DW_CFA_advance_loc: 30 to 000000000040365d
  DW_CFA_def_cfa_offset: 136
  DW_CFA_advance_loc: 9 to 0000000000403666
  DW_CFA_def_cfa_offset: 144
  DW_CFA_advance_loc: 2 to 0000000000403668
  DW_CFA_def_cfa_offset: 152
  DW_CFA_advance_loc: 4 to 000000000040366c
  DW_CFA_def_cfa_offset: 160
  DW_CFA_advance_loc: 2 to 000000000040366e
  DW_CFA_def_cfa_offset: 168
  DW_CFA_advance_loc: 5 to 0000000000403673
  DW_CFA_def_cfa_offset: 176
  DW_CFA_advance_loc: 17 to 0000000000403684
  DW_CFA_def_cfa_offset: 128
  DW_CFA_advance_loc: 46 to 00000000004036b2
  DW_CFA_remember_state
  DW_CFA_def_cfa_offset: 56
  DW_CFA_advance_loc: 1 to 00000000004036b3
  DW_CFA_def_cfa_offset: 48
  DW_CFA_advance_loc: 1 to 00000000004036b4
  DW_CFA_def_cfa_offset: 40
  DW_CFA_advance_loc: 2 to 00000000004036b6
  DW_CFA_def_cfa_offset: 32
  DW_CFA_advance_loc: 2 to 00000000004036b8
  DW_CFA_def_cfa_offset: 24
  DW_CFA_advance_loc: 2 to 00000000004036ba
  DW_CFA_def_cfa_offset: 16
  DW_CFA_advance_loc: 2 to 00000000004036bc
  DW_CFA_def_cfa_offset: 8
  DW_CFA_advance_loc: 4 to 00000000004036c0
  DW_CFA_restore_state
  DW_CFA_advance_loc1: 68 to 0000000000403704
  DW_CFA_remember_state
  DW_CFA_def_cfa_offset: 56
  DW_CFA_advance_loc: 4 to 0000000000403708
  DW_CFA_def_cfa_offset: 48
  DW_CFA_advance_loc: 1 to 0000000000403709
  DW_CFA_def_cfa_offset: 40
  DW_CFA_advance_loc: 2 to 000000000040370b
  DW_CFA_def_cfa_offset: 32
  DW_CFA_advance_loc: 2 to 000000000040370d
  DW_CFA_def_cfa_offset: 24
  DW_CFA_advance_loc: 2 to 000000000040370f
  DW_CFA_def_cfa_offset: 16
  DW_CFA_advance_loc: 2 to 0000000000403711
  DW_CFA_def_cfa_offset: 8
  DW_CFA_advance_loc: 7 to 0000000000403718
  DW_CFA_restore_state
  DW_CFA_advance_loc1: 135 to 000000000040379f
  DW_CFA_def_cfa_offset: 136
  DW_CFA_advance_loc: 9 to 00000000004037a8
  DW_CFA_def_cfa_offset: 144
  DW_CFA_advance_loc: 2 to 00000000004037aa
  DW_CFA_def_cfa_offset: 152
  DW_CFA_advance_loc: 6 to 00000000004037b0
  DW_CFA_def_cfa_offset: 160
  DW_CFA_advance_loc: 4 to 00000000004037b4
  DW_CFA_def_cfa_offset: 168
  DW_CFA_advance_loc: 9 to 00000000004037bd
  DW_CFA_def_cfa_offset: 176
  DW_CFA_advance_loc: 19 to 00000000004037d0
  DW_CFA_def_cfa_offset: 128
  DW_CFA_nop
  DW_CFA_nop
  DW_CFA_nop

000004c0 0000000000000024 00000494 FDE cie=00000030 pc=000000000049eb30..000000000049eb79
  DW_CFA_advance_loc: 1 to 000000000049eb31
  DW_CFA_def_cfa_offset: 16
  DW_CFA_offset: r6 (rbp) at cfa-16
  DW_CFA_advance_loc: 1 to 000000000049eb32
  DW_CFA_def_cfa_offset: 24
  DW_CFA_offset: r3 (rbx) at cfa-24
  DW_CFA_advance_loc: 4 to 000000000049eb36
  DW_CFA_def_cfa_offset: 32
  DW_CFA_advance_loc1: 64 to 000000000049eb76
  DW_CFA_def_cfa_offset: 24
  DW_CFA_advance_loc: 1 to 000000000049eb77
  DW_CFA_def_cfa_offset: 16
  DW_CFA_advance_loc: 1 to 000000000049eb78
  DW_CFA_def_cfa_offset: 8

000004e8 000000000000003c 000004bc FDE cie=00000030 pc=0000000000403890..0000000000404dd9
  DW_CFA_advance_loc: 1 to 0000000000403891
  DW_CFA_def_cfa_offset: 16
  DW_CFA_offset: r6 (rbp) at cfa-16
  DW_CFA_advance_loc: 15 to 00000000004038a0
  DW_CFA_def_cfa_register: r6 (rbp)
  DW_CFA_advance_loc: 9 to 00000000004038a9
  DW_CFA_offset: r15 (r15) at cfa-24
  DW_CFA_offset: r14 (r14) at cfa-32
  DW_CFA_offset: r13 (r13) at cfa-40
  DW_CFA_offset: r12 (r12) at cfa-48
  DW_CFA_offset: r3 (rbx) at cfa-56
  DW_CFA_advance_loc1: 70 to 00000000004038ef
  DW_CFA_def_cfa_offset: 144
  DW_CFA_advance_loc: 12 to 00000000004038fb
  DW_CFA_def_cfa_offset: 16
  DW_CFA_advance_loc1: 172 to 00000000004039a7
  DW_CFA_def_cfa_offset: 144
  DW_CFA_advance_loc: 12 to 00000000004039b3
  DW_CFA_def_cfa_offset: 16
  DW_CFA_advance_loc: 14 to 00000000004039c1
  DW_CFA_remember_state
  DW_CFA_def_cfa: r7 (rsp) ofs 8
  DW_CFA_advance_loc: 7 to 00000000004039c8
  DW_CFA_restore_state
  DW_CFA_nop
  DW_CFA_nop
  DW_CFA_nop
  DW_CFA_nop
  DW_CFA_nop

00000528 000000000000003c 000004fc FDE cie=00000030 pc=000000000049eb80..000000000049ec57
  DW_CFA_advance_loc: 2 to 000000000049eb82
  DW_CFA_def_cfa_offset: 16
  DW_CFA_offset: r13 (r13) at cfa-16
  DW_CFA_advance_loc: 2 to 000000000049eb84
  DW_CFA_def_cfa_offset: 24
  DW_CFA_offset: r12 (r12) at cfa-24
  DW_CFA_advance_loc: 4 to 000000000049eb88
  DW_CFA_def_cfa_offset: 32
  DW_CFA_offset: r6 (rbp) at cfa-32
  DW_CFA_advance_loc: 1 to 000000000049eb89
  DW_CFA_def_cfa_offset: 40
  DW_CFA_offset: r3 (rbx) at cfa-40
  DW_CFA_advance_loc: 4 to 000000000049eb8d
  DW_CFA_def_cfa_offset: 48
  DW_CFA_advance_loc1: 168 to 000000000049ec35
  DW_CFA_remember_state
  DW_CFA_def_cfa_offset: 40
  DW_CFA_advance_loc: 4 to 000000000049ec39
  DW_CFA_def_cfa_offset: 32
  DW_CFA_advance_loc: 1 to 000000000049ec3a
  DW_CFA_def_cfa_offset: 24
  DW_CFA_advance_loc: 2 to 000000000049ec3c
  DW_CFA_def_cfa_offset: 16
  DW_CFA_advance_loc: 2 to 000000000049ec3e
  DW_CFA_def_cfa_offset: 8
  DW_CFA_advance_loc: 10 to 000000000049ec48
  DW_CFA_restore_state
  DW_CFA_nop
  DW_CFA_nop
  DW_CFA_nop
  DW_CFA_nop
  DW_CFA_nop

00000568 0000000000000014 0000053c FDE cie=00000030 pc=0000000000404de0..0000000000404df0
  DW_CFA_nop
  DW_CFA_nop
  DW_CFA_nop
  DW_CFA_nop
  DW_CFA_nop
  DW_CFA_nop
  DW_CFA_nop

00000580 0000000000000034 00000554 FDE cie=00000030 pc=0000000000404df0..000000000040526c
  DW_CFA_advance_loc: 1 to 0000000000404df1
  DW_CFA_def_cfa_offset: 16
  DW_CFA_offset: r6 (rbp) at cfa-16
  DW_CFA_advance_loc: 13 to 0000000000404dfe
  DW_CFA_def_cfa_register: r6 (rbp)
  DW_CFA_advance_loc: 20 to 0000000000404e12
  DW_CFA_offset: r15 (r15) at cfa-24
  DW_CFA_offset: r14 (r14) at cfa-32
  DW_CFA_offset: r13 (r13) at cfa-40
  DW_CFA_offset: r12 (r12) at cfa-48
  DW_CFA_offset: r3 (rbx) at cfa-56
  DW_CFA_advance_loc2: 704 to 00000000004050d2
  DW_CFA_remember_state
  DW_CFA_def_cfa: r7 (rsp) ofs 8
  DW_CFA_advance_loc: 6 to 00000000004050d8
  DW_CFA_restore_state
  DW_CFA_advance_loc2: 403 to 000000000040526b
  DW_CFA_def_cfa: r7 (rsp) ofs 8
  DW_CFA_nop
  DW_CFA_nop
  DW_CFA_nop
  DW_CFA_nop
  DW_CFA_nop

000005b8 000000000000005c 0000058c FDE cie=00000030 pc=0000000000405270..000000000040542f
  DW_CFA_advance_loc: 2 to 0000000000405272
  DW_CFA_def_cfa_offset: 16
  DW_CFA_offset: r15 (r15) at cfa-16
  DW_CFA_advance_loc: 2 to 0000000000405274
  DW_CFA_def_cfa_offset: 24
  DW_CFA_offset: r14 (r14) at cfa-24
  DW_CFA_advance_loc: 7 to 000000000040527b
  DW_CFA_def_cfa_offset: 32
  DW_CFA_offset: r13 (r13) at cfa-32
  DW_CFA_advance_loc: 2 to 000000000040527d
  DW_CFA_def_cfa_offset: 40
  DW_CFA_offset: r12 (r12) at cfa-40
  DW_CFA_advance_loc: 3 to 0000000000405280
  DW_CFA_def_cfa_offset: 48
  DW_CFA_offset: r6 (rbp) at cfa-48
  DW_CFA_advance_loc: 1 to 0000000000405281
  DW_CFA_def_cfa_offset: 56
  DW_CFA_offset: r3 (rbx) at cfa-56
  DW_CFA_advance_loc: 7 to 0000000000405288
  DW_CFA_def_cfa_offset: 64
  DW_CFA_advance_loc: 44 to 00000000004052b4
  DW_CFA_def_cfa_offset: 192
  DW_CFA_advance_loc: 12 to 00000000004052c0
  DW_CFA_def_cfa_offset: 64
  DW_CFA_advance_loc2: 273 to 00000000004053d1
  DW_CFA_def_cfa_offset: 192
  DW_CFA_advance_loc: 12 to 00000000004053dd
  DW_CFA_def_cfa_offset: 64
  DW_CFA_advance_loc: 4 to 00000000004053e1
  DW_CFA_remember_state
  DW_CFA_def_cfa_offset: 56
  DW_CFA_advance_loc: 4 to 00000000004053e5
  DW_CFA_def_cfa_offset: 48
  DW_CFA_advance_loc: 1 to 00000000004053e6
  DW_CFA_def_cfa_offset: 40
  DW_CFA_advance_loc: 2 to 00000000004053e8
  DW_CFA_def_cfa_offset: 32
  DW_CFA_advance_loc: 2 to 00000000004053ea
  DW_CFA_def_cfa_offset: 24
  DW_CFA_advance_loc: 2 to 00000000004053ec
  DW_CFA_def_cfa_offset: 16
  DW_CFA_advance_loc: 2 to 00000000004053ee
  DW_CFA_def_cfa_offset: 8
  DW_CFA_advance_loc: 1 to 00000000004053ef
  DW_CFA_restore_state
  DW_CFA_nop
  DW_CFA_nop
  DW_CFA_nop
  DW_CFA_nop
  DW_CFA_nop
  DW_CFA_nop

00000618 000000000000009c 000005ec FDE cie=00000030 pc=0000000000405430..00000000004059e1
  DW_CFA_advance_loc: 2 to 0000000000405432
  DW_CFA_def_cfa_offset: 16
  DW_CFA_offset: r15 (r15) at cfa-16
  DW_CFA_advance_loc: 2 to 0000000000405434
  DW_CFA_def_cfa_offset: 24
  DW_CFA_offset: r14 (r14) at cfa-24
  DW_CFA_advance_loc: 5 to 0000000000405439
  DW_CFA_def_cfa_offset: 32
  DW_CFA_offset: r13 (r13) at cfa-32
  DW_CFA_advance_loc: 2 to 000000000040543b
  DW_CFA_def_cfa_offset: 40
  DW_CFA_offset: r12 (r12) at cfa-40
  DW_CFA_advance_loc: 4 to 000000000040543f
  DW_CFA_def_cfa_offset: 48
  DW_CFA_offset: r6 (rbp) at cfa-48
  DW_CFA_advance_loc: 1 to 0000000000405440
  DW_CFA_def_cfa_offset: 56
  DW_CFA_offset: r3 (rbx) at cfa-56
  DW_CFA_advance_loc: 11 to 000000000040544b
  DW_CFA_def_cfa_offset: 128
  DW_CFA_advance_loc2: 877 to 00000000004057b8
  DW_CFA_def_cfa_offset: 136
  DW_CFA_advance_loc: 9 to 00000000004057c1
  DW_CFA_def_cfa_offset: 144
  DW_CFA_advance_loc: 2 to 00000000004057c3
  DW_CFA_def_cfa_offset: 152
  DW_CFA_advance_loc: 10 to 00000000004057cd
  DW_CFA_def_cfa_offset: 160
  DW_CFA_advance_loc: 7 to 00000000004057d4
  DW_CFA_def_cfa_offset: 168
  DW_CFA_advance_loc: 7 to 00000000004057db
  DW_CFA_def_cfa_offset: 176
  DW_CFA_advance_loc: 24 to 00000000004057f3
  DW_CFA_def_cfa_offset: 128
  DW_CFA_advance_loc1: 126 to 0000000000405871
  DW_CFA_def_cfa_offset: 136
  DW_CFA_advance_loc: 8 to 0000000000405879
  DW_CFA_def_cfa_offset: 144
  DW_CFA_advance_loc: 1 to 000000000040587a
  DW_CFA_def_cfa_offset: 152
  DW_CFA_advance_loc: 12 to 0000000000405886
  DW_CFA_def_cfa_offset: 160
  DW_CFA_advance_loc: 7 to 000000000040588d
  DW_CFA_def_cfa_offset: 168
  DW_CFA_advance_loc: 12 to 0000000000405899
  DW_CFA_def_cfa_offset: 176
  DW_CFA_advance_loc: 27 to 00000000004058b4
  DW_CFA_def_cfa_offset: 128
  DW_CFA_advance_loc: 32 to 00000000004058d4
  DW_CFA_remember_state
  DW_CFA_def_cfa_offset: 56
  DW_CFA_advance_loc: 1 to 00000000004058d5
  DW_CFA_def_cfa_offset: 48
  DW_CFA_advance_loc: 1 to 00000000004058d6
  DW_CFA_def_cfa_offset: 40
  DW_CFA_advance_loc: 2 to 00000000004058d8
  DW_CFA_def_cfa_offset: 32
  DW_CFA_advance_loc: 2 to 00000000004058da
  DW_CFA_def_cfa_offset: 24
  DW_CFA_advance_loc: 2 to 00000000004058dc
  DW_CFA_def_cfa_offset: 16
  DW_CFA_advance_loc: 2 to 00000000004058de
  DW_CFA_def_cfa_offset: 8
  DW_CFA_advance_loc: 2 to 00000000004058e0
  DW_CFA_restore_state
  DW_CFA_advance_loc1: 149 to 0000000000405975
  DW_CFA_remember_state
  DW_CFA_def_cfa_offset: 56
  DW_CFA_advance_loc: 4 to 0000000000405979
  DW_CFA_def_cfa_offset: 48
  DW_CFA_advance_loc: 1 to 000000000040597a
  DW_CFA_def_cfa_offset: 40
  DW_CFA_advance_loc: 2 to 000000000040597c
  DW_CFA_def_cfa_offset: 32
  DW_CFA_advance_loc: 2 to 000000000040597e
  DW_CFA_def_cfa_offset: 24
  DW_CFA_advance_loc: 2 to 0000000000405980
  DW_CFA_def_cfa_offset: 16
  DW_CFA_advance_loc: 2 to 0000000000405982
  DW_CFA_def_cfa_offset: 8
  DW_CFA_advance_loc: 1 to 0000000000405983
  DW_CFA_restore_state
  DW_CFA_nop

000006b8 000000000000003c 0000068c FDE cie=00000030 pc=00000000004059f0..0000000000405afe
  DW_CFA_advance_loc: 2 to 00000000004059f2
  DW_CFA_def_cfa_offset: 16
  DW_CFA_offset: r13 (r13) at cfa-16
  DW_CFA_advance_loc: 2 to 00000000004059f4
  DW_CFA_def_cfa_offset: 24
  DW_CFA_offset: r12 (r12) at cfa-24
  DW_CFA_advance_loc: 4 to 00000000004059f8
  DW_CFA_def_cfa_offset: 32
  DW_CFA_offset: r6 (rbp) at cfa-32
  DW_CFA_advance_loc: 1 to 00000000004059f9
  DW_CFA_def_cfa_offset: 40
  DW_CFA_offset: r3 (rbx) at cfa-40
  DW_CFA_advance_loc: 7 to 0000000000405a00
  DW_CFA_def_cfa_offset: 48
  DW_CFA_advance_loc1: 180 to 0000000000405ab4
  DW_CFA_remember_state
  DW_CFA_def_cfa_offset: 40
  DW_CFA_advance_loc: 1 to 0000000000405ab5
  DW_CFA_def_cfa_offset: 32
  DW_CFA_advance_loc: 1 to 0000000000405ab6
  DW_CFA_def_cfa_offset: 24
  DW_CFA_advance_loc: 2 to 0000000000405ab8
  DW_CFA_def_cfa_offset: 16
  DW_CFA_advance_loc: 2 to 0000000000405aba
  DW_CFA_def_cfa_offset: 8
  DW_CFA_advance_loc: 6 to 0000000000405ac0
  DW_CFA_restore_state
  DW_CFA_nop
  DW_CFA_nop
  DW_CFA_nop
  DW_CFA_nop
  DW_CFA_nop

000006f8 0000000000000044 000006cc FDE cie=00000030 pc=0000000000405b00..0000000000405d5f
  DW_CFA_advance_loc: 2 to 0000000000405b02
  DW_CFA_def_cfa_offset: 16
  DW_CFA_offset: r14 (r14) at cfa-16
  DW_CFA_advance_loc: 2 to 0000000000405b04
  DW_CFA_def_cfa_offset: 24
  DW_CFA_offset: r13 (r13) at cfa-24
  DW_CFA_advance_loc: 2 to 0000000000405b06
  DW_CFA_def_cfa_offset: 32
  DW_CFA_offset: r12 (r12) at cfa-32
  DW_CFA_advance_loc: 1 to 0000000000405b07
  DW_CFA_def_cfa_offset: 40
  DW_CFA_offset: r6 (rbp) at cfa-40
  DW_CFA_advance_loc: 1 to 0000000000405b08
  DW_CFA_def_cfa_offset: 48
  DW_CFA_offset: r3 (rbx) at cfa-48
  DW_CFA_advance_loc: 4 to 0000000000405b0c
  DW_CFA_def_cfa_offset: 80
  DW_CFA_advance_loc2: 429 to 0000000000405cb9
  DW_CFA_remember_state
  DW_CFA_def_cfa_offset: 48
  DW_CFA_advance_loc: 1 to 0000000000405cba
  DW_CFA_def_cfa_offset: 40
  DW_CFA_advance_loc: 1 to 0000000000405cbb
  DW_CFA_def_cfa_offset: 32
  DW_CFA_advance_loc: 2 to 0000000000405cbd
  DW_CFA_def_cfa_offset: 24
  DW_CFA_advance_loc: 2 to 0000000000405cbf
  DW_CFA_def_cfa_offset: 16
  DW_CFA_advance_loc: 2 to 0000000000405cc1
  DW_CFA_def_cfa_offset: 8
  DW_CFA_advance_loc: 7 to 0000000000405cc8
  DW_CFA_restore_state
  DW_CFA_nop
  DW_CFA_nop
  DW_CFA_nop
  DW_CFA_nop

00000740 000000000000005c 00000714 FDE cie=00000030 pc=0000000000405d60..000000000040641a
  DW_CFA_advance_loc: 11 to 0000000000405d6b
  DW_CFA_def_cfa_offset: 16
  DW_CFA_offset: r15 (r15) at cfa-16
  DW_CFA_advance_loc: 2 to 0000000000405d6d
  DW_CFA_def_cfa_offset: 24
  DW_CFA_offset: r14 (r14) at cfa-24
  DW_CFA_advance_loc: 2 to 0000000000405d6f
  DW_CFA_def_cfa_offset: 32
  DW_CFA_offset: r13 (r13) at cfa-32
  DW_CFA_advance_loc: 2 to 0000000000405d71
  DW_CFA_def_cfa_offset: 40
  DW_CFA_offset: r12 (r12) at cfa-40
  DW_CFA_advance_loc: 1 to 0000000000405d72
  DW_CFA_def_cfa_offset: 48
  DW_CFA_offset: r6 (rbp) at cfa-48
  DW_CFA_advance_loc: 1 to 0000000000405d73
  DW_CFA_def_cfa_offset: 56
  DW_CFA_offset: r3 (rbx) at cfa-56
  DW_CFA_advance_loc: 7 to 0000000000405d7a
  DW_CFA_def_cfa_offset: 64
  DW_CFA_advance_loc: 21 to 0000000000405d8f
  DW_CFA_remember_state
  DW_CFA_def_cfa_offset: 56
  DW_CFA_advance_loc: 4 to 0000000000405d93
  DW_CFA_restore: r3 (rbx)
  DW_CFA_def_cfa_offset: 48
  DW_CFA_advance_loc: 1 to 0000000000405d94
  DW_CFA_restore: r6 (rbp)
  DW_CFA_def_cfa_offset: 40
  DW_CFA_advance_loc: 2 to 0000000000405d96
  DW_CFA_restore: r12 (r12)
  DW_CFA_def_cfa_offset: 32
  DW_CFA_advance_loc: 2 to 0000000000405d98
  DW_CFA_restore: r13 (r13)
  DW_CFA_def_cfa_offset: 24
  DW_CFA_advance_loc: 2 to 0000000000405d9a
  DW_CFA_restore: r14 (r14)
  DW_CFA_def_cfa_offset: 16
  DW_CFA_advance_loc: 2 to 0000000000405d9c
  DW_CFA_restore: r15 (r15)
  DW_CFA_def_cfa_offset: 8
  DW_CFA_advance_loc: 12 to 0000000000405da8
  DW_CFA_restore_state
  DW_CFA_advance_loc2: 1648 to 0000000000406418
  DW_CFA_def_cfa_offset: 8
  DW_CFA_restore: r3 (rbx)
  DW_CFA_restore: r6 (rbp)
  DW_CFA_restore: r12 (r12)
  DW_CFA_restore: r13 (r13)
  DW_CFA_restore: r14 (r14)
  DW_CFA_restore: r15 (r15)
  DW_CFA_nop
  DW_CFA_nop
  DW_CFA_nop
  DW_CFA_nop
  DW_CFA_nop

000007a0 0000000000000064 00000774 FDE cie=00000030 pc=0000000000406420..0000000000409ba3
  DW_CFA_advance_loc: 2 to 0000000000406422
  DW_CFA_def_cfa_offset: 16
  DW_CFA_offset: r15 (r15) at cfa-16
  DW_CFA_advance_loc: 2 to 0000000000406424
  DW_CFA_def_cfa_offset: 24
  DW_CFA_offset: r14 (r14) at cfa-24
  DW_CFA_advance_loc: 5 to 0000000000406429
  DW_CFA_def_cfa_offset: 32
  DW_CFA_offset: r13 (r13) at cfa-32
  DW_CFA_advance_loc: 2 to 000000000040642b
  DW_CFA_def_cfa_offset: 40
  DW_CFA_offset: r12 (r12) at cfa-40
  DW_CFA_advance_loc: 1 to 000000000040642c
  DW_CFA_def_cfa_offset: 48
  DW_CFA_offset: r6 (rbp) at cfa-48
  DW_CFA_advance_loc: 1 to 000000000040642d
  DW_CFA_def_cfa_offset: 56
  DW_CFA_offset: r3 (rbx) at cfa-56
  DW_CFA_advance_loc: 4 to 0000000000406431
  DW_CFA_def_cfa_offset: 80
  DW_CFA_advance_loc: 57 to 000000000040646a
  DW_CFA_remember_state
  DW_CFA_def_cfa_offset: 56
  DW_CFA_advance_loc: 1 to 000000000040646b
  DW_CFA_def_cfa_offset: 48
  DW_CFA_advance_loc: 1 to 000000000040646c
  DW_CFA_def_cfa_offset: 40
  DW_CFA_advance_loc: 2 to 000000000040646e
  DW_CFA_def_cfa_offset: 32
  DW_CFA_advance_loc: 2 to 0000000000406470
  DW_CFA_def_cfa_offset: 24
  DW_CFA_advance_loc: 2 to 0000000000406472
  DW_CFA_def_cfa_offset: 16
  DW_CFA_advance_loc: 2 to 0000000000406474
  DW_CFA_def_cfa_offset: 8
  DW_CFA_advance_loc: 4 to 0000000000406478
  DW_CFA_restore_state
  DW_CFA_advance_loc2: 3356 to 0000000000407194
  DW_CFA_remember_state
  DW_CFA_def_cfa_offset: 56
  DW_CFA_advance_loc: 3 to 0000000000407197
  DW_CFA_def_cfa_offset: 48
  DW_CFA_advance_loc: 1 to 0000000000407198
  DW_CFA_def_cfa_offset: 40
  DW_CFA_advance_loc: 2 to 000000000040719a
  DW_CFA_def_cfa_offset: 32
  DW_CFA_advance_loc: 2 to 000000000040719c
  DW_CFA_def_cfa_offset: 24
  DW_CFA_advance_loc: 2 to 000000000040719e
  DW_CFA_def_cfa_offset: 16
  DW_CFA_advance_loc: 2 to 00000000004071a0
  DW_CFA_def_cfa_offset: 8
  DW_CFA_advance_loc: 8 to 00000000004071a8
  DW_CFA_restore_state
  DW_CFA_nop
  DW_CFA_nop
  DW_CFA_nop
  DW_CFA_nop

00000808 0000000000000064 000007dc FDE cie=00000030 pc=0000000000409bb0..000000000040d377
  DW_CFA_advance_loc: 2 to 0000000000409bb2
  DW_CFA_def_cfa_offset: 16
  DW_CFA_offset: r15 (r15) at cfa-16
  DW_CFA_advance_loc: 2 to 0000000000409bb4
  DW_CFA_def_cfa_offset: 24
  DW_CFA_offset: r14 (r14) at cfa-24
  DW_CFA_advance_loc: 2 to 0000000000409bb6
  DW_CFA_def_cfa_offset: 32
  DW_CFA_offset: r13 (r13) at cfa-32
  DW_CFA_advance_loc: 2 to 0000000000409bb8
  DW_CFA_def_cfa_offset: 40
  DW_CFA_offset: r12 (r12) at cfa-40
  DW_CFA_advance_loc: 4 to 0000000000409bbc
  DW_CFA_def_cfa_offset: 48
  DW_CFA_offset: r6 (rbp) at cfa-48
  DW_CFA_advance_loc: 1 to 0000000000409bbd
  DW_CFA_def_cfa_offset: 56
  DW_CFA_offset: r3 (rbx) at cfa-56
  DW_CFA_advance_loc: 9 to 0000000000409bc6
  DW_CFA_def_cfa_offset: 80
  DW_CFA_advance_loc1: 135 to 0000000000409c4d
  DW_CFA_remember_state
  DW_CFA_def_cfa_offset: 56
  DW_CFA_advance_loc: 4 to 0000000000409c51
  DW_CFA_def_cfa_offset: 48
  DW_CFA_advance_loc: 1 to 0000000000409c52
  DW_CFA_def_cfa_offset: 40
  DW_CFA_advance_loc: 2 to 0000000000409c54
  DW_CFA_def_cfa_offset: 32
  DW_CFA_advance_loc: 2 to 0000000000409c56
  DW_CFA_def_cfa_offset: 24
  DW_CFA_advance_loc: 2 to 0000000000409c58
  DW_CFA_def_cfa_offset: 16
  DW_CFA_advance_loc: 2 to 0000000000409c5a
  DW_CFA_def_cfa_offset: 8
  DW_CFA_advance_loc: 6 to 0000000000409c60
  DW_CFA_restore_state
  DW_CFA_advance_loc2: 2758 to 000000000040a726
  DW_CFA_remember_state
  DW_CFA_def_cfa_offset: 56
  DW_CFA_advance_loc: 1 to 000000000040a727
  DW_CFA_def_cfa_offset: 48
  DW_CFA_advance_loc: 1 to 000000000040a728
  DW_CFA_def_cfa_offset: 40
  DW_CFA_advance_loc: 2 to 000000000040a72a
  DW_CFA_def_cfa_offset: 32
  DW_CFA_advance_loc: 2 to 000000000040a72c
  DW_CFA_def_cfa_offset: 24
  DW_CFA_advance_loc: 2 to 000000000040a72e
  DW_CFA_def_cfa_offset: 16
  DW_CFA_advance_loc: 2 to 000000000040a730
  DW_CFA_def_cfa_offset: 8
  DW_CFA_advance_loc: 8 to 000000000040a738
  DW_CFA_restore_state
  DW_CFA_nop
  DW_CFA_nop
  DW_CFA_nop

00000870 000000000000004c 00000844 FDE cie=00000030 pc=000000000040d380..000000000040db9f
  DW_CFA_advance_loc: 2 to 000000000040d382
  DW_CFA_def_cfa_offset: 16
  DW_CFA_offset: r15 (r15) at cfa-16
  DW_CFA_advance_loc: 2 to 000000000040d384
  DW_CFA_def_cfa_offset: 24
  DW_CFA_offset: r14 (r14) at cfa-24
  DW_CFA_advance_loc: 5 to 000000000040d389
  DW_CFA_def_cfa_offset: 32
  DW_CFA_offset: r13 (r13) at cfa-32
  DW_CFA_advance_loc: 2 to 000000000040d38b
  DW_CFA_def_cfa_offset: 40
  DW_CFA_offset: r12 (r12) at cfa-40
  DW_CFA_advance_loc: 4 to 000000000040d38f
  DW_CFA_def_cfa_offset: 48
  DW_CFA_offset: r6 (rbp) at cfa-48
  DW_CFA_advance_loc: 1 to 000000000040d390
  DW_CFA_def_cfa_offset: 56
  DW_CFA_offset: r3 (rbx) at cfa-56
  DW_CFA_advance_loc: 18 to 000000000040d3a2
  DW_CFA_def_cfa_offset: 2144
  DW_CFA_advance_loc2: 540 to 000000000040d5be
  DW_CFA_remember_state
  DW_CFA_def_cfa_offset: 56
  DW_CFA_advance_loc: 3 to 000000000040d5c1
  DW_CFA_def_cfa_offset: 48
  DW_CFA_advance_loc: 1 to 000000000040d5c2
  DW_CFA_def_cfa_offset: 40
  DW_CFA_advance_loc: 2 to 000000000040d5c4
  DW_CFA_def_cfa_offset: 32
  DW_CFA_advance_loc: 2 to 000000000040d5c6
  DW_CFA_def_cfa_offset: 24
  DW_CFA_advance_loc: 2 to 000000000040d5c8
  DW_CFA_def_cfa_offset: 16
  DW_CFA_advance_loc: 2 to 000000000040d5ca
  DW_CFA_def_cfa_offset: 8
  DW_CFA_advance_loc: 6 to 000000000040d5d0
  DW_CFA_restore_state
  DW_CFA_nop
  DW_CFA_nop
  DW_CFA_nop

000008c0 000000000000003c 00000894 FDE cie=00000030 pc=000000000040dba0..000000000040dc7d
  DW_CFA_advance_loc: 2 to 000000000040dba2
  DW_CFA_def_cfa_offset: 16
  DW_CFA_offset: r13 (r13) at cfa-16
  DW_CFA_advance_loc: 2 to 000000000040dba4
  DW_CFA_def_cfa_offset: 24
  DW_CFA_offset: r12 (r12) at cfa-24
  DW_CFA_advance_loc: 1 to 000000000040dba5
  DW_CFA_def_cfa_offset: 32
  DW_CFA_offset: r6 (rbp) at cfa-32
  DW_CFA_advance_loc: 1 to 000000000040dba6
  DW_CFA_def_cfa_offset: 40
  DW_CFA_offset: r3 (rbx) at cfa-40
  DW_CFA_advance_loc: 10 to 000000000040dbb0
  DW_CFA_def_cfa_offset: 80
  DW_CFA_advance_loc1: 187 to 000000000040dc6b
  DW_CFA_remember_state
  DW_CFA_def_cfa_offset: 40
  DW_CFA_advance_loc: 1 to 000000000040dc6c
  DW_CFA_def_cfa_offset: 32
  DW_CFA_advance_loc: 1 to 000000000040dc6d
  DW_CFA_def_cfa_offset: 24
  DW_CFA_advance_loc: 2 to 000000000040dc6f
  DW_CFA_def_cfa_offset: 16
  DW_CFA_advance_loc: 2 to 000000000040dc71
  DW_CFA_def_cfa_offset: 8
  DW_CFA_advance_loc: 1 to 000000000040dc72
  DW_CFA_restore_state
  DW_CFA_nop
  DW_CFA_nop
  DW_CFA_nop
  DW_CFA_nop
  DW_CFA_nop

00000900 0000000000000014 000008d4 FDE cie=00000030 pc=000000000040dc80..000000000040dcb8
  DW_CFA_nop
  DW_CFA_nop
  DW_CFA_nop
  DW_CFA_nop
  DW_CFA_nop
  DW_CFA_nop
  DW_CFA_nop

00000918 0000000000000014 000008ec FDE cie=00000030 pc=000000000040dcc0..000000000040dcc7
  DW_CFA_nop
  DW_CFA_nop
  DW_CFA_nop
  DW_CFA_nop
  DW_CFA_nop
  DW_CFA_nop
  DW_CFA_nop

00000930 0000000000000014 00000904 FDE cie=00000030 pc=000000000040dcd0..000000000040dd42
  DW_CFA_nop
  DW_CFA_nop
  DW_CFA_nop
  DW_CFA_nop
  DW_CFA_nop
  DW_CFA_nop
  DW_CFA_nop

00000948 000000000000002c 0000091c FDE cie=00000030 pc=000000000040dd50..000000000040e03b
  DW_CFA_advance_loc: 7 to 000000000040dd57
  DW_CFA_def_cfa_offset: 304
  DW_CFA_advance_loc1: 69 to 000000000040dd9c
  DW_CFA_def_cfa_offset: 432
  DW_CFA_advance_loc: 12 to 000000000040dda8
  DW_CFA_def_cfa_offset: 304
  DW_CFA_advance_loc1: 252 to 000000000040dea4
  DW_CFA_def_cfa_offset: 432
  DW_CFA_advance_loc: 12 to 000000000040deb0
  DW_CFA_def_cfa_offset: 304
  DW_CFA_advance_loc1: 79 to 000000000040deff
  DW_CFA_def_cfa_offset: 432
  DW_CFA_advance_loc: 12 to 000000000040df0b
  DW_CFA_def_cfa_offset: 304

00000978 000000000000004c 0000094c FDE cie=00000030 pc=000000000040e040..000000000040e483
  DW_CFA_advance_loc: 2 to 000000000040e042
  DW_CFA_def_cfa_offset: 16
  DW_CFA_offset: r15 (r15) at cfa-16
  DW_CFA_advance_loc: 2 to 000000000040e044
  DW_CFA_def_cfa_offset: 24
  DW_CFA_offset: r14 (r14) at cfa-24
  DW_CFA_advance_loc: 5 to 000000000040e049
  DW_CFA_def_cfa_offset: 32
  DW_CFA_offset: r13 (r13) at cfa-32
  DW_CFA_advance_loc: 2 to 000000000040e04b
  DW_CFA_def_cfa_offset: 40
  DW_CFA_offset: r12 (r12) at cfa-40
  DW_CFA_advance_loc: 4 to 000000000040e04f
  DW_CFA_def_cfa_offset: 48
  DW_CFA_offset: r6 (rbp) at cfa-48
  DW_CFA_advance_loc: 1 to 000000000040e050
  DW_CFA_def_cfa_offset: 56
  DW_CFA_offset: r3 (rbx) at cfa-56
  DW_CFA_advance_loc: 13 to 000000000040e05d
  DW_CFA_def_cfa_offset: 144
  DW_CFA_advance_loc2: 620 to 000000000040e2c9
  DW_CFA_remember_state
  DW_CFA_def_cfa_offset: 56
  DW_CFA_advance_loc: 1 to 000000000040e2ca
  DW_CFA_def_cfa_offset: 48
  DW_CFA_advance_loc: 1 to 000000000040e2cb
  DW_CFA_def_cfa_offset: 40
  DW_CFA_advance_loc: 2 to 000000000040e2cd
  DW_CFA_def_cfa_offset: 32
  DW_CFA_advance_loc: 2 to 000000000040e2cf
  DW_CFA_def_cfa_offset: 24
  DW_CFA_advance_loc: 2 to 000000000040e2d1
  DW_CFA_def_cfa_offset: 16
  DW_CFA_advance_loc: 2 to 000000000040e2d3
  DW_CFA_def_cfa_offset: 8
  DW_CFA_advance_loc: 13 to 000000000040e2e0
  DW_CFA_restore_state
  DW_CFA_nop
  DW_CFA_nop
  DW_CFA_nop

000009c8 0000000000000034 0000099c FDE cie=00000030 pc=000000000040e490..000000000040e917
  DW_CFA_advance_loc: 1 to 000000000040e491
  DW_CFA_def_cfa_offset: 16
  DW_CFA_offset: r6 (rbp) at cfa-16
  DW_CFA_advance_loc: 3 to 000000000040e494
  DW_CFA_def_cfa_register: r6 (rbp)
  DW_CFA_advance_loc: 8 to 000000000040e49c
  DW_CFA_offset: r15 (r15) at cfa-24
  DW_CFA_offset: r14 (r14) at cfa-32
  DW_CFA_offset: r13 (r13) at cfa-40
  DW_CFA_offset: r12 (r12) at cfa-48
  DW_CFA_advance_loc: 7 to 000000000040e4a3
  DW_CFA_offset: r3 (rbx) at cfa-56
  DW_CFA_advance_loc2: 780 to 000000000040e7af
  DW_CFA_remember_state
  DW_CFA_def_cfa: r7 (rsp) ofs 8
  DW_CFA_advance_loc: 1 to 000000000040e7b0
  DW_CFA_restore_state
  DW_CFA_advance_loc1: 96 to 000000000040e810
  DW_CFA_remember_state
  DW_CFA_def_cfa: r7 (rsp) ofs 8
  DW_CFA_advance_loc: 8 to 000000000040e818
  DW_CFA_restore_state
  DW_CFA_nop
  DW_CFA_nop

00000a00 0000000000000014 000009d4 FDE cie=00000030 pc=000000000040e920..000000000040e928
  DW_CFA_nop
  DW_CFA_nop
  DW_CFA_nop
  DW_CFA_nop
  DW_CFA_nop
  DW_CFA_nop
  DW_CFA_nop

00000a18 000000000000004c 000009ec FDE cie=00000030 pc=000000000040e930..000000000040ea0c
  DW_CFA_advance_loc: 2 to 000000000040e932
  DW_CFA_def_cfa_offset: 16
  DW_CFA_offset: r15 (r15) at cfa-16
  DW_CFA_advance_loc: 2 to 000000000040e934
  DW_CFA_def_cfa_offset: 24
  DW_CFA_offset: r14 (r14) at cfa-24
  DW_CFA_advance_loc: 2 to 000000000040e936
  DW_CFA_def_cfa_offset: 32
  DW_CFA_offset: r13 (r13) at cfa-32
  DW_CFA_advance_loc: 2 to 000000000040e938
  DW_CFA_def_cfa_offset: 40
  DW_CFA_offset: r12 (r12) at cfa-40
  DW_CFA_advance_loc: 1 to 000000000040e939
  DW_CFA_def_cfa_offset: 48
  DW_CFA_offset: r6 (rbp) at cfa-48
  DW_CFA_advance_loc: 1 to 000000000040e93a
  DW_CFA_def_cfa_offset: 56
  DW_CFA_offset: r3 (rbx) at cfa-56
  DW_CFA_advance_loc: 7 to 000000000040e941
  DW_CFA_def_cfa_offset: 64
  DW_CFA_advance_loc1: 89 to 000000000040e99a
  DW_CFA_remember_state
  DW_CFA_def_cfa_offset: 56
  DW_CFA_advance_loc: 4 to 000000000040e99e
  DW_CFA_def_cfa_offset: 48
  DW_CFA_advance_loc: 1 to 000000000040e99f
  DW_CFA_def_cfa_offset: 40
  DW_CFA_advance_loc: 2 to 000000000040e9a1
  DW_CFA_def_cfa_offset: 32
  DW_CFA_advance_loc: 2 to 000000000040e9a3
  DW_CFA_def_cfa_offset: 24
  DW_CFA_advance_loc: 2 to 000000000040e9a5
  DW_CFA_def_cfa_offset: 16
  DW_CFA_advance_loc: 2 to 000000000040e9a7
  DW_CFA_def_cfa_offset: 8
  DW_CFA_advance_loc: 9 to 000000000040e9b0
  DW_CFA_restore_state
  DW_CFA_nop
  DW_CFA_nop
  DW_CFA_nop
  DW_CFA_nop
  DW_CFA_nop

00000a68 0000000000000024 00000a3c FDE cie=00000030 pc=000000000040ea10..000000000040eb3a
  DW_CFA_advance_loc: 2 to 000000000040ea12
  DW_CFA_def_cfa_offset: 16
  DW_CFA_offset: r13 (r13) at cfa-16
  DW_CFA_advance_loc: 2 to 000000000040ea14
  DW_CFA_def_cfa_offset: 24
  DW_CFA_offset: r12 (r12) at cfa-24
  DW_CFA_advance_loc: 6 to 000000000040ea1a
  DW_CFA_def_cfa_offset: 32
  DW_CFA_offset: r6 (rbp) at cfa-32
  DW_CFA_advance_loc: 1 to 000000000040ea1b
  DW_CFA_def_cfa_offset: 40
  DW_CFA_offset: r3 (rbx) at cfa-40
  DW_CFA_advance_loc: 12 to 000000000040ea27
  DW_CFA_def_cfa_offset: 48

00000a90 0000000000000014 00000a64 FDE cie=00000030 pc=000000000040eb40..000000000040eb53
  DW_CFA_advance_loc: 4 to 000000000040eb44
  DW_CFA_def_cfa_offset: 16
  DW_CFA_nop
  DW_CFA_nop
  DW_CFA_nop
  DW_CFA_nop

00000aa8 000000000000003c 00000a7c FDE cie=00000030 pc=000000000040eb60..000000000040ece9
  DW_CFA_advance_loc: 1 to 000000000040eb61
  DW_CFA_def_cfa_offset: 16
  DW_CFA_offset: r6 (rbp) at cfa-16
  DW_CFA_advance_loc: 1 to 000000000040eb62
  DW_CFA_def_cfa_offset: 24
  DW_CFA_offset: r3 (rbx) at cfa-24
  DW_CFA_advance_loc: 14 to 000000000040eb70
  DW_CFA_def_cfa_offset: 32
  DW_CFA_advance_loc: 44 to 000000000040eb9c
  DW_CFA_def_cfa_offset: 160
  DW_CFA_advance_loc: 12 to 000000000040eba8
  DW_CFA_def_cfa_offset: 32
  DW_CFA_advance_loc1: 219 to 000000000040ec83
  DW_CFA_def_cfa_offset: 160
  DW_CFA_advance_loc: 12 to 000000000040ec8f
  DW_CFA_def_cfa_offset: 32
  DW_CFA_advance_loc: 4 to 000000000040ec93
  DW_CFA_remember_state
  DW_CFA_def_cfa_offset: 24
  DW_CFA_advance_loc: 4 to 000000000040ec97
  DW_CFA_def_cfa_offset: 16
  DW_CFA_advance_loc: 1 to 000000000040ec98
  DW_CFA_def_cfa_offset: 8
  DW_CFA_advance_loc: 1 to 000000000040ec99
  DW_CFA_restore_state
  DW_CFA_nop
  DW_CFA_nop
  DW_CFA_nop
  DW_CFA_nop
  DW_CFA_nop
  DW_CFA_nop
  DW_CFA_nop

00000ae8 000000000000002c 00000abc FDE cie=00000030 pc=000000000040ecf0..000000000040ed3b
  DW_CFA_advance_loc: 2 to 000000000040ecf2
  DW_CFA_def_cfa_offset: 16
  DW_CFA_offset: r12 (r12) at cfa-16
  DW_CFA_advance_loc: 1 to 000000000040ecf3
  DW_CFA_def_cfa_offset: 24
  DW_CFA_offset: r6 (rbp) at cfa-24
  DW_CFA_advance_loc: 4 to 000000000040ecf7
  DW_CFA_def_cfa_offset: 32
  DW_CFA_offset: r3 (rbx) at cfa-32
  DW_CFA_advance_loc: 57 to 000000000040ed30
  DW_CFA_remember_state
  DW_CFA_def_cfa_offset: 24
  DW_CFA_advance_loc: 1 to 000000000040ed31
  DW_CFA_def_cfa_offset: 16
  DW_CFA_advance_loc: 2 to 000000000040ed33
  DW_CFA_def_cfa_offset: 8
  DW_CFA_advance_loc: 1 to 000000000040ed34
  DW_CFA_restore_state
  DW_CFA_nop
  DW_CFA_nop
  DW_CFA_nop
  DW_CFA_nop

00000b18 000000000000002c 00000aec FDE cie=00000030 pc=000000000040ed40..000000000040ed8d
  DW_CFA_advance_loc: 2 to 000000000040ed42
  DW_CFA_def_cfa_offset: 16
  DW_CFA_offset: r12 (r12) at cfa-16
  DW_CFA_advance_loc: 1 to 000000000040ed43
  DW_CFA_def_cfa_offset: 24
  DW_CFA_offset: r6 (rbp) at cfa-24
  DW_CFA_advance_loc: 4 to 000000000040ed47
  DW_CFA_def_cfa_offset: 32
  DW_CFA_offset: r3 (rbx) at cfa-32
  DW_CFA_advance_loc: 59 to 000000000040ed82
  DW_CFA_remember_state
  DW_CFA_def_cfa_offset: 24
  DW_CFA_advance_loc: 1 to 000000000040ed83
  DW_CFA_def_cfa_offset: 16
  DW_CFA_advance_loc: 2 to 000000000040ed85
  DW_CFA_def_cfa_offset: 8
  DW_CFA_advance_loc: 1 to 000000000040ed86
  DW_CFA_restore_state
  DW_CFA_nop
  DW_CFA_nop
  DW_CFA_nop
  DW_CFA_nop

00000b48 0000000000000014 00000b1c FDE cie=00000030 pc=000000000040ed90..000000000040eda0
  DW_CFA_nop
  DW_CFA_nop
  DW_CFA_nop
  DW_CFA_nop
  DW_CFA_nop
  DW_CFA_nop
  DW_CFA_nop

00000b60 0000000000000014 00000b34 FDE cie=00000030 pc=000000000040eda0..000000000040edb2
  DW_CFA_nop
  DW_CFA_nop
  DW_CFA_nop
  DW_CFA_nop
  DW_CFA_nop
  DW_CFA_nop
  DW_CFA_nop

00000b78 000000000000007c 00000b4c FDE cie=00000030 pc=000000000040edc0..000000000040f1f5
  DW_CFA_advance_loc: 2 to 000000000040edc2
  DW_CFA_def_cfa_offset: 16
  DW_CFA_offset: r15 (r15) at cfa-16
  DW_CFA_advance_loc: 2 to 000000000040edc4
  DW_CFA_def_cfa_offset: 24
  DW_CFA_offset: r14 (r14) at cfa-24
  DW_CFA_advance_loc: 5 to 000000000040edc9
  DW_CFA_def_cfa_offset: 32
  DW_CFA_offset: r13 (r13) at cfa-32
  DW_CFA_advance_loc: 2 to 000000000040edcb
  DW_CFA_def_cfa_offset: 40
  DW_CFA_offset: r12 (r12) at cfa-40
  DW_CFA_advance_loc: 4 to 000000000040edcf
  DW_CFA_def_cfa_offset: 48
  DW_CFA_offset: r6 (rbp) at cfa-48
  DW_CFA_advance_loc: 1 to 000000000040edd0
  DW_CFA_def_cfa_offset: 56
  DW_CFA_offset: r3 (rbx) at cfa-56
  DW_CFA_advance_loc: 4 to 000000000040edd4
  DW_CFA_def_cfa_offset: 96
  DW_CFA_advance_loc2: 256 to 000000000040eed4
  DW_CFA_remember_state
  DW_CFA_def_cfa_offset: 56
  DW_CFA_advance_loc: 1 to 000000000040eed5
  DW_CFA_def_cfa_offset: 48
  DW_CFA_advance_loc: 1 to 000000000040eed6
  DW_CFA_def_cfa_offset: 40
  DW_CFA_advance_loc: 2 to 000000000040eed8
  DW_CFA_def_cfa_offset: 32
  DW_CFA_advance_loc: 2 to 000000000040eeda
  DW_CFA_def_cfa_offset: 24
  DW_CFA_advance_loc: 2 to 000000000040eedc
  DW_CFA_def_cfa_offset: 16
  DW_CFA_advance_loc: 2 to 000000000040eede
  DW_CFA_def_cfa_offset: 8
  DW_CFA_advance_loc: 2 to 000000000040eee0
  DW_CFA_restore_state
  DW_CFA_advance_loc1: 78 to 000000000040ef2e
  DW_CFA_remember_state
  DW_CFA_def_cfa_offset: 56
  DW_CFA_advance_loc: 3 to 000000000040ef31
  DW_CFA_def_cfa_offset: 48
  DW_CFA_advance_loc: 1 to 000000000040ef32
  DW_CFA_def_cfa_offset: 40
  DW_CFA_advance_loc: 2 to 000000000040ef34
  DW_CFA_def_cfa_offset: 32
  DW_CFA_advance_loc: 2 to 000000000040ef36
  DW_CFA_def_cfa_offset: 24
  DW_CFA_advance_loc: 2 to 000000000040ef38
  DW_CFA_def_cfa_offset: 16
  DW_CFA_advance_loc: 2 to 000000000040ef3a
  DW_CFA_def_cfa_offset: 8
  DW_CFA_advance_loc: 1 to 000000000040ef3b
  DW_CFA_restore_state
  DW_CFA_advance_loc1: 255 to 000000000040f03a
  DW_CFA_remember_state
  DW_CFA_def_cfa_offset: 56
  DW_CFA_advance_loc: 8 to 000000000040f042
  DW_CFA_def_cfa_offset: 48
  DW_CFA_advance_loc: 1 to 000000000040f043
  DW_CFA_def_cfa_offset: 40
  DW_CFA_advance_loc: 2 to 000000000040f045
  DW_CFA_def_cfa_offset: 32
  DW_CFA_advance_loc: 2 to 000000000040f047
  DW_CFA_def_cfa_offset: 24
  DW_CFA_advance_loc: 2 to 000000000040f049
  DW_CFA_def_cfa_offset: 16
  DW_CFA_advance_loc: 2 to 000000000040f04b
  DW_CFA_def_cfa_offset: 8
  DW_CFA_advance_loc: 5 to 000000000040f050
  DW_CFA_restore_state
  DW_CFA_nop
  DW_CFA_nop

00000bf8 0000000000000014 00000bcc FDE cie=00000030 pc=000000000040f200..000000000040f20a
  DW_CFA_nop
  DW_CFA_nop
  DW_CFA_nop
  DW_CFA_nop
  DW_CFA_nop
  DW_CFA_nop
  DW_CFA_nop

00000c10 0000000000000064 00000be4 FDE cie=00000030 pc=000000000040f210..000000000040f447
  DW_CFA_advance_loc: 2 to 000000000040f212
  DW_CFA_def_cfa_offset: 16
  DW_CFA_offset: r15 (r15) at cfa-16
  DW_CFA_advance_loc: 2 to 000000000040f214
  DW_CFA_def_cfa_offset: 24
  DW_CFA_offset: r14 (r14) at cfa-24
  DW_CFA_advance_loc: 2 to 000000000040f216
  DW_CFA_def_cfa_offset: 32
  DW_CFA_offset: r13 (r13) at cfa-32
  DW_CFA_advance_loc: 2 to 000000000040f218
  DW_CFA_def_cfa_offset: 40
  DW_CFA_offset: r12 (r12) at cfa-40
  DW_CFA_advance_loc: 1 to 000000000040f219
  DW_CFA_def_cfa_offset: 48
  DW_CFA_offset: r6 (rbp) at cfa-48
  DW_CFA_advance_loc: 1 to 000000000040f21a
  DW_CFA_def_cfa_offset: 56
  DW_CFA_offset: r3 (rbx) at cfa-56
  DW_CFA_advance_loc: 4 to 000000000040f21e
  DW_CFA_def_cfa_offset: 80
  DW_CFA_advance_loc1: 232 to 000000000040f306
  DW_CFA_remember_state
  DW_CFA_def_cfa_offset: 56
  DW_CFA_advance_loc: 1 to 000000000040f307
  DW_CFA_def_cfa_offset: 48
  DW_CFA_advance_loc: 1 to 000000000040f308
  DW_CFA_def_cfa_offset: 40
  DW_CFA_advance_loc: 2 to 000000000040f30a
  DW_CFA_def_cfa_offset: 32
  DW_CFA_advance_loc: 2 to 000000000040f30c
  DW_CFA_def_cfa_offset: 24
  DW_CFA_advance_loc: 2 to 000000000040f30e
  DW_CFA_def_cfa_offset: 16
  DW_CFA_advance_loc: 2 to 000000000040f310
  DW_CFA_def_cfa_offset: 8
  DW_CFA_advance_loc: 8 to 000000000040f318
  DW_CFA_restore_state
  DW_CFA_advance_loc: 21 to 000000000040f32d
  DW_CFA_remember_state
  DW_CFA_def_cfa_offset: 56
  DW_CFA_advance_loc: 4 to 000000000040f331
  DW_CFA_def_cfa_offset: 48
  DW_CFA_advance_loc: 1 to 000000000040f332
  DW_CFA_def_cfa_offset: 40
  DW_CFA_advance_loc: 2 to 000000000040f334
  DW_CFA_def_cfa_offset: 32
  DW_CFA_advance_loc: 2 to 000000000040f336
  DW_CFA_def_cfa_offset: 24
  DW_CFA_advance_loc: 2 to 000000000040f338
  DW_CFA_def_cfa_offset: 16
  DW_CFA_advance_loc: 2 to 000000000040f33a
  DW_CFA_def_cfa_offset: 8
  DW_CFA_advance_loc: 1 to 000000000040f33b
  DW_CFA_restore_state
  DW_CFA_nop
  DW_CFA_nop
  DW_CFA_nop
  DW_CFA_nop
  DW_CFA_nop

00000c78 000000000000001c 00000c4c FDE cie=00000030 pc=000000000040f450..000000000040f4ee
  DW_CFA_advance_loc: 7 to 000000000040f457
  DW_CFA_def_cfa_offset: 224
  DW_CFA_advance_loc1: 150 to 000000000040f4ed
  DW_CFA_def_cfa_offset: 8
  DW_CFA_nop
  DW_CFA_nop
  DW_CFA_nop
  DW_CFA_nop
  DW_CFA_nop
  DW_CFA_nop
  DW_CFA_nop

00000c98 000000000000001c 00000c6c FDE cie=00000030 pc=000000000040f4f0..000000000040f57f
  DW_CFA_advance_loc: 7 to 000000000040f4f7
  DW_CFA_def_cfa_offset: 224
  DW_CFA_advance_loc1: 135 to 000000000040f57e
  DW_CFA_def_cfa_offset: 8
  DW_CFA_nop
  DW_CFA_nop
  DW_CFA_nop
  DW_CFA_nop
  DW_CFA_nop
  DW_CFA_nop
  DW_CFA_nop

00000cb8 000000000000002c 00000c8c FDE cie=00000030 pc=000000000040f580..000000000040f6c6
  DW_CFA_advance_loc: 1 to 000000000040f581
  DW_CFA_def_cfa_offset: 16
  DW_CFA_offset: r6 (rbp) at cfa-16
  DW_CFA_advance_loc: 3 to 000000000040f584
  DW_CFA_def_cfa_register: r6 (rbp)
  DW_CFA_advance_loc: 5 to 000000000040f589
  DW_CFA_offset: r13 (r13) at cfa-24
  DW_CFA_offset: r12 (r12) at cfa-32
  DW_CFA_offset: r3 (rbx) at cfa-40
  DW_CFA_advance_loc2: 257 to 000000000040f68a
  DW_CFA_remember_state
  DW_CFA_def_cfa: r7 (rsp) ofs 8
  DW_CFA_advance_loc: 6 to 000000000040f690
  DW_CFA_restore_state
  DW_CFA_advance_loc: 28 to 000000000040f6ac
  DW_CFA_remember_state
  DW_CFA_def_cfa: r7 (rsp) ofs 8
  DW_CFA_advance_loc: 1 to 000000000040f6ad
  DW_CFA_restore_state

00000ce8 000000000000001c 00000000 CIE
  Version:               1
  Augmentation:          "zPLR"
  Code alignment factor: 1
  Data alignment factor: -8
  Return address column: 16
  Augmentation data:     03 20 e7 49 00 03 1b

  DW_CFA_def_cfa: r7 (rsp) ofs 8
  DW_CFA_offset: r16 (rip) at cfa-8
  DW_CFA_nop
  DW_CFA_nop

00000d08 0000000000000054 00000024 FDE cie=00000ce8 pc=000000000040f6d0..000000000040f92a
  Augmentation data:     44 93 4c 00

  DW_CFA_advance_loc: 2 to 000000000040f6d2
  DW_CFA_def_cfa_offset: 16
  DW_CFA_offset: r12 (r12) at cfa-16
  DW_CFA_advance_loc: 1 to 000000000040f6d3
  DW_CFA_def_cfa_offset: 24
  DW_CFA_offset: r6 (rbp) at cfa-24
  DW_CFA_advance_loc: 1 to 000000000040f6d4
  DW_CFA_def_cfa_offset: 32
  DW_CFA_offset: r3 (rbx) at cfa-32
  DW_CFA_advance_loc1: 131 to 000000000040f757
  DW_CFA_def_cfa_offset: 160
  DW_CFA_advance_loc: 12 to 000000000040f763
  DW_CFA_def_cfa_offset: 32
  DW_CFA_advance_loc1: 65 to 000000000040f7a4
  DW_CFA_def_cfa_offset: 160
  DW_CFA_advance_loc: 12 to 000000000040f7b0
  DW_CFA_def_cfa_offset: 32
  DW_CFA_advance_loc: 38 to 000000000040f7d6
  DW_CFA_remember_state
  DW_CFA_def_cfa_offset: 24
  DW_CFA_advance_loc: 1 to 000000000040f7d7
  DW_CFA_def_cfa_offset: 16
  DW_CFA_advance_loc: 2 to 000000000040f7d9
  DW_CFA_def_cfa_offset: 8
  DW_CFA_advance_loc: 7 to 000000000040f7e0
  DW_CFA_restore_state
  DW_CFA_advance_loc1: 73 to 000000000040f829
  DW_CFA_def_cfa_offset: 160
  DW_CFA_advance_loc: 12 to 000000000040f835
  DW_CFA_def_cfa_offset: 32
  DW_CFA_advance_loc1: 115 to 000000000040f8a8
  DW_CFA_def_cfa_offset: 160
  DW_CFA_advance_loc: 12 to 000000000040f8b4
  DW_CFA_def_cfa_offset: 32
  DW_CFA_advance_loc1: 98 to 000000000040f916
  DW_CFA_def_cfa_offset: 160
  DW_CFA_advance_loc: 12 to 000000000040f922
  DW_CFA_def_cfa_offset: 32

00000d60 000000000000003c 0000007c FDE cie=00000ce8 pc=000000000040f930..000000000040fa67
  Augmentation data:     57 93 4c 00

  DW_CFA_advance_loc: 10 to 000000000040f93a
  DW_CFA_def_cfa_offset: 16
  DW_CFA_offset: r3 (rbx) at cfa-16
  DW_CFA_advance_loc1: 73 to 000000000040f983
  DW_CFA_def_cfa_offset: 144
  DW_CFA_advance_loc: 12 to 000000000040f98f
  DW_CFA_def_cfa_offset: 16
  DW_CFA_advance_loc: 52 to 000000000040f9c3
  DW_CFA_remember_state
  DW_CFA_restore: r3 (rbx)
  DW_CFA_def_cfa_offset: 8
  DW_CFA_advance_loc: 5 to 000000000040f9c8
  DW_CFA_restore_state
  DW_CFA_advance_loc: 51 to 000000000040f9fb
  DW_CFA_def_cfa_offset: 144
  DW_CFA_advance_loc: 12 to 000000000040fa07
  DW_CFA_def_cfa_offset: 16
  DW_CFA_advance_loc: 3 to 000000000040fa0a
  DW_CFA_restore: r3 (rbx)
  DW_CFA_def_cfa_offset: 8
  DW_CFA_advance_loc: 11 to 000000000040fa15
  DW_CFA_def_cfa_offset: 16
  DW_CFA_offset: r3 (rbx) at cfa-16
  DW_CFA_advance_loc: 62 to 000000000040fa53
  DW_CFA_def_cfa_offset: 144
  DW_CFA_advance_loc: 12 to 000000000040fa5f
  DW_CFA_def_cfa_offset: 16

00000da0 0000000000000014 00000d74 FDE cie=00000030 pc=000000000040fa70..000000000040faab
  DW_CFA_nop
  DW_CFA_nop
  DW_CFA_nop
  DW_CFA_nop
  DW_CFA_nop
  DW_CFA_nop
  DW_CFA_nop

00000db8 000000000000004c 00000d8c FDE cie=00000030 pc=000000000040fab0..000000000040fba0
  DW_CFA_advance_loc: 2 to 000000000040fab2
  DW_CFA_def_cfa_offset: 16
  DW_CFA_offset: r13 (r13) at cfa-16
  DW_CFA_advance_loc: 2 to 000000000040fab4
  DW_CFA_def_cfa_offset: 24
  DW_CFA_offset: r12 (r12) at cfa-24
  DW_CFA_advance_loc: 4 to 000000000040fab8
  DW_CFA_def_cfa_offset: 32
  DW_CFA_offset: r6 (rbp) at cfa-32
  DW_CFA_advance_loc: 1 to 000000000040fab9
  DW_CFA_def_cfa_offset: 40
  DW_CFA_offset: r3 (rbx) at cfa-40
  DW_CFA_advance_loc: 15 to 000000000040fac8
  DW_CFA_def_cfa_offset: 48
  DW_CFA_advance_loc1: 112 to 000000000040fb38
  DW_CFA_remember_state
  DW_CFA_def_cfa_offset: 40
  DW_CFA_advance_loc: 4 to 000000000040fb3c
  DW_CFA_def_cfa_offset: 32
  DW_CFA_advance_loc: 1 to 000000000040fb3d
  DW_CFA_def_cfa_offset: 24
  DW_CFA_advance_loc: 2 to 000000000040fb3f
  DW_CFA_def_cfa_offset: 16
  DW_CFA_advance_loc: 2 to 000000000040fb41
  DW_CFA_def_cfa_offset: 8
  DW_CFA_advance_loc: 7 to 000000000040fb48
  DW_CFA_restore_state
  DW_CFA_advance_loc: 47 to 000000000040fb77
  DW_CFA_remember_state
  DW_CFA_def_cfa_offset: 40
  DW_CFA_advance_loc: 4 to 000000000040fb7b
  DW_CFA_def_cfa_offset: 32
  DW_CFA_advance_loc: 1 to 000000000040fb7c
  DW_CFA_def_cfa_offset: 24
  DW_CFA_advance_loc: 2 to 000000000040fb7e
  DW_CFA_def_cfa_offset: 16
  DW_CFA_advance_loc: 2 to 000000000040fb80
  DW_CFA_def_cfa_offset: 8
  DW_CFA_advance_loc: 8 to 000000000040fb88
  DW_CFA_restore_state
  DW_CFA_nop
  DW_CFA_nop
  DW_CFA_nop

00000e08 000000000000003c 00000ddc FDE cie=00000030 pc=000000000040fba0..000000000040fc78
  DW_CFA_advance_loc: 2 to 000000000040fba2
  DW_CFA_def_cfa_offset: 16
  DW_CFA_offset: r12 (r12) at cfa-16
  DW_CFA_advance_loc: 1 to 000000000040fba3
  DW_CFA_def_cfa_offset: 24
  DW_CFA_offset: r6 (rbp) at cfa-24
  DW_CFA_advance_loc: 4 to 000000000040fba7
  DW_CFA_def_cfa_offset: 32
  DW_CFA_offset: r3 (rbx) at cfa-32
  DW_CFA_advance_loc1: 122 to 000000000040fc21
  DW_CFA_remember_state
  DW_CFA_def_cfa_offset: 24
  DW_CFA_advance_loc: 1 to 000000000040fc22
  DW_CFA_def_cfa_offset: 16
  DW_CFA_advance_loc: 2 to 000000000040fc24
  DW_CFA_def_cfa_offset: 8
  DW_CFA_advance_loc: 4 to 000000000040fc28
  DW_CFA_restore_state
  DW_CFA_advance_loc: 47 to 000000000040fc57
  DW_CFA_remember_state
  DW_CFA_def_cfa_offset: 24
  DW_CFA_advance_loc: 1 to 000000000040fc58
  DW_CFA_def_cfa_offset: 16
  DW_CFA_advance_loc: 2 to 000000000040fc5a
  DW_CFA_def_cfa_offset: 8
  DW_CFA_advance_loc: 6 to 000000000040fc60
  DW_CFA_restore_state
  DW_CFA_nop
  DW_CFA_nop
  DW_CFA_nop
  DW_CFA_nop
  DW_CFA_nop
  DW_CFA_nop
  DW_CFA_nop

00000e48 000000000000003c 00000e1c FDE cie=00000030 pc=000000000040fc80..000000000040fd4a
  DW_CFA_advance_loc: 2 to 000000000040fc82
  DW_CFA_def_cfa_offset: 16
  DW_CFA_offset: r12 (r12) at cfa-16
  DW_CFA_advance_loc: 1 to 000000000040fc83
  DW_CFA_def_cfa_offset: 24
  DW_CFA_offset: r6 (rbp) at cfa-24
  DW_CFA_advance_loc: 4 to 000000000040fc87
  DW_CFA_def_cfa_offset: 32
  DW_CFA_offset: r3 (rbx) at cfa-32
  DW_CFA_advance_loc: 7 to 000000000040fc8e
  DW_CFA_def_cfa_offset: 48
  DW_CFA_advance_loc1: 70 to 000000000040fcd4
  DW_CFA_remember_state
  DW_CFA_def_cfa_offset: 32
  DW_CFA_advance_loc: 1 to 000000000040fcd5
  DW_CFA_def_cfa_offset: 24
  DW_CFA_advance_loc: 1 to 000000000040fcd6
  DW_CFA_def_cfa_offset: 16
  DW_CFA_advance_loc: 2 to 000000000040fcd8
  DW_CFA_def_cfa_offset: 8
  DW_CFA_advance_loc: 8 to 000000000040fce0
  DW_CFA_restore_state
  DW_CFA_advance_loc: 48 to 000000000040fd10
  DW_CFA_def_cfa_offset: 56
  DW_CFA_advance_loc: 3 to 000000000040fd13
  DW_CFA_def_cfa_offset: 64
  DW_CFA_advance_loc: 19 to 000000000040fd26
  DW_CFA_def_cfa_offset: 56
  DW_CFA_advance_loc: 1 to 000000000040fd27
  DW_CFA_def_cfa_offset: 48
  DW_CFA_nop

00000e88 00000000000000f4 000001a4 FDE cie=00000ce8 pc=000000000040fd50..0000000000410348
  Augmentation data:     65 93 4c 00

  DW_CFA_advance_loc: 32 to 000000000040fd70
  DW_CFA_def_cfa_offset: 16
  DW_CFA_offset: r15 (r15) at cfa-16
  DW_CFA_advance_loc: 2 to 000000000040fd72
  DW_CFA_def_cfa_offset: 24
  DW_CFA_offset: r14 (r14) at cfa-24
  DW_CFA_advance_loc: 2 to 000000000040fd74
  DW_CFA_def_cfa_offset: 32
  DW_CFA_offset: r13 (r13) at cfa-32
  DW_CFA_advance_loc: 2 to 000000000040fd76
  DW_CFA_def_cfa_offset: 40
  DW_CFA_offset: r12 (r12) at cfa-40
  DW_CFA_advance_loc: 1 to 000000000040fd77
  DW_CFA_def_cfa_offset: 48
  DW_CFA_offset: r6 (rbp) at cfa-48
  DW_CFA_advance_loc: 1 to 000000000040fd78
  DW_CFA_def_cfa_offset: 56
  DW_CFA_offset: r3 (rbx) at cfa-56
  DW_CFA_advance_loc: 7 to 000000000040fd7f
  DW_CFA_def_cfa_offset: 96
  DW_CFA_advance_loc1: 176 to 000000000040fe2f
  DW_CFA_def_cfa_offset: 224
  DW_CFA_advance_loc: 12 to 000000000040fe3b
  DW_CFA_def_cfa_offset: 96
  DW_CFA_advance_loc1: 237 to 000000000040ff28
  DW_CFA_def_cfa_offset: 104
  DW_CFA_advance_loc: 3 to 000000000040ff2b
  DW_CFA_def_cfa_offset: 112
  DW_CFA_advance_loc: 21 to 000000000040ff40
  DW_CFA_def_cfa_offset: 104
  DW_CFA_advance_loc: 1 to 000000000040ff41
  DW_CFA_def_cfa_offset: 96
  DW_CFA_advance_loc1: 185 to 000000000040fffa
  DW_CFA_remember_state
  DW_CFA_def_cfa_offset: 56
  DW_CFA_advance_loc: 1 to 000000000040fffb
  DW_CFA_restore: r3 (rbx)
  DW_CFA_def_cfa_offset: 48
  DW_CFA_advance_loc: 1 to 000000000040fffc
  DW_CFA_restore: r6 (rbp)
  DW_CFA_def_cfa_offset: 40
  DW_CFA_advance_loc: 2 to 000000000040fffe
  DW_CFA_restore: r12 (r12)
  DW_CFA_def_cfa_offset: 32
  DW_CFA_advance_loc: 2 to 0000000000410000
  DW_CFA_restore: r13 (r13)
  DW_CFA_def_cfa_offset: 24
  DW_CFA_advance_loc: 2 to 0000000000410002
  DW_CFA_restore: r14 (r14)
  DW_CFA_def_cfa_offset: 16
  DW_CFA_advance_loc: 2 to 0000000000410004
  DW_CFA_restore: r15 (r15)
  DW_CFA_def_cfa_offset: 8
  DW_CFA_advance_loc: 4 to 0000000000410008
  DW_CFA_restore_state
  DW_CFA_advance_loc1: 132 to 000000000041008c
  DW_CFA_def_cfa_offset: 104
  DW_CFA_advance_loc: 3 to 000000000041008f
  DW_CFA_def_cfa_offset: 112
  DW_CFA_advance_loc: 24 to 00000000004100a7
  DW_CFA_def_cfa_offset: 104
  DW_CFA_advance_loc: 1 to 00000000004100a8
  DW_CFA_def_cfa_offset: 96
  DW_CFA_advance_loc: 40 to 00000000004100d0
  DW_CFA_def_cfa_offset: 8
  DW_CFA_restore: r3 (rbx)
  DW_CFA_restore: r6 (rbp)
  DW_CFA_restore: r12 (r12)
  DW_CFA_restore: r13 (r13)
  DW_CFA_restore: r14 (r14)
  DW_CFA_restore: r15 (r15)
  DW_CFA_advance_loc: 8 to 00000000004100d8
  DW_CFA_def_cfa_offset: 96
  DW_CFA_offset: r3 (rbx) at cfa-56
  DW_CFA_offset: r6 (rbp) at cfa-48
  DW_CFA_offset: r12 (r12) at cfa-40
  DW_CFA_offset: r13 (r13) at cfa-32
  DW_CFA_offset: r14 (r14) at cfa-24
  DW_CFA_offset: r15 (r15) at cfa-16
  DW_CFA_advance_loc: 30 to 00000000004100f6
  DW_CFA_remember_state
  DW_CFA_def_cfa_offset: 56
  DW_CFA_advance_loc: 1 to 00000000004100f7
  DW_CFA_restore: r3 (rbx)
  DW_CFA_def_cfa_offset: 48
  DW_CFA_advance_loc: 6 to 00000000004100fd
  DW_CFA_restore: r6 (rbp)
  DW_CFA_def_cfa_offset: 40
  DW_CFA_advance_loc: 2 to 00000000004100ff
  DW_CFA_restore: r12 (r12)
  DW_CFA_def_cfa_offset: 32
  DW_CFA_advance_loc: 2 to 0000000000410101
  DW_CFA_restore: r13 (r13)
  DW_CFA_def_cfa_offset: 24
  DW_CFA_advance_loc: 2 to 0000000000410103
  DW_CFA_restore: r14 (r14)
  DW_CFA_def_cfa_offset: 16
  DW_CFA_advance_loc: 2 to 0000000000410105
  DW_CFA_restore: r15 (r15)
  DW_CFA_def_cfa_offset: 8
  DW_CFA_advance_loc: 11 to 0000000000410110
  DW_CFA_restore_state
  DW_CFA_advance_loc: 48 to 0000000000410140
  DW_CFA_def_cfa_offset: 104
  DW_CFA_advance_loc: 3 to 0000000000410143
  DW_CFA_def_cfa_offset: 112
  DW_CFA_advance_loc: 39 to 000000000041016a
  DW_CFA_def_cfa_offset: 104
  DW_CFA_advance_loc: 9 to 0000000000410173
  DW_CFA_def_cfa_offset: 96
  DW_CFA_advance_loc1: 110 to 00000000004101e1
  DW_CFA_def_cfa_offset: 56
  DW_CFA_advance_loc: 1 to 00000000004101e2
  DW_CFA_restore: r3 (rbx)
  DW_CFA_def_cfa_offset: 48
  DW_CFA_advance_loc: 1 to 00000000004101e3
  DW_CFA_restore: r6 (rbp)
  DW_CFA_def_cfa_offset: 40
  DW_CFA_advance_loc: 2 to 00000000004101e5
  DW_CFA_restore: r12 (r12)
  DW_CFA_def_cfa_offset: 32
  DW_CFA_advance_loc: 2 to 00000000004101e7
  DW_CFA_restore: r13 (r13)
  DW_CFA_def_cfa_offset: 24
  DW_CFA_advance_loc: 2 to 00000000004101e9
  DW_CFA_restore: r14 (r14)
  DW_CFA_def_cfa_offset: 16
  DW_CFA_advance_loc: 2 to 00000000004101eb
  DW_CFA_restore: r15 (r15)
  DW_CFA_def_cfa_offset: 8
  DW_CFA_advance_loc: 37 to 0000000000410210
  DW_CFA_def_cfa_offset: 96
  DW_CFA_offset: r3 (rbx) at cfa-56
  DW_CFA_offset: r6 (rbp) at cfa-48
  DW_CFA_offset: r12 (r12) at cfa-40
  DW_CFA_offset: r13 (r13) at cfa-32
  DW_CFA_offset: r14 (r14) at cfa-24
  DW_CFA_offset: r15 (r15) at cfa-16
  DW_CFA_advance_loc1: 171 to 00000000004102bb
  DW_CFA_def_cfa_offset: 224
  DW_CFA_advance_loc: 12 to 00000000004102c7
  DW_CFA_def_cfa_offset: 96
  DW_CFA_advance_loc1: 101 to 000000000041032c
  DW_CFA_def_cfa_offset: 224
  DW_CFA_advance_loc: 12 to 0000000000410338
  DW_CFA_def_cfa_offset: 96
  DW_CFA_nop
  DW_CFA_nop
  DW_CFA_nop
  DW_CFA_nop

00000f80 000000000000005c 00000f54 FDE cie=00000030 pc=0000000000410350..0000000000410a9b
  DW_CFA_advance_loc: 2 to 0000000000410352
  DW_CFA_def_cfa_offset: 16
  DW_CFA_offset: r15 (r15) at cfa-16
  DW_CFA_advance_loc: 2 to 0000000000410354
  DW_CFA_def_cfa_offset: 24
  DW_CFA_offset: r14 (r14) at cfa-24
  DW_CFA_advance_loc: 5 to 0000000000410359
  DW_CFA_def_cfa_offset: 32
  DW_CFA_offset: r13 (r13) at cfa-32
  DW_CFA_advance_loc: 2 to 000000000041035b
  DW_CFA_def_cfa_offset: 40
  DW_CFA_offset: r12 (r12) at cfa-40
  DW_CFA_advance_loc: 1 to 000000000041035c
  DW_CFA_def_cfa_offset: 48
  DW_CFA_offset: r6 (rbp) at cfa-48
  DW_CFA_advance_loc: 1 to 000000000041035d
  DW_CFA_def_cfa_offset: 56
  DW_CFA_offset: r3 (rbx) at cfa-56
  DW_CFA_advance_loc: 7 to 0000000000410364
  DW_CFA_def_cfa_offset: 240
  DW_CFA_advance_loc1: 74 to 00000000004103ae
  DW_CFA_remember_state
  DW_CFA_def_cfa_offset: 56
  DW_CFA_advance_loc: 4 to 00000000004103b2
  DW_CFA_def_cfa_offset: 48
  DW_CFA_advance_loc: 1 to 00000000004103b3
  DW_CFA_def_cfa_offset: 40
  DW_CFA_advance_loc: 2 to 00000000004103b5
  DW_CFA_def_cfa_offset: 32
  DW_CFA_advance_loc: 2 to 00000000004103b7
  DW_CFA_def_cfa_offset: 24
  DW_CFA_advance_loc: 2 to 00000000004103b9
  DW_CFA_def_cfa_offset: 16
  DW_CFA_advance_loc: 2 to 00000000004103bb
  DW_CFA_def_cfa_offset: 8
  DW_CFA_advance_loc: 5 to 00000000004103c0
  DW_CFA_restore_state
  DW_CFA_advance_loc2: 1682 to 0000000000410a52
  DW_CFA_def_cfa_offset: 248
  DW_CFA_advance_loc: 1 to 0000000000410a53
  DW_CFA_def_cfa_offset: 256
  DW_CFA_advance_loc: 24 to 0000000000410a6b
  DW_CFA_def_cfa_offset: 248
  DW_CFA_advance_loc: 3 to 0000000000410a6e
  DW_CFA_def_cfa_offset: 240
  DW_CFA_nop
  DW_CFA_nop

00000fe0 000000000000004c 00000fb4 FDE cie=00000030 pc=0000000000410aa0..0000000000410be8
  DW_CFA_advance_loc: 31 to 0000000000410abf
  DW_CFA_def_cfa_offset: 16
  DW_CFA_offset: r6 (rbp) at cfa-16
  DW_CFA_advance_loc: 1 to 0000000000410ac0
  DW_CFA_def_cfa_offset: 24
  DW_CFA_offset: r3 (rbx) at cfa-24
  DW_CFA_advance_loc: 7 to 0000000000410ac7
  DW_CFA_def_cfa_offset: 48
  DW_CFA_advance_loc1: 80 to 0000000000410b17
  DW_CFA_def_cfa_offset: 56
  DW_CFA_advance_loc: 3 to 0000000000410b1a
  DW_CFA_def_cfa_offset: 64
  DW_CFA_advance_loc: 28 to 0000000000410b36
  DW_CFA_def_cfa_offset: 56
  DW_CFA_advance_loc: 1 to 0000000000410b37
  DW_CFA_def_cfa_offset: 48
  DW_CFA_advance_loc: 35 to 0000000000410b5a
  DW_CFA_def_cfa_offset: 24
  DW_CFA_advance_loc: 1 to 0000000000410b5b
  DW_CFA_restore: r3 (rbx)
  DW_CFA_def_cfa_offset: 16
  DW_CFA_advance_loc: 1 to 0000000000410b5c
  DW_CFA_restore: r6 (rbp)
  DW_CFA_def_cfa_offset: 8
  DW_CFA_advance_loc: 12 to 0000000000410b68
  DW_CFA_def_cfa_offset: 48
  DW_CFA_offset: r3 (rbx) at cfa-24
  DW_CFA_offset: r6 (rbp) at cfa-16
  DW_CFA_advance_loc: 46 to 0000000000410b96
  DW_CFA_def_cfa_offset: 24
  DW_CFA_advance_loc: 1 to 0000000000410b97
  DW_CFA_restore: r3 (rbx)
  DW_CFA_def_cfa_offset: 16
  DW_CFA_advance_loc: 1 to 0000000000410b98
  DW_CFA_restore: r6 (rbp)
  DW_CFA_def_cfa_offset: 8
  DW_CFA_advance_loc: 40 to 0000000000410bc0
  DW_CFA_def_cfa_offset: 48
  DW_CFA_offset: r3 (rbx) at cfa-24
  DW_CFA_offset: r6 (rbp) at cfa-16
  DW_CFA_nop

00001030 000000000000001c 00001004 FDE cie=00000030 pc=0000000000410bf0..0000000000410c18
  DW_CFA_advance_loc: 1 to 0000000000410bf1
  DW_CFA_def_cfa_offset: 16
  DW_CFA_offset: r3 (rbx) at cfa-16
  DW_CFA_advance_loc: 14 to 0000000000410bff
  DW_CFA_remember_state
  DW_CFA_def_cfa_offset: 8
  DW_CFA_advance_loc: 1 to 0000000000410c00
  DW_CFA_restore_state
  DW_CFA_advance_loc: 11 to 0000000000410c0b
  DW_CFA_def_cfa_offset: 8
  DW_CFA_nop

00001050 0000000000000074 00001024 FDE cie=00000030 pc=0000000000410c20..0000000000410de2
  DW_CFA_advance_loc: 2 to 0000000000410c22
  DW_CFA_def_cfa_offset: 16
  DW_CFA_offset: r15 (r15) at cfa-16
  DW_CFA_advance_loc: 2 to 0000000000410c24
  DW_CFA_def_cfa_offset: 24
  DW_CFA_offset: r14 (r14) at cfa-24
  DW_CFA_advance_loc: 2 to 0000000000410c26
  DW_CFA_def_cfa_offset: 32
  DW_CFA_offset: r13 (r13) at cfa-32
  DW_CFA_advance_loc: 2 to 0000000000410c28
  DW_CFA_def_cfa_offset: 40
  DW_CFA_offset: r12 (r12) at cfa-40
  DW_CFA_advance_loc: 1 to 0000000000410c29
  DW_CFA_def_cfa_offset: 48
  DW_CFA_offset: r6 (rbp) at cfa-48
  DW_CFA_advance_loc: 1 to 0000000000410c2a
  DW_CFA_def_cfa_offset: 56
  DW_CFA_offset: r3 (rbx) at cfa-56
  DW_CFA_advance_loc: 7 to 0000000000410c31
  DW_CFA_def_cfa_offset: 112
  DW_CFA_advance_loc1: 108 to 0000000000410c9d
  DW_CFA_def_cfa_offset: 120
  DW_CFA_advance_loc: 1 to 0000000000410c9e
  DW_CFA_def_cfa_offset: 128
  DW_CFA_advance_loc: 26 to 0000000000410cb8
  DW_CFA_def_cfa_offset: 120
  DW_CFA_advance_loc: 1 to 0000000000410cb9
  DW_CFA_def_cfa_offset: 112
  DW_CFA_advance_loc1: 179 to 0000000000410d6c
  DW_CFA_remember_state
  DW_CFA_def_cfa_offset: 56
  DW_CFA_advance_loc: 1 to 0000000000410d6d
  DW_CFA_def_cfa_offset: 48
  DW_CFA_advance_loc: 1 to 0000000000410d6e
  DW_CFA_def_cfa_offset: 40
  DW_CFA_advance_loc: 2 to 0000000000410d70
  DW_CFA_def_cfa_offset: 32
  DW_CFA_advance_loc: 2 to 0000000000410d72
  DW_CFA_def_cfa_offset: 24
  DW_CFA_advance_loc: 2 to 0000000000410d74
  DW_CFA_def_cfa_offset: 16
  DW_CFA_advance_loc: 2 to 0000000000410d76
  DW_CFA_def_cfa_offset: 8
  DW_CFA_advance_loc: 10 to 0000000000410d80
  DW_CFA_restore_state
  DW_CFA_advance_loc: 47 to 0000000000410daf
  DW_CFA_remember_state
  DW_CFA_def_cfa_offset: 56
  DW_CFA_advance_loc: 3 to 0000000000410db2
  DW_CFA_def_cfa_offset: 48
  DW_CFA_advance_loc: 1 to 0000000000410db3
  DW_CFA_def_cfa_offset: 40
  DW_CFA_advance_loc: 2 to 0000000000410db5
  DW_CFA_def_cfa_offset: 32
  DW_CFA_advance_loc: 2 to 0000000000410db7
  DW_CFA_def_cfa_offset: 24
  DW_CFA_advance_loc: 2 to 0000000000410db9
  DW_CFA_def_cfa_offset: 16
  DW_CFA_advance_loc: 2 to 0000000000410dbb
  DW_CFA_def_cfa_offset: 8
  DW_CFA_advance_loc: 1 to 0000000000410dbc
  DW_CFA_restore_state
  DW_CFA_nop
  DW_CFA_nop
  DW_CFA_nop
  DW_CFA_nop
  DW_CFA_nop
  DW_CFA_nop
  DW_CFA_nop

000010c8 0000000000000054 0000109c FDE cie=00000030 pc=0000000000410df0..000000000041105b
  DW_CFA_advance_loc: 33 to 0000000000410e11
  DW_CFA_def_cfa_offset: 16
  DW_CFA_offset: r6 (rbp) at cfa-16
  DW_CFA_advance_loc: 1 to 0000000000410e12
  DW_CFA_def_cfa_offset: 24
  DW_CFA_offset: r3 (rbx) at cfa-24
  DW_CFA_advance_loc: 9 to 0000000000410e1b
  DW_CFA_def_cfa_offset: 32
  DW_CFA_advance_loc1: 206 to 0000000000410ee9
  DW_CFA_remember_state
  DW_CFA_def_cfa_offset: 24
  DW_CFA_advance_loc: 6 to 0000000000410eef
  DW_CFA_restore: r3 (rbx)
  DW_CFA_def_cfa_offset: 16
  DW_CFA_advance_loc: 1 to 0000000000410ef0
  DW_CFA_restore: r6 (rbp)
  DW_CFA_def_cfa_offset: 8
  DW_CFA_advance_loc: 8 to 0000000000410ef8
  DW_CFA_restore_state
  DW_CFA_advance_loc: 14 to 0000000000410f06
  DW_CFA_remember_state
  DW_CFA_def_cfa_offset: 24
  DW_CFA_advance_loc: 3 to 0000000000410f09
  DW_CFA_restore: r3 (rbx)
  DW_CFA_def_cfa_offset: 16
  DW_CFA_advance_loc: 1 to 0000000000410f0a
  DW_CFA_restore: r6 (rbp)
  DW_CFA_def_cfa_offset: 8
  DW_CFA_advance_loc: 6 to 0000000000410f10
  DW_CFA_restore_state
  DW_CFA_advance_loc: 36 to 0000000000410f34
  DW_CFA_remember_state
  DW_CFA_def_cfa_offset: 24
  DW_CFA_advance_loc: 1 to 0000000000410f35
  DW_CFA_restore: r3 (rbx)
  DW_CFA_def_cfa_offset: 16
  DW_CFA_advance_loc: 1 to 0000000000410f36
  DW_CFA_restore: r6 (rbp)
  DW_CFA_def_cfa_offset: 8
  DW_CFA_advance_loc: 18 to 0000000000410f48
  DW_CFA_restore_state
  DW_CFA_advance_loc1: 116 to 0000000000410fbc
  DW_CFA_remember_state
  DW_CFA_def_cfa_offset: 24
  DW_CFA_advance_loc: 4 to 0000000000410fc0
  DW_CFA_restore: r3 (rbx)
  DW_CFA_def_cfa_offset: 16
  DW_CFA_advance_loc: 1 to 0000000000410fc1
  DW_CFA_restore: r6 (rbp)
  DW_CFA_def_cfa_offset: 8
  DW_CFA_advance_loc: 15 to 0000000000410fd0
  DW_CFA_restore_state

00001120 0000000000000034 000010f4 FDE cie=00000030 pc=0000000000411060..00000000004111b8
  DW_CFA_advance_loc: 2 to 0000000000411062
  DW_CFA_def_cfa_offset: 16
  DW_CFA_offset: r12 (r12) at cfa-16
  DW_CFA_advance_loc: 1 to 0000000000411063
  DW_CFA_def_cfa_offset: 24
  DW_CFA_offset: r6 (rbp) at cfa-24
  DW_CFA_advance_loc: 1 to 0000000000411064
  DW_CFA_def_cfa_offset: 32
  DW_CFA_offset: r3 (rbx) at cfa-32
  DW_CFA_advance_loc: 59 to 000000000041109f
  DW_CFA_remember_state
  DW_CFA_def_cfa_offset: 24
  DW_CFA_advance_loc: 6 to 00000000004110a5
  DW_CFA_def_cfa_offset: 16
  DW_CFA_advance_loc: 2 to 00000000004110a7
  DW_CFA_def_cfa_offset: 8
  DW_CFA_advance_loc: 9 to 00000000004110b0
  DW_CFA_restore_state
  DW_CFA_advance_loc: 37 to 00000000004110d5
  DW_CFA_remember_state
  DW_CFA_def_cfa_offset: 24
  DW_CFA_advance_loc: 1 to 00000000004110d6
  DW_CFA_def_cfa_offset: 16
  DW_CFA_advance_loc: 2 to 00000000004110d8
  DW_CFA_def_cfa_offset: 8
  DW_CFA_advance_loc: 8 to 00000000004110e0
  DW_CFA_restore_state

00001158 000000000000005c 0000112c FDE cie=00000030 pc=00000000004111c0..000000000041148e
  DW_CFA_advance_loc: 11 to 00000000004111cb
  DW_CFA_def_cfa_offset: 16
  DW_CFA_offset: r15 (r15) at cfa-16
  DW_CFA_advance_loc: 2 to 00000000004111cd
  DW_CFA_def_cfa_offset: 24
  DW_CFA_offset: r14 (r14) at cfa-24
  DW_CFA_advance_loc: 2 to 00000000004111cf
  DW_CFA_def_cfa_offset: 32
  DW_CFA_offset: r13 (r13) at cfa-32
  DW_CFA_advance_loc: 2 to 00000000004111d1
  DW_CFA_def_cfa_offset: 40
  DW_CFA_offset: r12 (r12) at cfa-40
  DW_CFA_advance_loc: 4 to 00000000004111d5
  DW_CFA_def_cfa_offset: 48
  DW_CFA_offset: r6 (rbp) at cfa-48
  DW_CFA_advance_loc: 1 to 00000000004111d6
  DW_CFA_def_cfa_offset: 56
  DW_CFA_offset: r3 (rbx) at cfa-56
  DW_CFA_advance_loc: 10 to 00000000004111e0
  DW_CFA_def_cfa_offset: 96
  DW_CFA_advance_loc2: 435 to 0000000000411393
  DW_CFA_def_cfa_offset: 56
  DW_CFA_advance_loc: 7 to 000000000041139a
  DW_CFA_restore: r3 (rbx)
  DW_CFA_def_cfa_offset: 48
  DW_CFA_advance_loc: 1 to 000000000041139b
  DW_CFA_restore: r6 (rbp)
  DW_CFA_def_cfa_offset: 40
  DW_CFA_advance_loc: 2 to 000000000041139d
  DW_CFA_restore: r12 (r12)
  DW_CFA_def_cfa_offset: 32
  DW_CFA_advance_loc: 2 to 000000000041139f
  DW_CFA_restore: r13 (r13)
  DW_CFA_def_cfa_offset: 24
  DW_CFA_advance_loc: 2 to 00000000004113a1
  DW_CFA_restore: r14 (r14)
  DW_CFA_def_cfa_offset: 16
  DW_CFA_advance_loc: 2 to 00000000004113a3
  DW_CFA_restore: r15 (r15)
  DW_CFA_def_cfa_offset: 8
  DW_CFA_advance_loc: 13 to 00000000004113b0
  DW_CFA_def_cfa_offset: 96
  DW_CFA_offset: r3 (rbx) at cfa-56
  DW_CFA_offset: r6 (rbp) at cfa-48
  DW_CFA_offset: r12 (r12) at cfa-40
  DW_CFA_offset: r13 (r13) at cfa-32
  DW_CFA_offset: r14 (r14) at cfa-24
  DW_CFA_offset: r15 (r15) at cfa-16
  DW_CFA_nop
  DW_CFA_nop

000011b8 000000000000003c 0000118c FDE cie=00000030 pc=0000000000411490..00000000004115d7
  DW_CFA_advance_loc: 2 to 0000000000411492
  DW_CFA_def_cfa_offset: 16
  DW_CFA_offset: r13 (r13) at cfa-16
  DW_CFA_advance_loc: 2 to 0000000000411494
  DW_CFA_def_cfa_offset: 24
  DW_CFA_offset: r12 (r12) at cfa-24
  DW_CFA_advance_loc: 4 to 0000000000411498
  DW_CFA_def_cfa_offset: 32
  DW_CFA_offset: r6 (rbp) at cfa-32
  DW_CFA_advance_loc: 1 to 0000000000411499
  DW_CFA_def_cfa_offset: 40
  DW_CFA_offset: r3 (rbx) at cfa-40
  DW_CFA_advance_loc: 18 to 00000000004114ab
  DW_CFA_def_cfa_offset: 288
  DW_CFA_advance_loc1: 203 to 0000000000411576
  DW_CFA_remember_state
  DW_CFA_def_cfa_offset: 40
  DW_CFA_advance_loc: 1 to 0000000000411577
  DW_CFA_def_cfa_offset: 32
  DW_CFA_advance_loc: 1 to 0000000000411578
  DW_CFA_def_cfa_offset: 24
  DW_CFA_advance_loc: 2 to 000000000041157a
  DW_CFA_def_cfa_offset: 16
  DW_CFA_advance_loc: 2 to 000000000041157c
  DW_CFA_def_cfa_offset: 8
  DW_CFA_advance_loc: 4 to 0000000000411580
  DW_CFA_restore_state
  DW_CFA_nop
  DW_CFA_nop
  DW_CFA_nop
  DW_CFA_nop

000011f8 0000000000000014 000011cc FDE cie=00000030 pc=00000000004115e0..00000000004115e5
  DW_CFA_nop
  DW_CFA_nop
  DW_CFA_nop
  DW_CFA_nop
  DW_CFA_nop
  DW_CFA_nop
  DW_CFA_nop

00001210 000000000000002c 000011e4 FDE cie=00000030 pc=0000000000400390..00000000004004d3
  DW_CFA_advance_loc: 18 to 00000000004003a2
  DW_CFA_def_cfa_offset: 16
  DW_CFA_offset: r6 (rbp) at cfa-16
  DW_CFA_advance_loc: 1 to 00000000004003a3
  DW_CFA_def_cfa_offset: 24
  DW_CFA_offset: r3 (rbx) at cfa-24
  DW_CFA_advance_loc: 14 to 00000000004003b1
  DW_CFA_def_cfa_offset: 1568
  DW_CFA_advance_loc2: 287 to 00000000004004d0
  DW_CFA_def_cfa_offset: 24
  DW_CFA_advance_loc: 1 to 00000000004004d1
  DW_CFA_restore: r3 (rbx)
  DW_CFA_def_cfa_offset: 16
  DW_CFA_advance_loc: 1 to 00000000004004d2
  DW_CFA_restore: r6 (rbp)
  DW_CFA_def_cfa_offset: 8
  DW_CFA_nop
  DW_CFA_nop
  DW_CFA_nop
  DW_CFA_nop

00001240 0000000000000024 00001214 FDE cie=00000030 pc=00000000004115f0..00000000004117a5
  DW_CFA_advance_loc: 1 to 00000000004115f1
  DW_CFA_def_cfa_offset: 16
  DW_CFA_offset: r6 (rbp) at cfa-16
  DW_CFA_advance_loc: 8 to 00000000004115f9
  DW_CFA_def_cfa_register: r6 (rbp)
  DW_CFA_advance_loc: 17 to 000000000041160a
  DW_CFA_offset: r15 (r15) at cfa-24
  DW_CFA_offset: r14 (r14) at cfa-32
  DW_CFA_offset: r13 (r13) at cfa-40
  DW_CFA_offset: r12 (r12) at cfa-48
  DW_CFA_offset: r3 (rbx) at cfa-56
  DW_CFA_nop
  DW_CFA_nop
  DW_CFA_nop
  DW_CFA_nop

00001268 000000000000002c 0000123c FDE cie=00000030 pc=00000000004117b0..0000000000411a76
  DW_CFA_advance_loc: 1 to 00000000004117b1
  DW_CFA_def_cfa_offset: 16
  DW_CFA_offset: r6 (rbp) at cfa-16
  DW_CFA_advance_loc: 3 to 00000000004117b4
  DW_CFA_def_cfa_register: r6 (rbp)
  DW_CFA_advance_loc: 13 to 00000000004117c1
  DW_CFA_offset: r15 (r15) at cfa-24
  DW_CFA_offset: r14 (r14) at cfa-32
  DW_CFA_offset: r13 (r13) at cfa-40
  DW_CFA_offset: r12 (r12) at cfa-48
  DW_CFA_offset: r3 (rbx) at cfa-56
  DW_CFA_advance_loc2: 441 to 000000000041197a
  DW_CFA_remember_state
  DW_CFA_def_cfa: r7 (rsp) ofs 8
  DW_CFA_advance_loc: 1 to 000000000041197b
  DW_CFA_restore_state
  DW_CFA_nop
  DW_CFA_nop
  DW_CFA_nop

00001298 0000000000000014 0000126c FDE cie=00000030 pc=0000000000411a80..0000000000411a98
  DW_CFA_advance_loc: 7 to 0000000000411a87
  DW_CFA_def_cfa_offset: 16
  DW_CFA_nop
  DW_CFA_nop
  DW_CFA_nop
  DW_CFA_nop

000012b0 0000000000000034 00001284 FDE cie=00000030 pc=0000000000411aa0..0000000000411b33
  DW_CFA_advance_loc: 13 to 0000000000411aad
  DW_CFA_def_cfa_offset: 16
  DW_CFA_offset: r12 (r12) at cfa-16
  DW_CFA_advance_loc: 1 to 0000000000411aae
  DW_CFA_def_cfa_offset: 24
  DW_CFA_offset: r6 (rbp) at cfa-24
  DW_CFA_advance_loc: 1 to 0000000000411aaf
  DW_CFA_def_cfa_offset: 32
  DW_CFA_offset: r3 (rbx) at cfa-32
  DW_CFA_advance_loc1: 71 to 0000000000411af6
  DW_CFA_remember_state
  DW_CFA_restore: r3 (rbx)
  DW_CFA_def_cfa_offset: 24
  DW_CFA_advance_loc: 1 to 0000000000411af7
  DW_CFA_restore: r6 (rbp)
  DW_CFA_def_cfa_offset: 16
  DW_CFA_advance_loc: 2 to 0000000000411af9
  DW_CFA_restore: r12 (r12)
  DW_CFA_def_cfa_offset: 8
  DW_CFA_advance_loc: 7 to 0000000000411b00
  DW_CFA_restore_state
  DW_CFA_advance_loc: 48 to 0000000000411b30
  DW_CFA_def_cfa_offset: 8
  DW_CFA_restore: r3 (rbx)
  DW_CFA_restore: r6 (rbp)
  DW_CFA_restore: r12 (r12)
  DW_CFA_nop
  DW_CFA_nop

000012e8 000000000000001c 000012bc FDE cie=00000030 pc=0000000000411b40..0000000000411b69
  DW_CFA_advance_loc: 8 to 0000000000411b48
  DW_CFA_def_cfa_offset: 16
  DW_CFA_offset: r3 (rbx) at cfa-16
  DW_CFA_advance_loc: 22 to 0000000000411b5e
  DW_CFA_remember_state
  DW_CFA_def_cfa_offset: 8
  DW_CFA_advance_loc: 2 to 0000000000411b60
  DW_CFA_restore_state
  DW_CFA_advance_loc: 8 to 0000000000411b68
  DW_CFA_def_cfa_offset: 8
  DW_CFA_nop

00001308 0000000000000014 000012dc FDE cie=00000030 pc=0000000000411b70..0000000000411b96
  DW_CFA_nop
  DW_CFA_nop
  DW_CFA_nop
  DW_CFA_nop
  DW_CFA_nop
  DW_CFA_nop
  DW_CFA_nop

00001320 000000000000001c 000012f4 FDE cie=00000030 pc=0000000000411ba0..0000000000411bcf
  DW_CFA_advance_loc: 1 to 0000000000411ba1
  DW_CFA_def_cfa_offset: 16
  DW_CFA_offset: r3 (rbx) at cfa-16
  DW_CFA_advance_loc: 45 to 0000000000411bce
  DW_CFA_def_cfa_offset: 8
  DW_CFA_nop
  DW_CFA_nop
  DW_CFA_nop
  DW_CFA_nop
  DW_CFA_nop
  DW_CFA_nop
  DW_CFA_nop

00001340 000000000000001c 00001314 FDE cie=00000030 pc=0000000000411bd0..0000000000411c3f
  DW_CFA_advance_loc: 8 to 0000000000411bd8
  DW_CFA_def_cfa_offset: 16
  DW_CFA_offset: r3 (rbx) at cfa-16
  DW_CFA_advance_loc1: 67 to 0000000000411c1b
  DW_CFA_remember_state
  DW_CFA_def_cfa_offset: 8
  DW_CFA_advance_loc: 5 to 0000000000411c20
  DW_CFA_restore_state
  DW_CFA_advance_loc: 30 to 0000000000411c3e
  DW_CFA_def_cfa_offset: 8

00001360 0000000000000064 0000067c FDE cie=00000ce8 pc=0000000000411c40..0000000000411ecc
  Augmentation data:     7a 93 4c 00

  DW_CFA_advance_loc: 25 to 0000000000411c59
  DW_CFA_def_cfa_offset: 16
  DW_CFA_offset: r6 (rbp) at cfa-16
  DW_CFA_advance_loc: 1 to 0000000000411c5a
  DW_CFA_def_cfa_offset: 24
  DW_CFA_offset: r3 (rbx) at cfa-24
  DW_CFA_advance_loc: 7 to 0000000000411c61
  DW_CFA_def_cfa_offset: 32
  DW_CFA_advance_loc1: 110 to 0000000000411ccf
  DW_CFA_def_cfa_offset: 160
  DW_CFA_advance_loc: 12 to 0000000000411cdb
  DW_CFA_def_cfa_offset: 32
  DW_CFA_advance_loc1: 103 to 0000000000411d42
  DW_CFA_def_cfa_offset: 160
  DW_CFA_advance_loc: 12 to 0000000000411d4e
  DW_CFA_def_cfa_offset: 32
  DW_CFA_advance_loc1: 102 to 0000000000411db4
  DW_CFA_def_cfa_offset: 24
  DW_CFA_advance_loc: 1 to 0000000000411db5
  DW_CFA_restore: r3 (rbx)
  DW_CFA_def_cfa_offset: 16
  DW_CFA_advance_loc: 1 to 0000000000411db6
  DW_CFA_restore: r6 (rbp)
  DW_CFA_def_cfa_offset: 8
  DW_CFA_advance_loc: 18 to 0000000000411dc8
  DW_CFA_def_cfa_offset: 32
  DW_CFA_offset: r3 (rbx) at cfa-24
  DW_CFA_offset: r6 (rbp) at cfa-16
  DW_CFA_advance_loc1: 72 to 0000000000411e10
  DW_CFA_remember_state
  DW_CFA_def_cfa_offset: 24
  DW_CFA_advance_loc: 6 to 0000000000411e16
  DW_CFA_restore: r3 (rbx)
  DW_CFA_def_cfa_offset: 16
  DW_CFA_advance_loc: 1 to 0000000000411e17
  DW_CFA_restore: r6 (rbp)
  DW_CFA_def_cfa_offset: 8
  DW_CFA_advance_loc: 9 to 0000000000411e20
  DW_CFA_restore_state
  DW_CFA_advance_loc1: 64 to 0000000000411e60
  DW_CFA_def_cfa_offset: 8
  DW_CFA_restore: r3 (rbx)
  DW_CFA_restore: r6 (rbp)
  DW_CFA_advance_loc: 25 to 0000000000411e79
  DW_CFA_def_cfa_offset: 32
  DW_CFA_offset: r3 (rbx) at cfa-24
  DW_CFA_offset: r6 (rbp) at cfa-16
  DW_CFA_advance_loc: 63 to 0000000000411eb8
  DW_CFA_def_cfa_offset: 160
  DW_CFA_advance_loc: 12 to 0000000000411ec4
  DW_CFA_def_cfa_offset: 32

000013c8 0000000000000044 0000139c FDE cie=00000030 pc=0000000000411ed0..0000000000412326
  DW_CFA_advance_loc: 2 to 0000000000411ed2
  DW_CFA_def_cfa_offset: 16
  DW_CFA_offset: r14 (r14) at cfa-16
  DW_CFA_advance_loc: 2 to 0000000000411ed4
  DW_CFA_def_cfa_offset: 24
  DW_CFA_offset: r13 (r13) at cfa-24
  DW_CFA_advance_loc: 2 to 0000000000411ed6
  DW_CFA_def_cfa_offset: 32
  DW_CFA_offset: r12 (r12) at cfa-32
  DW_CFA_advance_loc: 1 to 0000000000411ed7
  DW_CFA_def_cfa_offset: 40
  DW_CFA_offset: r6 (rbp) at cfa-40
  DW_CFA_advance_loc: 1 to 0000000000411ed8
  DW_CFA_def_cfa_offset: 48
  DW_CFA_offset: r3 (rbx) at cfa-48
  DW_CFA_advance_loc: 10 to 0000000000411ee2
  DW_CFA_def_cfa_offset: 192
  DW_CFA_advance_loc1: 212 to 0000000000411fb6
  DW_CFA_remember_state
  DW_CFA_def_cfa_offset: 48
  DW_CFA_advance_loc: 4 to 0000000000411fba
  DW_CFA_def_cfa_offset: 40
  DW_CFA_advance_loc: 1 to 0000000000411fbb
  DW_CFA_def_cfa_offset: 32
  DW_CFA_advance_loc: 2 to 0000000000411fbd
  DW_CFA_def_cfa_offset: 24
  DW_CFA_advance_loc: 2 to 0000000000411fbf
  DW_CFA_def_cfa_offset: 16
  DW_CFA_advance_loc: 2 to 0000000000411fc1
  DW_CFA_def_cfa_offset: 8
  DW_CFA_advance_loc: 7 to 0000000000411fc8
  DW_CFA_restore_state
  DW_CFA_nop
  DW_CFA_nop
  DW_CFA_nop
  DW_CFA_nop

00001410 000000000000001c 000013e4 FDE cie=00000030 pc=0000000000412330..000000000041237a
  DW_CFA_advance_loc: 1 to 0000000000412331
  DW_CFA_def_cfa_offset: 16
  DW_CFA_offset: r3 (rbx) at cfa-16
  DW_CFA_advance_loc1: 72 to 0000000000412379
  DW_CFA_def_cfa_offset: 8
  DW_CFA_nop
  DW_CFA_nop
  DW_CFA_nop
  DW_CFA_nop
  DW_CFA_nop
  DW_CFA_nop

00001430 0000000000000014 00001404 FDE cie=00000030 pc=0000000000412380..0000000000412388
  DW_CFA_nop
  DW_CFA_nop
  DW_CFA_nop
  DW_CFA_nop
  DW_CFA_nop
  DW_CFA_nop
  DW_CFA_nop

00001448 000000000000001c 0000141c FDE cie=00000030 pc=0000000000412390..00000000004123ea
  DW_CFA_advance_loc: 1 to 0000000000412391
  DW_CFA_def_cfa_offset: 16
  DW_CFA_offset: r3 (rbx) at cfa-16
  DW_CFA_advance_loc: 62 to 00000000004123cf
  DW_CFA_remember_state
  DW_CFA_def_cfa_offset: 8
  DW_CFA_advance_loc: 1 to 00000000004123d0
  DW_CFA_restore_state
  DW_CFA_advance_loc: 25 to 00000000004123e9
  DW_CFA_def_cfa_offset: 8
  DW_CFA_nop

00001468 000000000000003c 0000143c FDE cie=00000030 pc=00000000004123f0..000000000041256a
  DW_CFA_advance_loc: 2 to 00000000004123f2
  DW_CFA_def_cfa_offset: 16
  DW_CFA_offset: r13 (r13) at cfa-16
  DW_CFA_advance_loc: 2 to 00000000004123f4
  DW_CFA_def_cfa_offset: 24
  DW_CFA_offset: r12 (r12) at cfa-24
  DW_CFA_advance_loc: 4 to 00000000004123f8
  DW_CFA_def_cfa_offset: 32
  DW_CFA_offset: r6 (rbp) at cfa-32
  DW_CFA_advance_loc: 1 to 00000000004123f9
  DW_CFA_def_cfa_offset: 40
  DW_CFA_offset: r3 (rbx) at cfa-40
  DW_CFA_advance_loc: 13 to 0000000000412406
  DW_CFA_def_cfa_offset: 192
  DW_CFA_advance_loc1: 109 to 0000000000412473
  DW_CFA_remember_state
  DW_CFA_def_cfa_offset: 40
  DW_CFA_advance_loc: 1 to 0000000000412474
  DW_CFA_def_cfa_offset: 32
  DW_CFA_advance_loc: 1 to 0000000000412475
  DW_CFA_def_cfa_offset: 24
  DW_CFA_advance_loc: 2 to 0000000000412477
  DW_CFA_def_cfa_offset: 16
  DW_CFA_advance_loc: 2 to 0000000000412479
  DW_CFA_def_cfa_offset: 8
  DW_CFA_advance_loc: 7 to 0000000000412480
  DW_CFA_restore_state
  DW_CFA_nop
  DW_CFA_nop
  DW_CFA_nop
  DW_CFA_nop

000014a8 0000000000000014 0000147c FDE cie=00000030 pc=0000000000412570..0000000000412580
  DW_CFA_nop
  DW_CFA_nop
  DW_CFA_nop
  DW_CFA_nop
  DW_CFA_nop
  DW_CFA_nop
  DW_CFA_nop

000014c0 000000000000003c 00001494 FDE cie=00000030 pc=0000000000412580..000000000041262b
  DW_CFA_advance_loc: 5 to 0000000000412585
  DW_CFA_def_cfa_offset: 16
  DW_CFA_offset: r14 (r14) at cfa-16
  DW_CFA_advance_loc: 5 to 000000000041258a
  DW_CFA_def_cfa_offset: 24
  DW_CFA_offset: r13 (r13) at cfa-24
  DW_CFA_advance_loc: 2 to 000000000041258c
  DW_CFA_def_cfa_offset: 32
  DW_CFA_offset: r12 (r12) at cfa-32
  DW_CFA_advance_loc: 1 to 000000000041258d
  DW_CFA_def_cfa_offset: 40
  DW_CFA_offset: r6 (rbp) at cfa-40
  DW_CFA_advance_loc: 1 to 000000000041258e
  DW_CFA_def_cfa_offset: 48
  DW_CFA_offset: r3 (rbx) at cfa-48
  DW_CFA_advance_loc1: 101 to 00000000004125f3
  DW_CFA_remember_state
  DW_CFA_def_cfa_offset: 40
  DW_CFA_advance_loc: 1 to 00000000004125f4
  DW_CFA_def_cfa_offset: 32
  DW_CFA_advance_loc: 2 to 00000000004125f6
  DW_CFA_def_cfa_offset: 24
  DW_CFA_advance_loc: 2 to 00000000004125f8
  DW_CFA_def_cfa_offset: 16
  DW_CFA_advance_loc: 2 to 00000000004125fa
  DW_CFA_def_cfa_offset: 8
  DW_CFA_advance_loc: 6 to 0000000000412600
  DW_CFA_restore_state
  DW_CFA_nop
  DW_CFA_nop
  DW_CFA_nop

00001500 000000000000004c 000014d4 FDE cie=00000030 pc=0000000000412630..00000000004128c8
  DW_CFA_advance_loc: 2 to 0000000000412632
  DW_CFA_def_cfa_offset: 16
  DW_CFA_offset: r15 (r15) at cfa-16
  DW_CFA_advance_loc: 2 to 0000000000412634
  DW_CFA_def_cfa_offset: 24
  DW_CFA_offset: r14 (r14) at cfa-24
  DW_CFA_advance_loc: 5 to 0000000000412639
  DW_CFA_def_cfa_offset: 32
  DW_CFA_offset: r13 (r13) at cfa-32
  DW_CFA_advance_loc: 2 to 000000000041263b
  DW_CFA_def_cfa_offset: 40
  DW_CFA_offset: r12 (r12) at cfa-40
  DW_CFA_advance_loc: 4 to 000000000041263f
  DW_CFA_def_cfa_offset: 48
  DW_CFA_offset: r6 (rbp) at cfa-48
  DW_CFA_advance_loc: 1 to 0000000000412640
  DW_CFA_def_cfa_offset: 56
  DW_CFA_offset: r3 (rbx) at cfa-56
  DW_CFA_advance_loc: 13 to 000000000041264d
  DW_CFA_def_cfa_offset: 208
  DW_CFA_advance_loc2: 422 to 00000000004127f3
  DW_CFA_remember_state
  DW_CFA_def_cfa_offset: 56
  DW_CFA_advance_loc: 1 to 00000000004127f4
  DW_CFA_def_cfa_offset: 48
  DW_CFA_advance_loc: 1 to 00000000004127f5
  DW_CFA_def_cfa_offset: 40
  DW_CFA_advance_loc: 2 to 00000000004127f7
  DW_CFA_def_cfa_offset: 32
  DW_CFA_advance_loc: 2 to 00000000004127f9
  DW_CFA_def_cfa_offset: 24
  DW_CFA_advance_loc: 2 to 00000000004127fb
  DW_CFA_def_cfa_offset: 16
  DW_CFA_advance_loc: 2 to 00000000004127fd
  DW_CFA_def_cfa_offset: 8
  DW_CFA_advance_loc: 3 to 0000000000412800
  DW_CFA_restore_state
  DW_CFA_nop
  DW_CFA_nop
  DW_CFA_nop

00001550 000000000000004c 00001524 FDE cie=00000030 pc=00000000004128d0..0000000000412ab9
  DW_CFA_advance_loc: 2 to 00000000004128d2
  DW_CFA_def_cfa_offset: 16
  DW_CFA_offset: r14 (r14) at cfa-16
  DW_CFA_advance_loc: 2 to 00000000004128d4
  DW_CFA_def_cfa_offset: 24
  DW_CFA_offset: r13 (r13) at cfa-24
  DW_CFA_advance_loc: 5 to 00000000004128d9
  DW_CFA_def_cfa_offset: 32
  DW_CFA_offset: r12 (r12) at cfa-32
  DW_CFA_advance_loc: 1 to 00000000004128da
  DW_CFA_def_cfa_offset: 40
  DW_CFA_offset: r6 (rbp) at cfa-40
  DW_CFA_advance_loc: 4 to 00000000004128de
  DW_CFA_def_cfa_offset: 48
  DW_CFA_offset: r3 (rbx) at cfa-48
  DW_CFA_advance_loc1: 233 to 00000000004129c7
  DW_CFA_remember_state
  DW_CFA_def_cfa_offset: 40
  DW_CFA_advance_loc: 4 to 00000000004129cb
  DW_CFA_def_cfa_offset: 32
  DW_CFA_advance_loc: 2 to 00000000004129cd
  DW_CFA_def_cfa_offset: 24
  DW_CFA_advance_loc: 2 to 00000000004129cf
  DW_CFA_def_cfa_offset: 16
  DW_CFA_advance_loc: 2 to 00000000004129d1
  DW_CFA_def_cfa_offset: 8
  DW_CFA_advance_loc: 7 to 00000000004129d8
  DW_CFA_restore_state
  DW_CFA_advance_loc1: 157 to 0000000000412a75
  DW_CFA_remember_state
  DW_CFA_def_cfa_offset: 40
  DW_CFA_advance_loc: 4 to 0000000000412a79
  DW_CFA_def_cfa_offset: 32
  DW_CFA_advance_loc: 2 to 0000000000412a7b
  DW_CFA_def_cfa_offset: 24
  DW_CFA_advance_loc: 2 to 0000000000412a7d
  DW_CFA_def_cfa_offset: 16
  DW_CFA_advance_loc: 2 to 0000000000412a7f
  DW_CFA_def_cfa_offset: 8
  DW_CFA_advance_loc: 1 to 0000000000412a80
  DW_CFA_restore_state

000015a0 0000000000000034 00001574 FDE cie=00000030 pc=0000000000412ac0..0000000000412ba8
  DW_CFA_advance_loc: 1 to 0000000000412ac1
  DW_CFA_def_cfa_offset: 16
  DW_CFA_offset: r6 (rbp) at cfa-16
  DW_CFA_advance_loc: 1 to 0000000000412ac2
  DW_CFA_def_cfa_offset: 24
  DW_CFA_offset: r3 (rbx) at cfa-24
  DW_CFA_advance_loc: 7 to 0000000000412ac9
  DW_CFA_def_cfa_offset: 32
  DW_CFA_advance_loc1: 119 to 0000000000412b40
  DW_CFA_remember_state
  DW_CFA_def_cfa_offset: 24
  DW_CFA_advance_loc: 1 to 0000000000412b41
  DW_CFA_def_cfa_offset: 16
  DW_CFA_advance_loc: 1 to 0000000000412b42
  DW_CFA_def_cfa_offset: 8
  DW_CFA_advance_loc: 6 to 0000000000412b48
  DW_CFA_restore_state
  DW_CFA_advance_loc: 35 to 0000000000412b6b
  DW_CFA_remember_state
  DW_CFA_def_cfa_offset: 24
  DW_CFA_advance_loc: 1 to 0000000000412b6c
  DW_CFA_def_cfa_offset: 16
  DW_CFA_advance_loc: 1 to 0000000000412b6d
  DW_CFA_def_cfa_offset: 8
  DW_CFA_advance_loc: 11 to 0000000000412b78
  DW_CFA_restore_state
  DW_CFA_nop

000015d8 0000000000000014 000015ac FDE cie=00000030 pc=0000000000412bb0..0000000000412bf0
  DW_CFA_nop
  DW_CFA_nop
  DW_CFA_nop
  DW_CFA_nop
  DW_CFA_nop
  DW_CFA_nop
  DW_CFA_nop

000015f0 000000000000005c 000015c4 FDE cie=00000030 pc=0000000000412bf0..0000000000412eab
  DW_CFA_advance_loc: 13 to 0000000000412bfd
  DW_CFA_def_cfa_offset: 16
  DW_CFA_offset: r15 (r15) at cfa-16
  DW_CFA_advance_loc: 2 to 0000000000412bff
  DW_CFA_def_cfa_offset: 24
  DW_CFA_offset: r14 (r14) at cfa-24
  DW_CFA_advance_loc: 2 to 0000000000412c01
  DW_CFA_def_cfa_offset: 32
  DW_CFA_offset: r13 (r13) at cfa-32
  DW_CFA_advance_loc: 2 to 0000000000412c03
  DW_CFA_def_cfa_offset: 40
  DW_CFA_offset: r12 (r12) at cfa-40
  DW_CFA_advance_loc: 4 to 0000000000412c07
  DW_CFA_def_cfa_offset: 48
  DW_CFA_offset: r6 (rbp) at cfa-48
  DW_CFA_advance_loc: 1 to 0000000000412c08
  DW_CFA_def_cfa_offset: 56
  DW_CFA_offset: r3 (rbx) at cfa-56
  DW_CFA_advance_loc: 10 to 0000000000412c12
  DW_CFA_def_cfa_offset: 64
  DW_CFA_advance_loc1: 99 to 0000000000412c75
  DW_CFA_def_cfa_offset: 56
  DW_CFA_advance_loc: 1 to 0000000000412c76
  DW_CFA_restore: r3 (rbx)
  DW_CFA_def_cfa_offset: 48
  DW_CFA_advance_loc: 1 to 0000000000412c77
  DW_CFA_restore: r6 (rbp)
  DW_CFA_def_cfa_offset: 40
  DW_CFA_advance_loc: 2 to 0000000000412c79
  DW_CFA_restore: r12 (r12)
  DW_CFA_def_cfa_offset: 32
  DW_CFA_advance_loc: 2 to 0000000000412c7b
  DW_CFA_restore: r13 (r13)
  DW_CFA_def_cfa_offset: 24
  DW_CFA_advance_loc: 2 to 0000000000412c7d
  DW_CFA_restore: r14 (r14)
  DW_CFA_def_cfa_offset: 16
  DW_CFA_advance_loc: 2 to 0000000000412c7f
  DW_CFA_restore: r15 (r15)
  DW_CFA_def_cfa_offset: 8
  DW_CFA_advance_loc: 9 to 0000000000412c88
  DW_CFA_def_cfa_offset: 64
  DW_CFA_offset: r3 (rbx) at cfa-56
  DW_CFA_offset: r6 (rbp) at cfa-48
  DW_CFA_offset: r12 (r12) at cfa-40
  DW_CFA_offset: r13 (r13) at cfa-32
  DW_CFA_offset: r14 (r14) at cfa-24
  DW_CFA_offset: r15 (r15) at cfa-16
  DW_CFA_nop
  DW_CFA_nop
  DW_CFA_nop

00001650 000000000000002c 00001624 FDE cie=00000030 pc=0000000000412eb0..000000000041301a
  DW_CFA_advance_loc: 1 to 0000000000412eb1
  DW_CFA_def_cfa_offset: 16
  DW_CFA_offset: r6 (rbp) at cfa-16
  DW_CFA_advance_loc: 1 to 0000000000412eb2
  DW_CFA_def_cfa_offset: 24
  DW_CFA_offset: r3 (rbx) at cfa-24
  DW_CFA_advance_loc: 10 to 0000000000412ebc
  DW_CFA_def_cfa_offset: 176
  DW_CFA_advance_loc1: 103 to 0000000000412f23
  DW_CFA_remember_state
  DW_CFA_def_cfa_offset: 24
  DW_CFA_advance_loc: 1 to 0000000000412f24
  DW_CFA_def_cfa_offset: 16
  DW_CFA_advance_loc: 1 to 0000000000412f25
  DW_CFA_def_cfa_offset: 8
  DW_CFA_advance_loc: 11 to 0000000000412f30
  DW_CFA_restore_state
  DW_CFA_nop
  DW_CFA_nop
  DW_CFA_nop
  DW_CFA_nop

00001680 000000000000003c 00001654 FDE cie=00000030 pc=0000000000413020..0000000000413218
  DW_CFA_advance_loc: 17 to 0000000000413031
  DW_CFA_def_cfa_offset: 16
  DW_CFA_offset: r6 (rbp) at cfa-16
  DW_CFA_advance_loc: 1 to 0000000000413032
  DW_CFA_def_cfa_offset: 24
  DW_CFA_offset: r3 (rbx) at cfa-24
  DW_CFA_advance_loc: 10 to 000000000041303c
  DW_CFA_def_cfa_offset: 176
  DW_CFA_advance_loc1: 163 to 00000000004130df
  DW_CFA_remember_state
  DW_CFA_def_cfa_offset: 24
  DW_CFA_advance_loc: 1 to 00000000004130e0
  DW_CFA_restore: r3 (rbx)
  DW_CFA_def_cfa_offset: 16
  DW_CFA_advance_loc: 1 to 00000000004130e1
  DW_CFA_restore: r6 (rbp)
  DW_CFA_def_cfa_offset: 8
  DW_CFA_advance_loc: 7 to 00000000004130e8
  DW_CFA_restore_state
  DW_CFA_advance_loc1: 181 to 000000000041319d
  DW_CFA_remember_state
  DW_CFA_def_cfa_offset: 24
  DW_CFA_advance_loc: 1 to 000000000041319e
  DW_CFA_restore: r3 (rbx)
  DW_CFA_def_cfa_offset: 16
  DW_CFA_advance_loc: 1 to 000000000041319f
  DW_CFA_restore: r6 (rbp)
  DW_CFA_def_cfa_offset: 8
  DW_CFA_advance_loc: 1 to 00000000004131a0
  DW_CFA_restore_state
  DW_CFA_nop
  DW_CFA_nop
  DW_CFA_nop

000016c0 0000000000000024 00001694 FDE cie=00000030 pc=0000000000413220..000000000041324c
  DW_CFA_advance_loc: 1 to 0000000000413221
  DW_CFA_def_cfa_offset: 16
  DW_CFA_offset: r6 (rbp) at cfa-16
  DW_CFA_advance_loc: 1 to 0000000000413222
  DW_CFA_def_cfa_offset: 24
  DW_CFA_offset: r3 (rbx) at cfa-24
  DW_CFA_advance_loc: 14 to 0000000000413230
  DW_CFA_def_cfa_offset: 32
  DW_CFA_advance_loc: 25 to 0000000000413249
  DW_CFA_def_cfa_offset: 24
  DW_CFA_advance_loc: 1 to 000000000041324a
  DW_CFA_def_cfa_offset: 16
  DW_CFA_advance_loc: 1 to 000000000041324b
  DW_CFA_def_cfa_offset: 8
  DW_CFA_nop

000016e8 000000000000002c 000016bc FDE cie=00000030 pc=0000000000413250..0000000000413338
  DW_CFA_advance_loc: 1 to 0000000000413251
  DW_CFA_def_cfa_offset: 16
  DW_CFA_offset: r6 (rbp) at cfa-16
  DW_CFA_advance_loc: 1 to 0000000000413252
  DW_CFA_def_cfa_offset: 24
  DW_CFA_offset: r3 (rbx) at cfa-24
  DW_CFA_advance_loc: 13 to 000000000041325f
  DW_CFA_def_cfa_offset: 48
  DW_CFA_advance_loc1: 84 to 00000000004132b3
  DW_CFA_remember_state
  DW_CFA_def_cfa_offset: 24
  DW_CFA_advance_loc: 1 to 00000000004132b4
  DW_CFA_def_cfa_offset: 16
  DW_CFA_advance_loc: 1 to 00000000004132b5
  DW_CFA_def_cfa_offset: 8
  DW_CFA_advance_loc: 11 to 00000000004132c0
  DW_CFA_restore_state
  DW_CFA_nop
  DW_CFA_nop
  DW_CFA_nop
  DW_CFA_nop
  DW_CFA_nop

00001718 0000000000000034 000016ec FDE cie=00000030 pc=0000000000413340..00000000004133b3
  DW_CFA_advance_loc: 10 to 000000000041334a
  DW_CFA_def_cfa_offset: 16
  DW_CFA_offset: r12 (r12) at cfa-16
  DW_CFA_advance_loc: 6 to 0000000000413350
  DW_CFA_def_cfa_offset: 24
  DW_CFA_offset: r6 (rbp) at cfa-24
  DW_CFA_advance_loc: 13 to 000000000041335d
  DW_CFA_def_cfa_offset: 32
  DW_CFA_offset: r3 (rbx) at cfa-32
  DW_CFA_advance_loc: 57 to 0000000000413396
  DW_CFA_restore: r3 (rbx)
  DW_CFA_def_cfa_offset: 24
  DW_CFA_advance_loc: 1 to 0000000000413397
  DW_CFA_restore: r6 (rbp)
  DW_CFA_def_cfa_offset: 16
  DW_CFA_advance_loc: 2 to 0000000000413399
  DW_CFA_restore: r12 (r12)
  DW_CFA_def_cfa_offset: 8
  DW_CFA_advance_loc: 15 to 00000000004133a8
  DW_CFA_def_cfa_offset: 32
  DW_CFA_offset: r3 (rbx) at cfa-32
  DW_CFA_offset: r6 (rbp) at cfa-24
  DW_CFA_offset: r12 (r12) at cfa-16
  DW_CFA_nop
  DW_CFA_nop
  DW_CFA_nop

00001750 000000000000003c 00001724 FDE cie=00000030 pc=00000000004133c0..00000000004134cd
  DW_CFA_advance_loc: 18 to 00000000004133d2
  DW_CFA_def_cfa_offset: 16
  DW_CFA_offset: r13 (r13) at cfa-16
  DW_CFA_advance_loc: 2 to 00000000004133d4
  DW_CFA_def_cfa_offset: 24
  DW_CFA_offset: r12 (r12) at cfa-24
  DW_CFA_advance_loc: 4 to 00000000004133d8
  DW_CFA_def_cfa_offset: 32
  DW_CFA_offset: r6 (rbp) at cfa-32
  DW_CFA_advance_loc: 1 to 00000000004133d9
  DW_CFA_def_cfa_offset: 40
  DW_CFA_offset: r3 (rbx) at cfa-40
  DW_CFA_advance_loc: 10 to 00000000004133e3
  DW_CFA_def_cfa_offset: 48
  DW_CFA_advance_loc1: 162 to 0000000000413485
  DW_CFA_remember_state
  DW_CFA_def_cfa_offset: 40
  DW_CFA_advance_loc: 1 to 0000000000413486
  DW_CFA_restore: r3 (rbx)
  DW_CFA_def_cfa_offset: 32
  DW_CFA_advance_loc: 1 to 0000000000413487
  DW_CFA_restore: r6 (rbp)
  DW_CFA_def_cfa_offset: 24
  DW_CFA_advance_loc: 2 to 0000000000413489
  DW_CFA_restore: r12 (r12)
  DW_CFA_def_cfa_offset: 16
  DW_CFA_advance_loc: 2 to 000000000041348b
  DW_CFA_restore: r13 (r13)
  DW_CFA_def_cfa_offset: 8
  DW_CFA_advance_loc: 5 to 0000000000413490
  DW_CFA_restore_state
  DW_CFA_nop

00001790 0000000000000034 00001764 FDE cie=00000030 pc=00000000004134d0..0000000000413648
  DW_CFA_advance_loc: 14 to 00000000004134de
  DW_CFA_def_cfa_offset: 16
  DW_CFA_offset: r12 (r12) at cfa-16
  DW_CFA_advance_loc: 1 to 00000000004134df
  DW_CFA_def_cfa_offset: 24
  DW_CFA_offset: r6 (rbp) at cfa-24
  DW_CFA_advance_loc: 4 to 00000000004134e3
  DW_CFA_def_cfa_offset: 32
  DW_CFA_offset: r3 (rbx) at cfa-32
  DW_CFA_advance_loc1: 244 to 00000000004135d7
  DW_CFA_restore: r3 (rbx)
  DW_CFA_def_cfa_offset: 24
  DW_CFA_advance_loc: 1 to 00000000004135d8
  DW_CFA_restore: r6 (rbp)
  DW_CFA_def_cfa_offset: 16
  DW_CFA_advance_loc: 2 to 00000000004135da
  DW_CFA_restore: r12 (r12)
  DW_CFA_def_cfa_offset: 8
  DW_CFA_advance_loc: 6 to 00000000004135e0
  DW_CFA_def_cfa_offset: 32
  DW_CFA_offset: r3 (rbx) at cfa-32
  DW_CFA_offset: r6 (rbp) at cfa-24
  DW_CFA_offset: r12 (r12) at cfa-16
  DW_CFA_nop
  DW_CFA_nop

000017c8 0000000000000094 0000179c FDE cie=00000030 pc=0000000000413650..0000000000413e10
  DW_CFA_advance_loc: 2 to 0000000000413652
  DW_CFA_def_cfa_offset: 16
  DW_CFA_offset: r15 (r15) at cfa-16
  DW_CFA_advance_loc: 2 to 0000000000413654
  DW_CFA_def_cfa_offset: 24
  DW_CFA_offset: r14 (r14) at cfa-24
  DW_CFA_advance_loc: 2 to 0000000000413656
  DW_CFA_def_cfa_offset: 32
  DW_CFA_offset: r13 (r13) at cfa-32
  DW_CFA_advance_loc: 2 to 0000000000413658
  DW_CFA_def_cfa_offset: 40
  DW_CFA_offset: r12 (r12) at cfa-40
  DW_CFA_advance_loc: 1 to 0000000000413659
  DW_CFA_def_cfa_offset: 48
  DW_CFA_offset: r6 (rbp) at cfa-48
  DW_CFA_advance_loc: 1 to 000000000041365a
  DW_CFA_def_cfa_offset: 56
  DW_CFA_offset: r3 (rbx) at cfa-56
  DW_CFA_advance_loc: 4 to 000000000041365e
  DW_CFA_def_cfa_offset: 96
  DW_CFA_advance_loc: 47 to 000000000041368d
  DW_CFA_remember_state
  DW_CFA_def_cfa_offset: 56
  DW_CFA_advance_loc: 3 to 0000000000413690
  DW_CFA_def_cfa_offset: 48
  DW_CFA_advance_loc: 1 to 0000000000413691
  DW_CFA_def_cfa_offset: 40
  DW_CFA_advance_loc: 2 to 0000000000413693
  DW_CFA_def_cfa_offset: 32
  DW_CFA_advance_loc: 2 to 0000000000413695
  DW_CFA_def_cfa_offset: 24
  DW_CFA_advance_loc: 2 to 0000000000413697
  DW_CFA_def_cfa_offset: 16
  DW_CFA_advance_loc: 2 to 0000000000413699
  DW_CFA_def_cfa_offset: 8
  DW_CFA_advance_loc: 1 to 000000000041369a
  DW_CFA_restore_state
  DW_CFA_advance_loc: 36 to 00000000004136be
  DW_CFA_remember_state
  DW_CFA_def_cfa_offset: 56
  DW_CFA_advance_loc: 1 to 00000000004136bf
  DW_CFA_def_cfa_offset: 48
  DW_CFA_advance_loc: 1 to 00000000004136c0
  DW_CFA_def_cfa_offset: 40
  DW_CFA_advance_loc: 2 to 00000000004136c2
  DW_CFA_def_cfa_offset: 32
  DW_CFA_advance_loc: 2 to 00000000004136c4
  DW_CFA_def_cfa_offset: 24
  DW_CFA_advance_loc: 2 to 00000000004136c6
  DW_CFA_def_cfa_offset: 16
  DW_CFA_advance_loc: 2 to 00000000004136c8
  DW_CFA_def_cfa_offset: 8
  DW_CFA_advance_loc: 8 to 00000000004136d0
  DW_CFA_restore_state
  DW_CFA_advance_loc2: 1031 to 0000000000413ad7
  DW_CFA_remember_state
  DW_CFA_def_cfa_offset: 56
  DW_CFA_advance_loc: 1 to 0000000000413ad8
  DW_CFA_def_cfa_offset: 48
  DW_CFA_advance_loc: 4 to 0000000000413adc
  DW_CFA_def_cfa_offset: 40
  DW_CFA_advance_loc: 2 to 0000000000413ade
  DW_CFA_def_cfa_offset: 32
  DW_CFA_advance_loc: 2 to 0000000000413ae0
  DW_CFA_def_cfa_offset: 24
  DW_CFA_advance_loc: 2 to 0000000000413ae2
  DW_CFA_def_cfa_offset: 16
  DW_CFA_advance_loc: 2 to 0000000000413ae4
  DW_CFA_def_cfa_offset: 8
  DW_CFA_advance_loc: 4 to 0000000000413ae8
  DW_CFA_restore_state
  DW_CFA_advance_loc2: 396 to 0000000000413c74
  DW_CFA_remember_state
  DW_CFA_def_cfa_offset: 56
  DW_CFA_advance_loc: 4 to 0000000000413c78
  DW_CFA_def_cfa_offset: 48
  DW_CFA_advance_loc: 1 to 0000000000413c79
  DW_CFA_def_cfa_offset: 40
  DW_CFA_advance_loc: 2 to 0000000000413c7b
  DW_CFA_def_cfa_offset: 32
  DW_CFA_advance_loc: 2 to 0000000000413c7d
  DW_CFA_def_cfa_offset: 24
  DW_CFA_advance_loc: 2 to 0000000000413c7f
  DW_CFA_def_cfa_offset: 16
  DW_CFA_advance_loc: 2 to 0000000000413c81
  DW_CFA_def_cfa_offset: 8
  DW_CFA_advance_loc: 1 to 0000000000413c82
  DW_CFA_restore_state
  DW_CFA_nop
  DW_CFA_nop

00001860 0000000000000024 00001834 FDE cie=00000030 pc=0000000000413e10..0000000000413e82
  DW_CFA_advance_loc: 1 to 0000000000413e11
  DW_CFA_def_cfa_offset: 16
  DW_CFA_offset: r3 (rbx) at cfa-16
  DW_CFA_advance_loc: 57 to 0000000000413e4a
  DW_CFA_remember_state
  DW_CFA_def_cfa_offset: 8
  DW_CFA_advance_loc: 6 to 0000000000413e50
  DW_CFA_restore_state
  DW_CFA_advance_loc: 22 to 0000000000413e66
  DW_CFA_remember_state
  DW_CFA_def_cfa_offset: 8
  DW_CFA_advance_loc: 10 to 0000000000413e70
  DW_CFA_restore_state
  DW_CFA_nop
  DW_CFA_nop
  DW_CFA_nop
  DW_CFA_nop
  DW_CFA_nop
  DW_CFA_nop

00001888 000000000000004c 0000185c FDE cie=00000030 pc=0000000000413e90..0000000000414086
  DW_CFA_advance_loc: 16 to 0000000000413ea0
  DW_CFA_def_cfa_offset: 16
  DW_CFA_offset: r12 (r12) at cfa-16
  DW_CFA_advance_loc: 1 to 0000000000413ea1
  DW_CFA_def_cfa_offset: 24
  DW_CFA_offset: r6 (rbp) at cfa-24
  DW_CFA_advance_loc: 3 to 0000000000413ea4
  DW_CFA_def_cfa_offset: 32
  DW_CFA_offset: r3 (rbx) at cfa-32
  DW_CFA_advance_loc1: 77 to 0000000000413ef1
  DW_CFA_remember_state
  DW_CFA_restore: r3 (rbx)
  DW_CFA_def_cfa_offset: 24
  DW_CFA_advance_loc: 1 to 0000000000413ef2
  DW_CFA_restore: r6 (rbp)
  DW_CFA_def_cfa_offset: 16
  DW_CFA_advance_loc: 2 to 0000000000413ef4
  DW_CFA_restore: r12 (r12)
  DW_CFA_def_cfa_offset: 8
  DW_CFA_advance_loc: 4 to 0000000000413ef8
  DW_CFA_restore_state
  DW_CFA_advance_loc2: 287 to 0000000000414017
  DW_CFA_remember_state
  DW_CFA_restore: r3 (rbx)
  DW_CFA_def_cfa_offset: 24
  DW_CFA_advance_loc: 1 to 0000000000414018
  DW_CFA_restore: r6 (rbp)
  DW_CFA_def_cfa_offset: 16
  DW_CFA_advance_loc: 2 to 000000000041401a
  DW_CFA_restore: r12 (r12)
  DW_CFA_def_cfa_offset: 8
  DW_CFA_advance_loc: 6 to 0000000000414020
  DW_CFA_restore_state
  DW_CFA_advance_loc: 16 to 0000000000414030
  DW_CFA_def_cfa_offset: 8
  DW_CFA_restore: r3 (rbx)
  DW_CFA_restore: r6 (rbp)
  DW_CFA_restore: r12 (r12)
  DW_CFA_advance_loc: 32 to 0000000000414050
  DW_CFA_def_cfa_offset: 32
  DW_CFA_offset: r3 (rbx) at cfa-32
  DW_CFA_offset: r6 (rbp) at cfa-24
  DW_CFA_offset: r12 (r12) at cfa-16

000018d8 0000000000000024 000018ac FDE cie=00000030 pc=0000000000414090..0000000000414144
  DW_CFA_advance_loc: 1 to 0000000000414091
  DW_CFA_def_cfa_offset: 16
  DW_CFA_offset: r3 (rbx) at cfa-16
  DW_CFA_advance_loc1: 86 to 00000000004140e7
  DW_CFA_remember_state
  DW_CFA_def_cfa_offset: 8
  DW_CFA_advance_loc: 9 to 00000000004140f0
  DW_CFA_restore_state
  DW_CFA_advance_loc1: 83 to 0000000000414143
  DW_CFA_def_cfa_offset: 8
  DW_CFA_nop
  DW_CFA_nop
  DW_CFA_nop
  DW_CFA_nop
  DW_CFA_nop
  DW_CFA_nop
  DW_CFA_nop

00001900 000000000000001c 000018d4 FDE cie=00000030 pc=000000000049ec60..000000000049ec99
  DW_CFA_advance_loc: 1 to 000000000049ec61
  DW_CFA_def_cfa_offset: 16
  DW_CFA_offset: r3 (rbx) at cfa-16
  DW_CFA_advance_loc: 55 to 000000000049ec98
  DW_CFA_def_cfa_offset: 8
  DW_CFA_nop
  DW_CFA_nop
  DW_CFA_nop
  DW_CFA_nop
  DW_CFA_nop
  DW_CFA_nop
  DW_CFA_nop

00001920 000000000000004c 000018f4 FDE cie=00000030 pc=0000000000414150..000000000041433d
  DW_CFA_advance_loc: 2 to 0000000000414152
  DW_CFA_def_cfa_offset: 16
  DW_CFA_offset: r15 (r15) at cfa-16
  DW_CFA_advance_loc: 2 to 0000000000414154
  DW_CFA_def_cfa_offset: 24
  DW_CFA_offset: r14 (r14) at cfa-24
  DW_CFA_advance_loc: 2 to 0000000000414156
  DW_CFA_def_cfa_offset: 32
  DW_CFA_offset: r13 (r13) at cfa-32
  DW_CFA_advance_loc: 2 to 0000000000414158
  DW_CFA_def_cfa_offset: 40
  DW_CFA_offset: r12 (r12) at cfa-40
  DW_CFA_advance_loc: 4 to 000000000041415c
  DW_CFA_def_cfa_offset: 48
  DW_CFA_offset: r6 (rbp) at cfa-48
  DW_CFA_advance_loc: 1 to 000000000041415d
  DW_CFA_def_cfa_offset: 56
  DW_CFA_offset: r3 (rbx) at cfa-56
  DW_CFA_advance_loc: 10 to 0000000000414167
  DW_CFA_def_cfa_offset: 96
  DW_CFA_advance_loc1: 138 to 00000000004141f1
  DW_CFA_remember_state
  DW_CFA_def_cfa_offset: 56
  DW_CFA_advance_loc: 1 to 00000000004141f2
  DW_CFA_def_cfa_offset: 48
  DW_CFA_advance_loc: 1 to 00000000004141f3
  DW_CFA_def_cfa_offset: 40
  DW_CFA_advance_loc: 2 to 00000000004141f5
  DW_CFA_def_cfa_offset: 32
  DW_CFA_advance_loc: 2 to 00000000004141f7
  DW_CFA_def_cfa_offset: 24
  DW_CFA_advance_loc: 2 to 00000000004141f9
  DW_CFA_def_cfa_offset: 16
  DW_CFA_advance_loc: 2 to 00000000004141fb
  DW_CFA_def_cfa_offset: 8
  DW_CFA_advance_loc: 5 to 0000000000414200
  DW_CFA_restore_state
  DW_CFA_nop
  DW_CFA_nop
  DW_CFA_nop
  DW_CFA_nop
  DW_CFA_nop

00001970 000000000000001c 00001944 FDE cie=00000030 pc=0000000000414340..00000000004143df
  DW_CFA_advance_loc1: 71 to 0000000000414387
  DW_CFA_def_cfa_offset: 136
  DW_CFA_advance_loc: 12 to 0000000000414393
  DW_CFA_def_cfa_offset: 8
  DW_CFA_advance_loc: 62 to 00000000004143d1
  DW_CFA_def_cfa_offset: 136
  DW_CFA_advance_loc: 12 to 00000000004143dd
  DW_CFA_def_cfa_offset: 8

00001990 0000000000000044 00001964 FDE cie=00000030 pc=00000000004143e0..0000000000414631
  DW_CFA_advance_loc: 2 to 00000000004143e2
  DW_CFA_def_cfa_offset: 16
  DW_CFA_offset: r13 (r13) at cfa-16
  DW_CFA_advance_loc: 2 to 00000000004143e4
  DW_CFA_def_cfa_offset: 24
  DW_CFA_offset: r12 (r12) at cfa-24
  DW_CFA_advance_loc: 4 to 00000000004143e8
  DW_CFA_def_cfa_offset: 32
  DW_CFA_offset: r6 (rbp) at cfa-32
  DW_CFA_advance_loc: 1 to 00000000004143e9
  DW_CFA_def_cfa_offset: 40
  DW_CFA_offset: r3 (rbx) at cfa-40
  DW_CFA_advance_loc: 4 to 00000000004143ed
  DW_CFA_def_cfa_offset: 48
  DW_CFA_advance_loc2: 471 to 00000000004145c4
  DW_CFA_remember_state
  DW_CFA_def_cfa_offset: 40
  DW_CFA_advance_loc: 4 to 00000000004145c8
  DW_CFA_def_cfa_offset: 32
  DW_CFA_advance_loc: 1 to 00000000004145c9
  DW_CFA_def_cfa_offset: 24
  DW_CFA_advance_loc: 2 to 00000000004145cb
  DW_CFA_def_cfa_offset: 16
  DW_CFA_advance_loc: 2 to 00000000004145cd
  DW_CFA_def_cfa_offset: 8
  DW_CFA_advance_loc: 3 to 00000000004145d0
  DW_CFA_restore_state
  DW_CFA_advance_loc1: 64 to 0000000000414610
  DW_CFA_def_cfa_offset: 176
  DW_CFA_advance_loc: 12 to 000000000041461c
  DW_CFA_def_cfa_offset: 48
  DW_CFA_nop
  DW_CFA_nop
  DW_CFA_nop
  DW_CFA_nop

000019d8 000000000000004c 000019ac FDE cie=00000030 pc=0000000000414640..00000000004148dd
  DW_CFA_advance_loc: 10 to 000000000041464a
  DW_CFA_def_cfa_offset: 16
  DW_CFA_offset: r6 (rbp) at cfa-16
  DW_CFA_advance_loc: 1 to 000000000041464b
  DW_CFA_def_cfa_offset: 24
  DW_CFA_offset: r3 (rbx) at cfa-24
  DW_CFA_advance_loc: 12 to 0000000000414657
  DW_CFA_def_cfa_offset: 64
  DW_CFA_advance_loc1: 93 to 00000000004146b4
  DW_CFA_def_cfa_offset: 192
  DW_CFA_advance_loc: 12 to 00000000004146c0
  DW_CFA_def_cfa_offset: 64
  DW_CFA_advance_loc1: 103 to 0000000000414727
  DW_CFA_def_cfa_offset: 192
  DW_CFA_advance_loc: 12 to 0000000000414733
  DW_CFA_def_cfa_offset: 64
  DW_CFA_advance_loc1: 207 to 0000000000414802
  DW_CFA_def_cfa_offset: 192
  DW_CFA_advance_loc: 12 to 000000000041480e
  DW_CFA_def_cfa_offset: 64
  DW_CFA_advance_loc: 19 to 0000000000414821
  DW_CFA_def_cfa_offset: 24
  DW_CFA_advance_loc: 1 to 0000000000414822
  DW_CFA_restore: r3 (rbx)
  DW_CFA_def_cfa_offset: 16
  DW_CFA_advance_loc: 1 to 0000000000414823
  DW_CFA_restore: r6 (rbp)
  DW_CFA_def_cfa_offset: 8
  DW_CFA_advance_loc: 5 to 0000000000414828
  DW_CFA_def_cfa_offset: 64
  DW_CFA_offset: r3 (rbx) at cfa-24
  DW_CFA_offset: r6 (rbp) at cfa-16
  DW_CFA_advance_loc: 38 to 000000000041484e
  DW_CFA_def_cfa_offset: 192
  DW_CFA_advance_loc: 12 to 000000000041485a
  DW_CFA_def_cfa_offset: 64
  DW_CFA_nop

00001a28 000000000000004c 000019fc FDE cie=00000030 pc=00000000004148e0..0000000000414b1f
  DW_CFA_advance_loc: 11 to 00000000004148eb
  DW_CFA_def_cfa_offset: 16
  DW_CFA_offset: r6 (rbp) at cfa-16
  DW_CFA_advance_loc: 1 to 00000000004148ec
  DW_CFA_def_cfa_offset: 24
  DW_CFA_offset: r3 (rbx) at cfa-24
  DW_CFA_advance_loc: 14 to 00000000004148fa
  DW_CFA_def_cfa_offset: 64
  DW_CFA_advance_loc1: 95 to 0000000000414959
  DW_CFA_def_cfa_offset: 192
  DW_CFA_advance_loc: 12 to 0000000000414965
  DW_CFA_def_cfa_offset: 64
  DW_CFA_advance_loc1: 105 to 00000000004149ce
  DW_CFA_def_cfa_offset: 192
  DW_CFA_advance_loc: 12 to 00000000004149da
  DW_CFA_def_cfa_offset: 64
  DW_CFA_advance_loc1: 154 to 0000000000414a74
  DW_CFA_def_cfa_offset: 192
  DW_CFA_advance_loc: 12 to 0000000000414a80
  DW_CFA_def_cfa_offset: 64
  DW_CFA_advance_loc: 19 to 0000000000414a93
  DW_CFA_def_cfa_offset: 24
  DW_CFA_advance_loc: 1 to 0000000000414a94
  DW_CFA_restore: r3 (rbx)
  DW_CFA_def_cfa_offset: 16
  DW_CFA_advance_loc: 1 to 0000000000414a95
  DW_CFA_restore: r6 (rbp)
  DW_CFA_def_cfa_offset: 8
  DW_CFA_advance_loc: 11 to 0000000000414aa0
  DW_CFA_def_cfa_offset: 64
  DW_CFA_offset: r3 (rbx) at cfa-24
  DW_CFA_offset: r6 (rbp) at cfa-16
  DW_CFA_advance_loc1: 104 to 0000000000414b08
  DW_CFA_def_cfa_offset: 192
  DW_CFA_advance_loc: 12 to 0000000000414b14
  DW_CFA_def_cfa_offset: 64

00001a78 0000000000000014 00001a4c FDE cie=00000030 pc=0000000000414b20..0000000000414b45
  DW_CFA_nop
  DW_CFA_nop
  DW_CFA_nop
  DW_CFA_nop
  DW_CFA_nop
  DW_CFA_nop
  DW_CFA_nop

00001a90 0000000000000014 00001a64 FDE cie=00000030 pc=0000000000414b50..0000000000414b7b
  DW_CFA_nop
  DW_CFA_nop
  DW_CFA_nop
  DW_CFA_nop
  DW_CFA_nop
  DW_CFA_nop
  DW_CFA_nop

00001aa8 0000000000000014 00001a7c FDE cie=00000030 pc=0000000000414b80..0000000000414bab
  DW_CFA_nop
  DW_CFA_nop
  DW_CFA_nop
  DW_CFA_nop
  DW_CFA_nop
  DW_CFA_nop
  DW_CFA_nop

00001ac0 000000000000001c 00001a94 FDE cie=00000030 pc=0000000000414bb0..0000000000414c1a
  DW_CFA_advance_loc: 9 to 0000000000414bb9
  DW_CFA_def_cfa_offset: 16
  DW_CFA_offset: r3 (rbx) at cfa-16
  DW_CFA_advance_loc: 50 to 0000000000414beb
  DW_CFA_remember_state
  DW_CFA_def_cfa_offset: 8
  DW_CFA_advance_loc: 5 to 0000000000414bf0
  DW_CFA_restore_state
  DW_CFA_nop
  DW_CFA_nop
  DW_CFA_nop
  DW_CFA_nop

00001ae0 000000000000001c 00001ab4 FDE cie=00000030 pc=0000000000414c20..0000000000414c76
  DW_CFA_advance_loc: 1 to 0000000000414c21
  DW_CFA_def_cfa_offset: 16
  DW_CFA_offset: r3 (rbx) at cfa-16
  DW_CFA_advance_loc1: 69 to 0000000000414c66
  DW_CFA_remember_state
  DW_CFA_def_cfa_offset: 8
  DW_CFA_advance_loc: 10 to 0000000000414c70
  DW_CFA_restore_state
  DW_CFA_nop
  DW_CFA_nop
  DW_CFA_nop

00001b00 0000000000000014 00001ad4 FDE cie=00000030 pc=0000000000414c80..0000000000414ca1
  DW_CFA_nop
  DW_CFA_nop
  DW_CFA_nop
  DW_CFA_nop
  DW_CFA_nop
  DW_CFA_nop
  DW_CFA_nop

00001b18 000000000000002c 00001aec FDE cie=00000030 pc=0000000000414cb0..0000000000414e20
  DW_CFA_advance_loc: 1 to 0000000000414cb1
  DW_CFA_def_cfa_offset: 16
  DW_CFA_offset: r3 (rbx) at cfa-16
  DW_CFA_advance_loc1: 86 to 0000000000414d07
  DW_CFA_remember_state
  DW_CFA_def_cfa_offset: 8
  DW_CFA_advance_loc: 9 to 0000000000414d10
  DW_CFA_restore_state
  DW_CFA_advance_loc: 11 to 0000000000414d1b
  DW_CFA_remember_state
  DW_CFA_def_cfa_offset: 8
  DW_CFA_advance_loc: 5 to 0000000000414d20
  DW_CFA_restore_state
  DW_CFA_advance_loc: 49 to 0000000000414d51
  DW_CFA_remember_state
  DW_CFA_def_cfa_offset: 8
  DW_CFA_advance_loc: 7 to 0000000000414d58
  DW_CFA_restore_state
  DW_CFA_nop
  DW_CFA_nop
  DW_CFA_nop
  DW_CFA_nop
  DW_CFA_nop
  DW_CFA_nop
  DW_CFA_nop

00001b48 000000000000002c 00001b1c FDE cie=00000030 pc=0000000000414e20..0000000000414f90
  DW_CFA_advance_loc: 1 to 0000000000414e21
  DW_CFA_def_cfa_offset: 16
  DW_CFA_offset: r3 (rbx) at cfa-16
  DW_CFA_advance_loc1: 86 to 0000000000414e77
  DW_CFA_remember_state
  DW_CFA_def_cfa_offset: 8
  DW_CFA_advance_loc: 9 to 0000000000414e80
  DW_CFA_restore_state
  DW_CFA_advance_loc: 11 to 0000000000414e8b
  DW_CFA_remember_state
  DW_CFA_def_cfa_offset: 8
  DW_CFA_advance_loc: 5 to 0000000000414e90
  DW_CFA_restore_state
  DW_CFA_advance_loc1: 140 to 0000000000414f1c
  DW_CFA_remember_state
  DW_CFA_def_cfa_offset: 8
  DW_CFA_advance_loc: 4 to 0000000000414f20
  DW_CFA_restore_state
  DW_CFA_nop
  DW_CFA_nop
  DW_CFA_nop
  DW_CFA_nop
  DW_CFA_nop
  DW_CFA_nop

00001b78 0000000000000024 00001b4c FDE cie=00000030 pc=0000000000414f90..0000000000414fed
  DW_CFA_advance_loc: 1 to 0000000000414f91
  DW_CFA_def_cfa_offset: 16
  DW_CFA_offset: r3 (rbx) at cfa-16
  DW_CFA_advance_loc: 7 to 0000000000414f98
  DW_CFA_def_cfa_offset: 48
  DW_CFA_advance_loc: 42 to 0000000000414fc2
  DW_CFA_remember_state
  DW_CFA_def_cfa_offset: 16
  DW_CFA_advance_loc: 1 to 0000000000414fc3
  DW_CFA_def_cfa_offset: 8
  DW_CFA_advance_loc: 5 to 0000000000414fc8
  DW_CFA_restore_state
  DW_CFA_nop
  DW_CFA_nop
  DW_CFA_nop
  DW_CFA_nop
  DW_CFA_nop
  DW_CFA_nop

00001ba0 000000000000002c 00001b74 FDE cie=00000030 pc=0000000000414ff0..0000000000415079
  DW_CFA_advance_loc: 18 to 0000000000415002
  DW_CFA_def_cfa_offset: 16
  DW_CFA_offset: r12 (r12) at cfa-16
  DW_CFA_advance_loc: 1 to 0000000000415003
  DW_CFA_def_cfa_offset: 24
  DW_CFA_offset: r6 (rbp) at cfa-24
  DW_CFA_advance_loc: 1 to 0000000000415004
  DW_CFA_def_cfa_offset: 32
  DW_CFA_offset: r3 (rbx) at cfa-32
  DW_CFA_advance_loc: 38 to 000000000041502a
  DW_CFA_remember_state
  DW_CFA_restore: r3 (rbx)
  DW_CFA_def_cfa_offset: 24
  DW_CFA_advance_loc: 1 to 000000000041502b
  DW_CFA_restore: r6 (rbp)
  DW_CFA_def_cfa_offset: 16
  DW_CFA_advance_loc: 2 to 000000000041502d
  DW_CFA_restore: r12 (r12)
  DW_CFA_def_cfa_offset: 8
  DW_CFA_advance_loc: 3 to 0000000000415030
  DW_CFA_restore_state
  DW_CFA_nop

00001bd0 0000000000000014 00001ba4 FDE cie=00000030 pc=0000000000415080..0000000000415086
  DW_CFA_nop
  DW_CFA_nop
  DW_CFA_nop
  DW_CFA_nop
  DW_CFA_nop
  DW_CFA_nop
  DW_CFA_nop

00001be8 000000000000001c 00001bbc FDE cie=00000030 pc=0000000000415090..00000000004150b4
  DW_CFA_advance_loc: 8 to 0000000000415098
  DW_CFA_def_cfa_offset: 16
  DW_CFA_offset: r3 (rbx) at cfa-16
  DW_CFA_advance_loc: 27 to 00000000004150b3
  DW_CFA_def_cfa_offset: 8
  DW_CFA_nop
  DW_CFA_nop
  DW_CFA_nop
  DW_CFA_nop
  DW_CFA_nop
  DW_CFA_nop
  DW_CFA_nop

00001c08 000000000000003c 00001bdc FDE cie=00000030 pc=00000000004150c0..0000000000415183
  DW_CFA_advance_loc: 11 to 00000000004150cb
  DW_CFA_def_cfa_offset: 16
  DW_CFA_offset: r14 (r14) at cfa-16
  DW_CFA_advance_loc: 2 to 00000000004150cd
  DW_CFA_def_cfa_offset: 24
  DW_CFA_offset: r13 (r13) at cfa-24
  DW_CFA_advance_loc: 5 to 00000000004150d2
  DW_CFA_def_cfa_offset: 32
  DW_CFA_offset: r12 (r12) at cfa-32
  DW_CFA_advance_loc: 1 to 00000000004150d3
  DW_CFA_def_cfa_offset: 40
  DW_CFA_offset: r6 (rbp) at cfa-40
  DW_CFA_advance_loc: 4 to 00000000004150d7
  DW_CFA_def_cfa_offset: 48
  DW_CFA_offset: r3 (rbx) at cfa-48
  DW_CFA_advance_loc1: 149 to 000000000041516c
  DW_CFA_restore: r3 (rbx)
  DW_CFA_def_cfa_offset: 40
  DW_CFA_advance_loc: 4 to 0000000000415170
  DW_CFA_restore: r6 (rbp)
  DW_CFA_def_cfa_offset: 32
  DW_CFA_advance_loc: 2 to 0000000000415172
  DW_CFA_restore: r12 (r12)
  DW_CFA_def_cfa_offset: 24
  DW_CFA_advance_loc: 2 to 0000000000415174
  DW_CFA_restore: r13 (r13)
  DW_CFA_def_cfa_offset: 16
  DW_CFA_advance_loc: 2 to 0000000000415176
  DW_CFA_restore: r14 (r14)
  DW_CFA_def_cfa_offset: 8
  DW_CFA_nop

00001c48 0000000000000014 00001c1c FDE cie=00000030 pc=0000000000415190..000000000041519d
  DW_CFA_nop
  DW_CFA_nop
  DW_CFA_nop
  DW_CFA_nop
  DW_CFA_nop
  DW_CFA_nop
  DW_CFA_nop

00001c60 000000000000003c 00001c34 FDE cie=00000030 pc=00000000004151a0..00000000004153de
  DW_CFA_advance_loc: 2 to 00000000004151a2
  DW_CFA_def_cfa_offset: 16
  DW_CFA_offset: r14 (r14) at cfa-16
  DW_CFA_advance_loc: 2 to 00000000004151a4
  DW_CFA_def_cfa_offset: 24
  DW_CFA_offset: r13 (r13) at cfa-24
  DW_CFA_advance_loc: 5 to 00000000004151a9
  DW_CFA_def_cfa_offset: 32
  DW_CFA_offset: r12 (r12) at cfa-32
  DW_CFA_advance_loc: 4 to 00000000004151ad
  DW_CFA_def_cfa_offset: 40
  DW_CFA_offset: r6 (rbp) at cfa-40
  DW_CFA_advance_loc: 1 to 00000000004151ae
  DW_CFA_def_cfa_offset: 48
  DW_CFA_offset: r3 (rbx) at cfa-48
  DW_CFA_advance_loc2: 287 to 00000000004152cd
  DW_CFA_remember_state
  DW_CFA_def_cfa_offset: 40
  DW_CFA_advance_loc: 4 to 00000000004152d1
  DW_CFA_def_cfa_offset: 32
  DW_CFA_advance_loc: 2 to 00000000004152d3
  DW_CFA_def_cfa_offset: 24
  DW_CFA_advance_loc: 2 to 00000000004152d5
  DW_CFA_def_cfa_offset: 16
  DW_CFA_advance_loc: 2 to 00000000004152d7
  DW_CFA_def_cfa_offset: 8
  DW_CFA_advance_loc: 9 to 00000000004152e0
  DW_CFA_restore_state
  DW_CFA_nop
  DW_CFA_nop

00001ca0 000000000000002c 00001c74 FDE cie=00000030 pc=00000000004153e0..00000000004154a4
  DW_CFA_advance_loc: 2 to 00000000004153e2
  DW_CFA_def_cfa_offset: 16
  DW_CFA_offset: r12 (r12) at cfa-16
  DW_CFA_advance_loc: 1 to 00000000004153e3
  DW_CFA_def_cfa_offset: 24
  DW_CFA_offset: r6 (rbp) at cfa-24
  DW_CFA_advance_loc: 4 to 00000000004153e7
  DW_CFA_def_cfa_offset: 32
  DW_CFA_offset: r3 (rbx) at cfa-32
  DW_CFA_advance_loc1: 126 to 0000000000415465
  DW_CFA_remember_state
  DW_CFA_def_cfa_offset: 24
  DW_CFA_advance_loc: 1 to 0000000000415466
  DW_CFA_def_cfa_offset: 16
  DW_CFA_advance_loc: 2 to 0000000000415468
  DW_CFA_def_cfa_offset: 8
  DW_CFA_advance_loc: 8 to 0000000000415470
  DW_CFA_restore_state
  DW_CFA_nop
  DW_CFA_nop
  DW_CFA_nop

00001cd0 0000000000000014 00001ca4 FDE cie=00000030 pc=00000000004154b0..00000000004154c1
  DW_CFA_nop
  DW_CFA_nop
  DW_CFA_nop
  DW_CFA_nop
  DW_CFA_nop
  DW_CFA_nop
  DW_CFA_nop

00001ce8 000000000000002c 00001cbc FDE cie=00000030 pc=00000000004154d0..0000000000415529
  DW_CFA_advance_loc: 2 to 00000000004154d2
  DW_CFA_def_cfa_offset: 16
  DW_CFA_offset: r12 (r12) at cfa-16
  DW_CFA_advance_loc: 1 to 00000000004154d3
  DW_CFA_def_cfa_offset: 24
  DW_CFA_offset: r6 (rbp) at cfa-24
  DW_CFA_advance_loc: 1 to 00000000004154d4
  DW_CFA_def_cfa_offset: 32
  DW_CFA_offset: r3 (rbx) at cfa-32
  DW_CFA_advance_loc1: 68 to 0000000000415518
  DW_CFA_remember_state
  DW_CFA_def_cfa_offset: 24
  DW_CFA_advance_loc: 1 to 0000000000415519
  DW_CFA_def_cfa_offset: 16
  DW_CFA_advance_loc: 2 to 000000000041551b
  DW_CFA_def_cfa_offset: 8
  DW_CFA_advance_loc: 5 to 0000000000415520
  DW_CFA_restore_state
  DW_CFA_nop
  DW_CFA_nop
  DW_CFA_nop

00001d18 0000000000000014 00001cec FDE cie=00000030 pc=0000000000415530..00000000004155f2
  DW_CFA_nop
  DW_CFA_nop
  DW_CFA_nop
  DW_CFA_nop
  DW_CFA_nop
  DW_CFA_nop
  DW_CFA_nop

00001d30 0000000000000014 00001d04 FDE cie=00000030 pc=0000000000415600..00000000004156a3
  DW_CFA_nop
  DW_CFA_nop
  DW_CFA_nop
  DW_CFA_nop
  DW_CFA_nop
  DW_CFA_nop
  DW_CFA_nop

00001d48 0000000000000014 00001d1c FDE cie=00000030 pc=00000000004156b0..00000000004157e7
  DW_CFA_nop
  DW_CFA_nop
  DW_CFA_nop
  DW_CFA_nop
  DW_CFA_nop
  DW_CFA_nop
  DW_CFA_nop

00001d60 0000000000000014 00001d34 FDE cie=00000030 pc=00000000004157f0..00000000004157f3
  DW_CFA_nop
  DW_CFA_nop
  DW_CFA_nop
  DW_CFA_nop
  DW_CFA_nop
  DW_CFA_nop
  DW_CFA_nop

00001d78 0000000000000054 00001d4c FDE cie=00000030 pc=0000000000415800..0000000000415b0e
  DW_CFA_advance_loc: 1 to 0000000000415801
  DW_CFA_def_cfa_offset: 16
  DW_CFA_offset: r6 (rbp) at cfa-16
  DW_CFA_advance_loc: 1 to 0000000000415802
  DW_CFA_def_cfa_offset: 24
  DW_CFA_offset: r3 (rbx) at cfa-24
  DW_CFA_advance_loc: 7 to 0000000000415809
  DW_CFA_def_cfa_offset: 64
  DW_CFA_advance_loc1: 78 to 0000000000415857
  DW_CFA_remember_state
  DW_CFA_def_cfa_offset: 24
  DW_CFA_advance_loc: 1 to 0000000000415858
  DW_CFA_def_cfa_offset: 16
  DW_CFA_advance_loc: 1 to 0000000000415859
  DW_CFA_def_cfa_offset: 8
  DW_CFA_advance_loc: 7 to 0000000000415860
  DW_CFA_restore_state
  DW_CFA_advance_loc1: 98 to 00000000004158c2
  DW_CFA_def_cfa_offset: 192
  DW_CFA_advance_loc: 12 to 00000000004158ce
  DW_CFA_def_cfa_offset: 64
  DW_CFA_advance_loc1: 193 to 000000000041598f
  DW_CFA_def_cfa_offset: 192
  DW_CFA_advance_loc: 12 to 000000000041599b
  DW_CFA_def_cfa_offset: 64
  DW_CFA_advance_loc1: 83 to 00000000004159ee
  DW_CFA_def_cfa_offset: 192
  DW_CFA_advance_loc: 12 to 00000000004159fa
  DW_CFA_def_cfa_offset: 64
  DW_CFA_advance_loc: 23 to 0000000000415a11
  DW_CFA_remember_state
  DW_CFA_def_cfa_offset: 24
  DW_CFA_advance_loc: 1 to 0000000000415a12
  DW_CFA_def_cfa_offset: 16
  DW_CFA_advance_loc: 1 to 0000000000415a13
  DW_CFA_def_cfa_offset: 8
  DW_CFA_advance_loc: 5 to 0000000000415a18
  DW_CFA_restore_state
  DW_CFA_advance_loc1: 91 to 0000000000415a73
  DW_CFA_def_cfa_offset: 192
  DW_CFA_advance_loc: 12 to 0000000000415a7f
  DW_CFA_def_cfa_offset: 64
  DW_CFA_nop

00001dd0 0000000000000014 00001da4 FDE cie=00000030 pc=0000000000415b10..0000000000415b18
  DW_CFA_nop
  DW_CFA_nop
  DW_CFA_nop
  DW_CFA_nop
  DW_CFA_nop
  DW_CFA_nop
  DW_CFA_nop

00001de8 000000000000001c 00001dbc FDE cie=00000030 pc=0000000000415b20..0000000000415b62
  DW_CFA_advance_loc: 1 to 0000000000415b21
  DW_CFA_def_cfa_offset: 16
  DW_CFA_offset: r3 (rbx) at cfa-16
  DW_CFA_advance_loc: 47 to 0000000000415b50
  DW_CFA_remember_state
  DW_CFA_def_cfa_offset: 8
  DW_CFA_advance_loc: 8 to 0000000000415b58
  DW_CFA_restore_state
  DW_CFA_nop
  DW_CFA_nop
  DW_CFA_nop
  DW_CFA_nop

00001e08 000000000000001c 00001ddc FDE cie=00000030 pc=0000000000415b70..0000000000415ba6
  DW_CFA_advance_loc: 9 to 0000000000415b79
  DW_CFA_def_cfa_offset: 16
  DW_CFA_offset: r3 (rbx) at cfa-16
  DW_CFA_advance_loc: 21 to 0000000000415b8e
  DW_CFA_remember_state
  DW_CFA_def_cfa_offset: 8
  DW_CFA_advance_loc: 2 to 0000000000415b90
  DW_CFA_restore_state
  DW_CFA_advance_loc: 21 to 0000000000415ba5
  DW_CFA_def_cfa_offset: 8
  DW_CFA_nop

00001e28 0000000000000014 00001dfc FDE cie=00000030 pc=0000000000415bb0..0000000000415bf0
  DW_CFA_nop
  DW_CFA_nop
  DW_CFA_nop
  DW_CFA_nop
  DW_CFA_nop
  DW_CFA_nop
  DW_CFA_nop

00001e40 000000000000006c 00001e14 FDE cie=00000030 pc=0000000000415bf0..0000000000415ebd
  DW_CFA_advance_loc: 2 to 0000000000415bf2
  DW_CFA_def_cfa_offset: 16
  DW_CFA_offset: r15 (r15) at cfa-16
  DW_CFA_advance_loc: 2 to 0000000000415bf4
  DW_CFA_def_cfa_offset: 24
  DW_CFA_offset: r14 (r14) at cfa-24
  DW_CFA_advance_loc: 5 to 0000000000415bf9
  DW_CFA_def_cfa_offset: 32
  DW_CFA_offset: r13 (r13) at cfa-32
  DW_CFA_advance_loc: 2 to 0000000000415bfb
  DW_CFA_def_cfa_offset: 40
  DW_CFA_offset: r12 (r12) at cfa-40
  DW_CFA_advance_loc: 1 to 0000000000415bfc
  DW_CFA_def_cfa_offset: 48
  DW_CFA_offset: r6 (rbp) at cfa-48
  DW_CFA_advance_loc: 1 to 0000000000415bfd
  DW_CFA_def_cfa_offset: 56
  DW_CFA_offset: r3 (rbx) at cfa-56
  DW_CFA_advance_loc: 4 to 0000000000415c01
  DW_CFA_def_cfa_offset: 96
  DW_CFA_advance_loc1: 113 to 0000000000415c72
  DW_CFA_def_cfa_offset: 224
  DW_CFA_advance_loc: 12 to 0000000000415c7e
  DW_CFA_def_cfa_offset: 96
  DW_CFA_advance_loc1: 156 to 0000000000415d1a
  DW_CFA_def_cfa_offset: 224
  DW_CFA_advance_loc: 12 to 0000000000415d26
  DW_CFA_def_cfa_offset: 96
  DW_CFA_advance_loc1: 139 to 0000000000415db1
  DW_CFA_def_cfa_offset: 224
  DW_CFA_advance_loc: 12 to 0000000000415dbd
  DW_CFA_def_cfa_offset: 96
  DW_CFA_advance_loc1: 85 to 0000000000415e12
  DW_CFA_remember_state
  DW_CFA_def_cfa_offset: 56
  DW_CFA_advance_loc: 3 to 0000000000415e15
  DW_CFA_def_cfa_offset: 48
  DW_CFA_advance_loc: 1 to 0000000000415e16
  DW_CFA_def_cfa_offset: 40
  DW_CFA_advance_loc: 2 to 0000000000415e18
  DW_CFA_def_cfa_offset: 32
  DW_CFA_advance_loc: 2 to 0000000000415e1a
  DW_CFA_def_cfa_offset: 24
  DW_CFA_advance_loc: 2 to 0000000000415e1c
  DW_CFA_def_cfa_offset: 16
  DW_CFA_advance_loc: 2 to 0000000000415e1e
  DW_CFA_def_cfa_offset: 8
  DW_CFA_advance_loc: 2 to 0000000000415e20
  DW_CFA_restore_state
  DW_CFA_advance_loc1: 109 to 0000000000415e8d
  DW_CFA_def_cfa_offset: 224
  DW_CFA_advance_loc: 12 to 0000000000415e99
  DW_CFA_def_cfa_offset: 96
  DW_CFA_nop
  DW_CFA_nop
  DW_CFA_nop
  DW_CFA_nop
  DW_CFA_nop

00001eb0 0000000000000064 00001e84 FDE cie=00000030 pc=0000000000415ec0..0000000000416136
  DW_CFA_advance_loc: 2 to 0000000000415ec2
  DW_CFA_def_cfa_offset: 16
  DW_CFA_offset: r14 (r14) at cfa-16
  DW_CFA_advance_loc: 2 to 0000000000415ec4
  DW_CFA_def_cfa_offset: 24
  DW_CFA_offset: r13 (r13) at cfa-24
  DW_CFA_advance_loc: 2 to 0000000000415ec6
  DW_CFA_def_cfa_offset: 32
  DW_CFA_offset: r12 (r12) at cfa-32
  DW_CFA_advance_loc: 1 to 0000000000415ec7
  DW_CFA_def_cfa_offset: 40
  DW_CFA_offset: r6 (rbp) at cfa-40
  DW_CFA_advance_loc: 7 to 0000000000415ece
  DW_CFA_def_cfa_offset: 48
  DW_CFA_offset: r3 (rbx) at cfa-48
  DW_CFA_advance_loc: 4 to 0000000000415ed2
  DW_CFA_def_cfa_offset: 80
  DW_CFA_advance_loc1: 93 to 0000000000415f2f
  DW_CFA_def_cfa_offset: 208
  DW_CFA_advance_loc: 12 to 0000000000415f3b
  DW_CFA_def_cfa_offset: 80
  DW_CFA_advance_loc1: 146 to 0000000000415fcd
  DW_CFA_def_cfa_offset: 208
  DW_CFA_advance_loc: 12 to 0000000000415fd9
  DW_CFA_def_cfa_offset: 80
  DW_CFA_advance_loc1: 134 to 000000000041605f
  DW_CFA_def_cfa_offset: 208
  DW_CFA_advance_loc: 12 to 000000000041606b
  DW_CFA_def_cfa_offset: 80
  DW_CFA_advance_loc1: 111 to 00000000004160da
  DW_CFA_def_cfa_offset: 208
  DW_CFA_advance_loc: 12 to 00000000004160e6
  DW_CFA_def_cfa_offset: 80
  DW_CFA_advance_loc: 19 to 00000000004160f9
  DW_CFA_remember_state
  DW_CFA_def_cfa_offset: 48
  DW_CFA_advance_loc: 3 to 00000000004160fc
  DW_CFA_def_cfa_offset: 40
  DW_CFA_advance_loc: 1 to 00000000004160fd
  DW_CFA_def_cfa_offset: 32
  DW_CFA_advance_loc: 2 to 00000000004160ff
  DW_CFA_def_cfa_offset: 24
  DW_CFA_advance_loc: 2 to 0000000000416101
  DW_CFA_def_cfa_offset: 16
  DW_CFA_advance_loc: 2 to 0000000000416103
  DW_CFA_def_cfa_offset: 8
  DW_CFA_advance_loc: 5 to 0000000000416108
  DW_CFA_restore_state
  DW_CFA_nop
  DW_CFA_nop
  DW_CFA_nop
  DW_CFA_nop
  DW_CFA_nop
  DW_CFA_nop

00001f18 000000000000005c 00001eec FDE cie=00000030 pc=0000000000416140..00000000004163a6
  DW_CFA_advance_loc: 2 to 0000000000416142
  DW_CFA_def_cfa_offset: 16
  DW_CFA_offset: r13 (r13) at cfa-16
  DW_CFA_advance_loc: 2 to 0000000000416144
  DW_CFA_def_cfa_offset: 24
  DW_CFA_offset: r12 (r12) at cfa-24
  DW_CFA_advance_loc: 1 to 0000000000416145
  DW_CFA_def_cfa_offset: 32
  DW_CFA_offset: r6 (rbp) at cfa-32
  DW_CFA_advance_loc: 1 to 0000000000416146
  DW_CFA_def_cfa_offset: 40
  DW_CFA_offset: r3 (rbx) at cfa-40
  DW_CFA_advance_loc: 9 to 000000000041614f
  DW_CFA_def_cfa_offset: 80
  DW_CFA_advance_loc1: 93 to 00000000004161ac
  DW_CFA_def_cfa_offset: 208
  DW_CFA_advance_loc: 12 to 00000000004161b8
  DW_CFA_def_cfa_offset: 80
  DW_CFA_advance_loc1: 124 to 0000000000416234
  DW_CFA_def_cfa_offset: 208
  DW_CFA_advance_loc: 12 to 0000000000416240
  DW_CFA_def_cfa_offset: 80
  DW_CFA_advance_loc1: 92 to 000000000041629c
  DW_CFA_def_cfa_offset: 208
  DW_CFA_advance_loc: 12 to 00000000004162a8
  DW_CFA_def_cfa_offset: 80
  DW_CFA_advance_loc1: 185 to 0000000000416361
  DW_CFA_def_cfa_offset: 208
  DW_CFA_advance_loc: 12 to 000000000041636d
  DW_CFA_def_cfa_offset: 80
  DW_CFA_advance_loc: 19 to 0000000000416380
  DW_CFA_remember_state
  DW_CFA_def_cfa_offset: 40
  DW_CFA_advance_loc: 1 to 0000000000416381
  DW_CFA_def_cfa_offset: 32
  DW_CFA_advance_loc: 1 to 0000000000416382
  DW_CFA_def_cfa_offset: 24
  DW_CFA_advance_loc: 2 to 0000000000416384
  DW_CFA_def_cfa_offset: 16
  DW_CFA_advance_loc: 2 to 0000000000416386
  DW_CFA_def_cfa_offset: 8
  DW_CFA_advance_loc: 10 to 0000000000416390
  DW_CFA_restore_state
  DW_CFA_nop
  DW_CFA_nop
  DW_CFA_nop
  DW_CFA_nop
  DW_CFA_nop
  DW_CFA_nop

00001f78 000000000000002c 00001f4c FDE cie=00000030 pc=00000000004163b0..0000000000416463
  DW_CFA_advance_loc: 1 to 00000000004163b1
  DW_CFA_def_cfa_offset: 16
  DW_CFA_offset: r6 (rbp) at cfa-16
  DW_CFA_advance_loc: 1 to 00000000004163b2
  DW_CFA_def_cfa_offset: 24
  DW_CFA_offset: r3 (rbx) at cfa-24
  DW_CFA_advance_loc: 10 to 00000000004163bc
  DW_CFA_def_cfa_offset: 32
  DW_CFA_advance_loc: 44 to 00000000004163e8
  DW_CFA_remember_state
  DW_CFA_def_cfa_offset: 24
  DW_CFA_advance_loc: 1 to 00000000004163e9
  DW_CFA_def_cfa_offset: 16
  DW_CFA_advance_loc: 1 to 00000000004163ea
  DW_CFA_def_cfa_offset: 8
  DW_CFA_advance_loc: 6 to 00000000004163f0
  DW_CFA_restore_state
  DW_CFA_nop
  DW_CFA_nop
  DW_CFA_nop
  DW_CFA_nop
  DW_CFA_nop
  DW_CFA_nop

00001fa8 0000000000000014 00001f7c FDE cie=00000030 pc=0000000000416470..00000000004164a5
  DW_CFA_nop
  DW_CFA_nop
  DW_CFA_nop
  DW_CFA_nop
  DW_CFA_nop
  DW_CFA_nop
  DW_CFA_nop

00001fc0 0000000000000014 00001f94 FDE cie=00000030 pc=00000000004164b0..00000000004164b7
  DW_CFA_nop
  DW_CFA_nop
  DW_CFA_nop
  DW_CFA_nop
  DW_CFA_nop
  DW_CFA_nop
  DW_CFA_nop

00001fd8 0000000000000014 00001fac FDE cie=00000030 pc=00000000004164c0..00000000004164ef
  DW_CFA_nop
  DW_CFA_nop
  DW_CFA_nop
  DW_CFA_nop
  DW_CFA_nop
  DW_CFA_nop
  DW_CFA_nop

00001ff0 0000000000000014 00001fc4 FDE cie=00000030 pc=00000000004164f0..0000000000416586
  DW_CFA_nop
  DW_CFA_nop
  DW_CFA_nop
  DW_CFA_nop
  DW_CFA_nop
  DW_CFA_nop
  DW_CFA_nop

00002008 000000000000001c 00001fdc FDE cie=00000030 pc=0000000000416590..00000000004165f2
  DW_CFA_advance_loc: 30 to 00000000004165ae
  DW_CFA_def_cfa_offset: 16
  DW_CFA_offset: r3 (rbx) at cfa-16
  DW_CFA_advance_loc1: 66 to 00000000004165f0
  DW_CFA_restore: r3 (rbx)
  DW_CFA_def_cfa_offset: 8
  DW_CFA_nop
  DW_CFA_nop
  DW_CFA_nop
  DW_CFA_nop
  DW_CFA_nop

00002028 000000000000004c 00001ffc FDE cie=00000030 pc=0000000000416600..0000000000416754
  DW_CFA_advance_loc: 2 to 0000000000416602
  DW_CFA_def_cfa_offset: 16
  DW_CFA_offset: r15 (r15) at cfa-16
  DW_CFA_advance_loc: 2 to 0000000000416604
  DW_CFA_def_cfa_offset: 24
  DW_CFA_offset: r14 (r14) at cfa-24
  DW_CFA_advance_loc: 2 to 0000000000416606
  DW_CFA_def_cfa_offset: 32
  DW_CFA_offset: r13 (r13) at cfa-32
  DW_CFA_advance_loc: 2 to 0000000000416608
  DW_CFA_def_cfa_offset: 40
  DW_CFA_offset: r12 (r12) at cfa-40
  DW_CFA_advance_loc: 4 to 000000000041660c
  DW_CFA_def_cfa_offset: 48
  DW_CFA_offset: r6 (rbp) at cfa-48
  DW_CFA_advance_loc: 1 to 000000000041660d
  DW_CFA_def_cfa_offset: 56
  DW_CFA_offset: r3 (rbx) at cfa-56
  DW_CFA_advance_loc: 7 to 0000000000416614
  DW_CFA_def_cfa_offset: 64
  DW_CFA_advance_loc: 45 to 0000000000416641
  DW_CFA_remember_state
  DW_CFA_def_cfa_offset: 56
  DW_CFA_advance_loc: 1 to 0000000000416642
  DW_CFA_def_cfa_offset: 48
  DW_CFA_advance_loc: 1 to 0000000000416643
  DW_CFA_def_cfa_offset: 40
  DW_CFA_advance_loc: 2 to 0000000000416645
  DW_CFA_def_cfa_offset: 32
  DW_CFA_advance_loc: 2 to 0000000000416647
  DW_CFA_def_cfa_offset: 24
  DW_CFA_advance_loc: 2 to 0000000000416649
  DW_CFA_def_cfa_offset: 16
  DW_CFA_advance_loc: 2 to 000000000041664b
  DW_CFA_def_cfa_offset: 8
  DW_CFA_advance_loc: 5 to 0000000000416650
  DW_CFA_restore_state
  DW_CFA_nop
  DW_CFA_nop
  DW_CFA_nop
  DW_CFA_nop
  DW_CFA_nop
  DW_CFA_nop

00002078 0000000000000014 0000204c FDE cie=00000030 pc=0000000000416760..0000000000416768
  DW_CFA_nop
  DW_CFA_nop
  DW_CFA_nop
  DW_CFA_nop
  DW_CFA_nop
  DW_CFA_nop
  DW_CFA_nop

00002090 0000000000000014 00002064 FDE cie=00000030 pc=0000000000416770..0000000000416776
  DW_CFA_nop
  DW_CFA_nop
  DW_CFA_nop
  DW_CFA_nop
  DW_CFA_nop
  DW_CFA_nop
  DW_CFA_nop

000020a8 0000000000000014 0000207c FDE cie=00000030 pc=0000000000416780..0000000000416788
  DW_CFA_nop
  DW_CFA_nop
  DW_CFA_nop
  DW_CFA_nop
  DW_CFA_nop
  DW_CFA_nop
  DW_CFA_nop

000020c0 0000000000000014 00002094 FDE cie=00000030 pc=0000000000416790..0000000000416793
  DW_CFA_nop
  DW_CFA_nop
  DW_CFA_nop
  DW_CFA_nop
  DW_CFA_nop
  DW_CFA_nop
  DW_CFA_nop

000020d8 0000000000000014 000020ac FDE cie=00000030 pc=00000000004167a0..00000000004167a6
  DW_CFA_nop
  DW_CFA_nop
  DW_CFA_nop
  DW_CFA_nop
  DW_CFA_nop
  DW_CFA_nop
  DW_CFA_nop

000020f0 0000000000000014 000020c4 FDE cie=00000030 pc=00000000004167b0..00000000004167b2
  DW_CFA_nop
  DW_CFA_nop
  DW_CFA_nop
  DW_CFA_nop
  DW_CFA_nop
  DW_CFA_nop
  DW_CFA_nop

00002108 0000000000000014 000020dc FDE cie=00000030 pc=00000000004167c0..00000000004167c8
  DW_CFA_nop
  DW_CFA_nop
  DW_CFA_nop
  DW_CFA_nop
  DW_CFA_nop
  DW_CFA_nop
  DW_CFA_nop

00002120 0000000000000014 000020f4 FDE cie=00000030 pc=00000000004167d0..00000000004167d3
  DW_CFA_nop
  DW_CFA_nop
  DW_CFA_nop
  DW_CFA_nop
  DW_CFA_nop
  DW_CFA_nop
  DW_CFA_nop

00002138 0000000000000014 0000210c FDE cie=00000030 pc=00000000004167e0..00000000004167e5
  DW_CFA_nop
  DW_CFA_nop
  DW_CFA_nop
  DW_CFA_nop
  DW_CFA_nop
  DW_CFA_nop
  DW_CFA_nop

00002150 0000000000000014 00002124 FDE cie=00000030 pc=00000000004167f0..00000000004167f4
  DW_CFA_nop
  DW_CFA_nop
  DW_CFA_nop
  DW_CFA_nop
  DW_CFA_nop
  DW_CFA_nop
  DW_CFA_nop

00002168 000000000000001c 0000213c FDE cie=00000030 pc=0000000000416800..0000000000416860
  DW_CFA_advance_loc1: 69 to 0000000000416845
  DW_CFA_def_cfa_offset: 136
  DW_CFA_advance_loc: 12 to 0000000000416851
  DW_CFA_def_cfa_offset: 8
  DW_CFA_nop
  DW_CFA_nop
  DW_CFA_nop
  DW_CFA_nop
  DW_CFA_nop
  DW_CFA_nop
  DW_CFA_nop

00002188 0000000000000014 0000215c FDE cie=00000030 pc=0000000000416860..00000000004168ac
  DW_CFA_advance_loc: 62 to 000000000041689e
  DW_CFA_def_cfa_offset: 136
  DW_CFA_advance_loc: 12 to 00000000004168aa
  DW_CFA_def_cfa_offset: 8

000021a0 0000000000000014 00002174 FDE cie=00000030 pc=00000000004168b0..00000000004168d0
  DW_CFA_nop
  DW_CFA_nop
  DW_CFA_nop
  DW_CFA_nop
  DW_CFA_nop
  DW_CFA_nop
  DW_CFA_nop

000021b8 0000000000000014 0000218c FDE cie=00000030 pc=00000000004168d0..0000000000416926
  DW_CFA_nop
  DW_CFA_nop
  DW_CFA_nop
  DW_CFA_nop
  DW_CFA_nop
  DW_CFA_nop
  DW_CFA_nop

000021d0 0000000000000054 000021a4 FDE cie=00000030 pc=0000000000416930..0000000000416a97
  DW_CFA_advance_loc: 26 to 000000000041694a
  DW_CFA_def_cfa_offset: 16
  DW_CFA_offset: r15 (r15) at cfa-16
  DW_CFA_advance_loc: 4 to 000000000041694e
  DW_CFA_def_cfa_offset: 24
  DW_CFA_offset: r14 (r14) at cfa-24
  DW_CFA_advance_loc: 2 to 0000000000416950
  DW_CFA_def_cfa_offset: 32
  DW_CFA_offset: r13 (r13) at cfa-32
  DW_CFA_advance_loc: 2 to 0000000000416952
  DW_CFA_def_cfa_offset: 40
  DW_CFA_offset: r12 (r12) at cfa-40
  DW_CFA_advance_loc: 6 to 0000000000416958
  DW_CFA_def_cfa_offset: 48
  DW_CFA_offset: r6 (rbp) at cfa-48
  DW_CFA_advance_loc: 1 to 0000000000416959
  DW_CFA_def_cfa_offset: 56
  DW_CFA_offset: r3 (rbx) at cfa-56
  DW_CFA_advance_loc: 4 to 000000000041695d
  DW_CFA_def_cfa_offset: 64
  DW_CFA_advance_loc2: 264 to 0000000000416a65
  DW_CFA_remember_state
  DW_CFA_def_cfa_offset: 56
  DW_CFA_advance_loc: 1 to 0000000000416a66
  DW_CFA_restore: r3 (rbx)
  DW_CFA_def_cfa_offset: 48
  DW_CFA_advance_loc: 1 to 0000000000416a67
  DW_CFA_restore: r6 (rbp)
  DW_CFA_def_cfa_offset: 40
  DW_CFA_advance_loc: 2 to 0000000000416a69
  DW_CFA_restore: r12 (r12)
  DW_CFA_def_cfa_offset: 32
  DW_CFA_advance_loc: 2 to 0000000000416a6b
  DW_CFA_restore: r13 (r13)
  DW_CFA_def_cfa_offset: 24
  DW_CFA_advance_loc: 2 to 0000000000416a6d
  DW_CFA_restore: r14 (r14)
  DW_CFA_def_cfa_offset: 16
  DW_CFA_advance_loc: 2 to 0000000000416a6f
  DW_CFA_restore: r15 (r15)
  DW_CFA_def_cfa_offset: 8
  DW_CFA_advance_loc: 1 to 0000000000416a70
  DW_CFA_restore_state
  DW_CFA_nop
  DW_CFA_nop
  DW_CFA_nop
  DW_CFA_nop
  DW_CFA_nop
  DW_CFA_nop

00002228 000000000000004c 000021fc FDE cie=00000030 pc=0000000000416aa0..0000000000416c1c
  DW_CFA_advance_loc: 2 to 0000000000416aa2
  DW_CFA_def_cfa_offset: 16
  DW_CFA_offset: r15 (r15) at cfa-16
  DW_CFA_advance_loc: 2 to 0000000000416aa4
  DW_CFA_def_cfa_offset: 24
  DW_CFA_offset: r14 (r14) at cfa-24
  DW_CFA_advance_loc: 2 to 0000000000416aa6
  DW_CFA_def_cfa_offset: 32
  DW_CFA_offset: r13 (r13) at cfa-32
  DW_CFA_advance_loc: 2 to 0000000000416aa8
  DW_CFA_def_cfa_offset: 40
  DW_CFA_offset: r12 (r12) at cfa-40
  DW_CFA_advance_loc: 1 to 0000000000416aa9
  DW_CFA_def_cfa_offset: 48
  DW_CFA_offset: r6 (rbp) at cfa-48
  DW_CFA_advance_loc: 1 to 0000000000416aaa
  DW_CFA_def_cfa_offset: 56
  DW_CFA_offset: r3 (rbx) at cfa-56
  DW_CFA_advance_loc: 4 to 0000000000416aae
  DW_CFA_def_cfa_offset: 96
  DW_CFA_advance_loc: 39 to 0000000000416ad5
  DW_CFA_remember_state
  DW_CFA_def_cfa_offset: 56
  DW_CFA_advance_loc: 4 to 0000000000416ad9
  DW_CFA_def_cfa_offset: 48
  DW_CFA_advance_loc: 1 to 0000000000416ada
  DW_CFA_def_cfa_offset: 40
  DW_CFA_advance_loc: 2 to 0000000000416adc
  DW_CFA_def_cfa_offset: 32
  DW_CFA_advance_loc: 2 to 0000000000416ade
  DW_CFA_def_cfa_offset: 24
  DW_CFA_advance_loc: 2 to 0000000000416ae0
  DW_CFA_def_cfa_offset: 16
  DW_CFA_advance_loc: 2 to 0000000000416ae2
  DW_CFA_def_cfa_offset: 8
  DW_CFA_advance_loc: 6 to 0000000000416ae8
  DW_CFA_restore_state
  DW_CFA_nop
  DW_CFA_nop
  DW_CFA_nop
  DW_CFA_nop
  DW_CFA_nop
  DW_CFA_nop

00002278 0000000000000074 0000224c FDE cie=00000030 pc=0000000000416c20..0000000000416ddd
  DW_CFA_advance_loc: 2 to 0000000000416c22
  DW_CFA_def_cfa_offset: 16
  DW_CFA_offset: r13 (r13) at cfa-16
  DW_CFA_advance_loc: 2 to 0000000000416c24
  DW_CFA_def_cfa_offset: 24
  DW_CFA_offset: r12 (r12) at cfa-24
  DW_CFA_advance_loc: 4 to 0000000000416c28
  DW_CFA_def_cfa_offset: 32
  DW_CFA_offset: r6 (rbp) at cfa-32
  DW_CFA_advance_loc: 1 to 0000000000416c29
  DW_CFA_def_cfa_offset: 40
  DW_CFA_offset: r3 (rbx) at cfa-40
  DW_CFA_advance_loc: 10 to 0000000000416c33
  DW_CFA_def_cfa_offset: 64
  DW_CFA_advance_loc1: 96 to 0000000000416c93
  DW_CFA_remember_state
  DW_CFA_def_cfa_offset: 40
  DW_CFA_advance_loc: 4 to 0000000000416c97
  DW_CFA_def_cfa_offset: 32
  DW_CFA_advance_loc: 1 to 0000000000416c98
  DW_CFA_def_cfa_offset: 24
  DW_CFA_advance_loc: 2 to 0000000000416c9a
  DW_CFA_def_cfa_offset: 16
  DW_CFA_advance_loc: 2 to 0000000000416c9c
  DW_CFA_def_cfa_offset: 8
  DW_CFA_advance_loc: 4 to 0000000000416ca0
  DW_CFA_restore_state
  DW_CFA_advance_loc: 20 to 0000000000416cb4
  DW_CFA_remember_state
  DW_CFA_def_cfa_offset: 40
  DW_CFA_advance_loc: 1 to 0000000000416cb5
  DW_CFA_def_cfa_offset: 32
  DW_CFA_advance_loc: 1 to 0000000000416cb6
  DW_CFA_def_cfa_offset: 24
  DW_CFA_advance_loc: 2 to 0000000000416cb8
  DW_CFA_def_cfa_offset: 16
  DW_CFA_advance_loc: 2 to 0000000000416cba
  DW_CFA_def_cfa_offset: 8
  DW_CFA_advance_loc: 6 to 0000000000416cc0
  DW_CFA_restore_state
  DW_CFA_advance_loc: 47 to 0000000000416cef
  DW_CFA_remember_state
  DW_CFA_def_cfa_offset: 40
  DW_CFA_advance_loc: 1 to 0000000000416cf0
  DW_CFA_def_cfa_offset: 32
  DW_CFA_advance_loc: 1 to 0000000000416cf1
  DW_CFA_def_cfa_offset: 24
  DW_CFA_advance_loc: 2 to 0000000000416cf3
  DW_CFA_def_cfa_offset: 16
  DW_CFA_advance_loc: 2 to 0000000000416cf5
  DW_CFA_def_cfa_offset: 8
  DW_CFA_advance_loc: 11 to 0000000000416d00
  DW_CFA_restore_state
  DW_CFA_advance_loc1: 92 to 0000000000416d5c
  DW_CFA_remember_state
  DW_CFA_def_cfa_offset: 40
  DW_CFA_advance_loc: 1 to 0000000000416d5d
  DW_CFA_def_cfa_offset: 32
  DW_CFA_advance_loc: 1 to 0000000000416d5e
  DW_CFA_def_cfa_offset: 24
  DW_CFA_advance_loc: 2 to 0000000000416d60
  DW_CFA_def_cfa_offset: 16
  DW_CFA_advance_loc: 2 to 0000000000416d62
  DW_CFA_def_cfa_offset: 8
  DW_CFA_advance_loc: 6 to 0000000000416d68
  DW_CFA_restore_state
  DW_CFA_nop
  DW_CFA_nop
  DW_CFA_nop
  DW_CFA_nop
  DW_CFA_nop
  DW_CFA_nop

000022f0 0000000000000014 000022c4 FDE cie=00000030 pc=0000000000416de0..0000000000416df6
  DW_CFA_nop
  DW_CFA_nop
  DW_CFA_nop
  DW_CFA_nop
  DW_CFA_nop
  DW_CFA_nop
  DW_CFA_nop

00002308 000000000000001c 000022dc FDE cie=00000030 pc=0000000000416e00..0000000000416e2b
  DW_CFA_advance_loc: 1 to 0000000000416e01
  DW_CFA_def_cfa_offset: 16
  DW_CFA_offset: r3 (rbx) at cfa-16
  DW_CFA_advance_loc: 37 to 0000000000416e26
  DW_CFA_def_cfa_offset: 8
  DW_CFA_nop
  DW_CFA_nop
  DW_CFA_nop
  DW_CFA_nop
  DW_CFA_nop
  DW_CFA_nop
  DW_CFA_nop

00002328 000000000000003c 000022fc FDE cie=00000030 pc=0000000000416e30..0000000000416ec6
  DW_CFA_advance_loc: 2 to 0000000000416e32
  DW_CFA_def_cfa_offset: 16
  DW_CFA_offset: r13 (r13) at cfa-16
  DW_CFA_advance_loc: 2 to 0000000000416e34
  DW_CFA_def_cfa_offset: 24
  DW_CFA_offset: r12 (r12) at cfa-24
  DW_CFA_advance_loc: 4 to 0000000000416e38
  DW_CFA_def_cfa_offset: 32
  DW_CFA_offset: r6 (rbp) at cfa-32
  DW_CFA_advance_loc: 1 to 0000000000416e39
  DW_CFA_def_cfa_offset: 40
  DW_CFA_offset: r3 (rbx) at cfa-40
  DW_CFA_advance_loc: 10 to 0000000000416e43
  DW_CFA_def_cfa_offset: 48
  DW_CFA_advance_loc1: 78 to 0000000000416e91
  DW_CFA_remember_state
  DW_CFA_def_cfa_offset: 40
  DW_CFA_advance_loc: 1 to 0000000000416e92
  DW_CFA_def_cfa_offset: 32
  DW_CFA_advance_loc: 1 to 0000000000416e93
  DW_CFA_def_cfa_offset: 24
  DW_CFA_advance_loc: 2 to 0000000000416e95
  DW_CFA_def_cfa_offset: 16
  DW_CFA_advance_loc: 2 to 0000000000416e97
  DW_CFA_def_cfa_offset: 8
  DW_CFA_advance_loc: 9 to 0000000000416ea0
  DW_CFA_restore_state
  DW_CFA_nop
  DW_CFA_nop
  DW_CFA_nop
  DW_CFA_nop
  DW_CFA_nop

00002368 000000000000003c 0000233c FDE cie=00000030 pc=0000000000416ed0..0000000000416f6e
  DW_CFA_advance_loc: 2 to 0000000000416ed2
  DW_CFA_def_cfa_offset: 16
  DW_CFA_offset: r13 (r13) at cfa-16
  DW_CFA_advance_loc: 2 to 0000000000416ed4
  DW_CFA_def_cfa_offset: 24
  DW_CFA_offset: r12 (r12) at cfa-24
  DW_CFA_advance_loc: 4 to 0000000000416ed8
  DW_CFA_def_cfa_offset: 32
  DW_CFA_offset: r6 (rbp) at cfa-32
  DW_CFA_advance_loc: 1 to 0000000000416ed9
  DW_CFA_def_cfa_offset: 40
  DW_CFA_offset: r3 (rbx) at cfa-40
  DW_CFA_advance_loc: 15 to 0000000000416ee8
  DW_CFA_def_cfa_offset: 48
  DW_CFA_advance_loc1: 86 to 0000000000416f3e
  DW_CFA_remember_state
  DW_CFA_def_cfa_offset: 40
  DW_CFA_advance_loc: 1 to 0000000000416f3f
  DW_CFA_def_cfa_offset: 32
  DW_CFA_advance_loc: 1 to 0000000000416f40
  DW_CFA_def_cfa_offset: 24
  DW_CFA_advance_loc: 2 to 0000000000416f42
  DW_CFA_def_cfa_offset: 16
  DW_CFA_advance_loc: 2 to 0000000000416f44
  DW_CFA_def_cfa_offset: 8
  DW_CFA_advance_loc: 4 to 0000000000416f48
  DW_CFA_restore_state
  DW_CFA_nop
  DW_CFA_nop
  DW_CFA_nop
  DW_CFA_nop
  DW_CFA_nop

000023a8 000000000000002c 0000237c FDE cie=00000030 pc=0000000000416f70..0000000000416feb
  DW_CFA_advance_loc: 2 to 0000000000416f72
  DW_CFA_def_cfa_offset: 16
  DW_CFA_offset: r12 (r12) at cfa-16
  DW_CFA_advance_loc: 3 to 0000000000416f75
  DW_CFA_def_cfa_offset: 24
  DW_CFA_offset: r6 (rbp) at cfa-24
  DW_CFA_advance_loc: 1 to 0000000000416f76
  DW_CFA_def_cfa_offset: 32
  DW_CFA_offset: r3 (rbx) at cfa-32
  DW_CFA_advance_loc1: 91 to 0000000000416fd1
  DW_CFA_remember_state
  DW_CFA_def_cfa_offset: 24
  DW_CFA_advance_loc: 1 to 0000000000416fd2
  DW_CFA_def_cfa_offset: 16
  DW_CFA_advance_loc: 2 to 0000000000416fd4
  DW_CFA_def_cfa_offset: 8
  DW_CFA_advance_loc: 4 to 0000000000416fd8
  DW_CFA_restore_state
  DW_CFA_nop
  DW_CFA_nop
  DW_CFA_nop

000023d8 0000000000000014 000023ac FDE cie=00000030 pc=0000000000416ff0..0000000000417002
  DW_CFA_nop
  DW_CFA_nop
  DW_CFA_nop
  DW_CFA_nop
  DW_CFA_nop
  DW_CFA_nop
  DW_CFA_nop

000023f0 000000000000001c 000023c4 FDE cie=00000030 pc=0000000000417010..000000000041706e
  DW_CFA_advance_loc: 4 to 0000000000417014
  DW_CFA_def_cfa_offset: 24
  DW_CFA_advance_loc: 49 to 0000000000417045
  DW_CFA_def_cfa_offset: 32
  DW_CFA_advance_loc: 1 to 0000000000417046
  DW_CFA_def_cfa_offset: 40
  DW_CFA_advance_loc: 1 to 0000000000417047
  DW_CFA_def_cfa_offset: 48
  DW_CFA_advance_loc: 29 to 0000000000417064
  DW_CFA_def_cfa_offset: 16

00002410 0000000000000024 000023e4 FDE cie=00000030 pc=00000000004a0fb0..00000000004a108e
  DW_CFA_advance_loc1: 79 to 00000000004a0fff
  DW_CFA_def_cfa_offset: 136
  DW_CFA_advance_loc: 12 to 00000000004a100b
  DW_CFA_def_cfa_offset: 8
  DW_CFA_advance_loc1: 91 to 00000000004a1066
  DW_CFA_def_cfa_offset: 136
  DW_CFA_advance_loc: 12 to 00000000004a1072
  DW_CFA_def_cfa_offset: 8
  DW_CFA_advance_loc: 3 to 00000000004a1075
  DW_CFA_def_cfa_offset: 16
  DW_CFA_nop
  DW_CFA_nop
  DW_CFA_nop
  DW_CFA_nop

00002438 000000000000002c 0000240c FDE cie=00000030 pc=0000000000417070..000000000041720c
  DW_CFA_advance_loc: 5 to 0000000000417075
  DW_CFA_def_cfa_offset: 16
  DW_CFA_offset: r12 (r12) at cfa-16
  DW_CFA_advance_loc: 15 to 0000000000417084
  DW_CFA_def_cfa_offset: 24
  DW_CFA_offset: r6 (rbp) at cfa-24
  DW_CFA_advance_loc: 1 to 0000000000417085
  DW_CFA_def_cfa_offset: 32
  DW_CFA_offset: r3 (rbx) at cfa-32
  DW_CFA_advance_loc1: 132 to 0000000000417109
  DW_CFA_remember_state
  DW_CFA_def_cfa_offset: 24
  DW_CFA_advance_loc: 1 to 000000000041710a
  DW_CFA_def_cfa_offset: 16
  DW_CFA_advance_loc: 2 to 000000000041710c
  DW_CFA_def_cfa_offset: 8
  DW_CFA_advance_loc: 4 to 0000000000417110
  DW_CFA_restore_state
  DW_CFA_nop
  DW_CFA_nop
  DW_CFA_nop

00002468 000000000000003c 0000243c FDE cie=00000030 pc=0000000000417210..0000000000417348
  DW_CFA_advance_loc: 2 to 0000000000417212
  DW_CFA_def_cfa_offset: 16
  DW_CFA_offset: r13 (r13) at cfa-16
  DW_CFA_advance_loc: 2 to 0000000000417214
  DW_CFA_def_cfa_offset: 24
  DW_CFA_offset: r12 (r12) at cfa-24
  DW_CFA_advance_loc: 1 to 0000000000417215
  DW_CFA_def_cfa_offset: 32
  DW_CFA_offset: r6 (rbp) at cfa-32
  DW_CFA_advance_loc: 1 to 0000000000417216
  DW_CFA_def_cfa_offset: 40
  DW_CFA_offset: r3 (rbx) at cfa-40
  DW_CFA_advance_loc: 4 to 000000000041721a
  DW_CFA_def_cfa_offset: 48
  DW_CFA_advance_loc1: 185 to 00000000004172d3
  DW_CFA_remember_state
  DW_CFA_def_cfa_offset: 40
  DW_CFA_advance_loc: 1 to 00000000004172d4
  DW_CFA_def_cfa_offset: 32
  DW_CFA_advance_loc: 1 to 00000000004172d5
  DW_CFA_def_cfa_offset: 24
  DW_CFA_advance_loc: 2 to 00000000004172d7
  DW_CFA_def_cfa_offset: 16
  DW_CFA_advance_loc: 2 to 00000000004172d9
  DW_CFA_def_cfa_offset: 8
  DW_CFA_advance_loc: 7 to 00000000004172e0
  DW_CFA_restore_state
  DW_CFA_nop
  DW_CFA_nop
  DW_CFA_nop
  DW_CFA_nop
  DW_CFA_nop

000024a8 0000000000000014 0000247c FDE cie=00000030 pc=00000000004004d3..00000000004004ed
  DW_CFA_advance_loc: 1 to 00000000004004d4
  DW_CFA_def_cfa_offset: 16
  DW_CFA_nop
  DW_CFA_nop
  DW_CFA_nop
  DW_CFA_nop

000024c0 0000000000000034 00002494 FDE cie=00000030 pc=0000000000417350..000000000041749a
  DW_CFA_advance_loc: 4 to 0000000000417354
  DW_CFA_def_cfa_offset: 16
  DW_CFA_advance_loc1: 78 to 00000000004173a2
  DW_CFA_def_cfa_offset: 144
  DW_CFA_advance_loc: 12 to 00000000004173ae
  DW_CFA_def_cfa_offset: 16
  DW_CFA_advance_loc1: 125 to 000000000041742b
  DW_CFA_def_cfa_offset: 144
  DW_CFA_advance_loc: 12 to 0000000000417437
  DW_CFA_def_cfa_offset: 16
  DW_CFA_advance_loc: 45 to 0000000000417464
  DW_CFA_def_cfa_offset: 144
  DW_CFA_advance_loc: 12 to 0000000000417470
  DW_CFA_def_cfa_offset: 16
  DW_CFA_advance_loc: 11 to 000000000041747b
  DW_CFA_remember_state
  DW_CFA_def_cfa_offset: 8
  DW_CFA_advance_loc: 1 to 000000000041747c
  DW_CFA_restore_state
  DW_CFA_nop
  DW_CFA_nop
  DW_CFA_nop
  DW_CFA_nop
  DW_CFA_nop
  DW_CFA_nop
  DW_CFA_nop

000024f8 0000000000000054 000024cc FDE cie=00000030 pc=00000000004174a0..000000000041758e
  DW_CFA_advance_loc: 2 to 00000000004174a2
  DW_CFA_def_cfa_offset: 16
  DW_CFA_offset: r14 (r14) at cfa-16
  DW_CFA_advance_loc: 2 to 00000000004174a4
  DW_CFA_def_cfa_offset: 24
  DW_CFA_offset: r13 (r13) at cfa-24
  DW_CFA_advance_loc: 2 to 00000000004174a6
  DW_CFA_def_cfa_offset: 32
  DW_CFA_offset: r12 (r12) at cfa-32
  DW_CFA_advance_loc: 1 to 00000000004174a7
  DW_CFA_def_cfa_offset: 40
  DW_CFA_offset: r6 (rbp) at cfa-40
  DW_CFA_advance_loc: 4 to 00000000004174ab
  DW_CFA_def_cfa_offset: 48
  DW_CFA_offset: r3 (rbx) at cfa-48
  DW_CFA_advance_loc: 9 to 00000000004174b4
  DW_CFA_def_cfa_offset: 80
  DW_CFA_advance_loc: 41 to 00000000004174dd
  DW_CFA_remember_state
  DW_CFA_def_cfa_offset: 48
  DW_CFA_advance_loc: 1 to 00000000004174de
  DW_CFA_def_cfa_offset: 40
  DW_CFA_advance_loc: 1 to 00000000004174df
  DW_CFA_def_cfa_offset: 32
  DW_CFA_advance_loc: 2 to 00000000004174e1
  DW_CFA_def_cfa_offset: 24
  DW_CFA_advance_loc: 2 to 00000000004174e3
  DW_CFA_def_cfa_offset: 16
  DW_CFA_advance_loc: 2 to 00000000004174e5
  DW_CFA_def_cfa_offset: 8
  DW_CFA_advance_loc: 11 to 00000000004174f0
  DW_CFA_restore_state
  DW_CFA_advance_loc1: 116 to 0000000000417564
  DW_CFA_remember_state
  DW_CFA_def_cfa_offset: 48
  DW_CFA_advance_loc: 1 to 0000000000417565
  DW_CFA_def_cfa_offset: 40
  DW_CFA_advance_loc: 1 to 0000000000417566
  DW_CFA_def_cfa_offset: 32
  DW_CFA_advance_loc: 2 to 0000000000417568
  DW_CFA_def_cfa_offset: 24
  DW_CFA_advance_loc: 2 to 000000000041756a
  DW_CFA_def_cfa_offset: 16
  DW_CFA_advance_loc: 2 to 000000000041756c
  DW_CFA_def_cfa_offset: 8
  DW_CFA_advance_loc: 4 to 0000000000417570
  DW_CFA_restore_state

00002550 000000000000003c 00002524 FDE cie=00000030 pc=0000000000417590..0000000000417636
  DW_CFA_advance_loc: 5 to 0000000000417595
  DW_CFA_def_cfa_offset: 16
  DW_CFA_offset: r14 (r14) at cfa-16
  DW_CFA_advance_loc: 2 to 0000000000417597
  DW_CFA_def_cfa_offset: 24
  DW_CFA_offset: r13 (r13) at cfa-24
  DW_CFA_advance_loc: 2 to 0000000000417599
  DW_CFA_def_cfa_offset: 32
  DW_CFA_offset: r12 (r12) at cfa-32
  DW_CFA_advance_loc: 1 to 000000000041759a
  DW_CFA_def_cfa_offset: 40
  DW_CFA_offset: r6 (rbp) at cfa-40
  DW_CFA_advance_loc: 1 to 000000000041759b
  DW_CFA_def_cfa_offset: 48
  DW_CFA_offset: r3 (rbx) at cfa-48
  DW_CFA_advance_loc: 38 to 00000000004175c1
  DW_CFA_remember_state
  DW_CFA_def_cfa_offset: 40
  DW_CFA_advance_loc: 1 to 00000000004175c2
  DW_CFA_def_cfa_offset: 32
  DW_CFA_advance_loc: 2 to 00000000004175c4
  DW_CFA_def_cfa_offset: 24
  DW_CFA_advance_loc: 2 to 00000000004175c6
  DW_CFA_def_cfa_offset: 16
  DW_CFA_advance_loc: 2 to 00000000004175c8
  DW_CFA_def_cfa_offset: 8
  DW_CFA_advance_loc: 8 to 00000000004175d0
  DW_CFA_restore_state
  DW_CFA_nop
  DW_CFA_nop
  DW_CFA_nop
  DW_CFA_nop

00002590 0000000000000074 00002564 FDE cie=00000030 pc=0000000000417640..0000000000417bd1
  DW_CFA_advance_loc: 1 to 0000000000417641
  DW_CFA_def_cfa_offset: 16
  DW_CFA_offset: r6 (rbp) at cfa-16
  DW_CFA_advance_loc: 1 to 0000000000417642
  DW_CFA_def_cfa_offset: 24
  DW_CFA_offset: r3 (rbx) at cfa-24
  DW_CFA_advance_loc: 10 to 000000000041764c
  DW_CFA_def_cfa_offset: 32
  DW_CFA_advance_loc1: 247 to 0000000000417743
  DW_CFA_def_cfa_offset: 160
  DW_CFA_advance_loc: 12 to 000000000041774f
  DW_CFA_def_cfa_offset: 32
  DW_CFA_advance_loc: 62 to 000000000041778d
  DW_CFA_def_cfa_offset: 160
  DW_CFA_advance_loc: 12 to 0000000000417799
  DW_CFA_def_cfa_offset: 32
  DW_CFA_advance_loc1: 159 to 0000000000417838
  DW_CFA_def_cfa_offset: 160
  DW_CFA_advance_loc: 12 to 0000000000417844
  DW_CFA_def_cfa_offset: 32
  DW_CFA_advance_loc: 23 to 000000000041785b
  DW_CFA_remember_state
  DW_CFA_def_cfa_offset: 24
  DW_CFA_advance_loc: 4 to 000000000041785f
  DW_CFA_def_cfa_offset: 16
  DW_CFA_advance_loc: 1 to 0000000000417860
  DW_CFA_def_cfa_offset: 8
  DW_CFA_advance_loc: 8 to 0000000000417868
  DW_CFA_restore_state
  DW_CFA_advance_loc: 52 to 000000000041789c
  DW_CFA_remember_state
  DW_CFA_def_cfa_offset: 24
  DW_CFA_advance_loc: 6 to 00000000004178a2
  DW_CFA_def_cfa_offset: 16
  DW_CFA_advance_loc: 1 to 00000000004178a3
  DW_CFA_def_cfa_offset: 8
  DW_CFA_advance_loc: 5 to 00000000004178a8
  DW_CFA_restore_state
  DW_CFA_advance_loc2: 403 to 0000000000417a3b
  DW_CFA_def_cfa_offset: 160
  DW_CFA_advance_loc: 12 to 0000000000417a47
  DW_CFA_def_cfa_offset: 32
  DW_CFA_advance_loc: 63 to 0000000000417a86
  DW_CFA_def_cfa_offset: 160
  DW_CFA_advance_loc: 12 to 0000000000417a92
  DW_CFA_def_cfa_offset: 32
  DW_CFA_advance_loc: 50 to 0000000000417ac4
  DW_CFA_def_cfa_offset: 160
  DW_CFA_advance_loc: 12 to 0000000000417ad0
  DW_CFA_def_cfa_offset: 32
  DW_CFA_advance_loc1: 74 to 0000000000417b1a
  DW_CFA_def_cfa_offset: 160
  DW_CFA_advance_loc: 12 to 0000000000417b26
  DW_CFA_def_cfa_offset: 32
  DW_CFA_advance_loc: 39 to 0000000000417b4d
  DW_CFA_def_cfa_offset: 160
  DW_CFA_advance_loc: 12 to 0000000000417b59
  DW_CFA_def_cfa_offset: 32
  DW_CFA_nop
  DW_CFA_nop
  DW_CFA_nop
  DW_CFA_nop
  DW_CFA_nop

00002608 0000000000000034 000025dc FDE cie=00000030 pc=0000000000417be0..0000000000417ccc
  DW_CFA_advance_loc: 47 to 0000000000417c0f
  DW_CFA_def_cfa_offset: 136
  DW_CFA_advance_loc: 12 to 0000000000417c1b
  DW_CFA_def_cfa_offset: 8
  DW_CFA_advance_loc: 60 to 0000000000417c57
  DW_CFA_def_cfa_offset: 136
  DW_CFA_advance_loc: 12 to 0000000000417c63
  DW_CFA_def_cfa_offset: 8
  DW_CFA_advance_loc: 22 to 0000000000417c79
  DW_CFA_def_cfa_offset: 16
  DW_CFA_offset: r3 (rbx) at cfa-16
  DW_CFA_advance_loc: 45 to 0000000000417ca6
  DW_CFA_def_cfa_offset: 144
  DW_CFA_advance_loc: 12 to 0000000000417cb2
  DW_CFA_def_cfa_offset: 16
  DW_CFA_advance_loc: 11 to 0000000000417cbd
  DW_CFA_remember_state
  DW_CFA_restore: r3 (rbx)
  DW_CFA_def_cfa_offset: 8
  DW_CFA_advance_loc: 1 to 0000000000417cbe
  DW_CFA_restore_state
  DW_CFA_advance_loc: 9 to 0000000000417cc7
  DW_CFA_restore: r3 (rbx)
  DW_CFA_def_cfa_offset: 8
  DW_CFA_nop
  DW_CFA_nop

00002640 000000000000005c 00002614 FDE cie=00000030 pc=0000000000417cd0..0000000000417ed8
  DW_CFA_advance_loc: 2 to 0000000000417cd2
  DW_CFA_def_cfa_offset: 16
  DW_CFA_offset: r14 (r14) at cfa-16
  DW_CFA_advance_loc: 2 to 0000000000417cd4
  DW_CFA_def_cfa_offset: 24
  DW_CFA_offset: r13 (r13) at cfa-24
  DW_CFA_advance_loc: 2 to 0000000000417cd6
  DW_CFA_def_cfa_offset: 32
  DW_CFA_offset: r12 (r12) at cfa-32
  DW_CFA_advance_loc: 1 to 0000000000417cd7
  DW_CFA_def_cfa_offset: 40
  DW_CFA_offset: r6 (rbp) at cfa-40
  DW_CFA_advance_loc: 1 to 0000000000417cd8
  DW_CFA_def_cfa_offset: 48
  DW_CFA_offset: r3 (rbx) at cfa-48
  DW_CFA_advance_loc: 4 to 0000000000417cdc
  DW_CFA_def_cfa_offset: 80
  DW_CFA_advance_loc1: 235 to 0000000000417dc7
  DW_CFA_remember_state
  DW_CFA_def_cfa_offset: 48
  DW_CFA_advance_loc: 1 to 0000000000417dc8
  DW_CFA_def_cfa_offset: 40
  DW_CFA_advance_loc: 1 to 0000000000417dc9
  DW_CFA_def_cfa_offset: 32
  DW_CFA_advance_loc: 2 to 0000000000417dcb
  DW_CFA_def_cfa_offset: 24
  DW_CFA_advance_loc: 2 to 0000000000417dcd
  DW_CFA_def_cfa_offset: 16
  DW_CFA_advance_loc: 2 to 0000000000417dcf
  DW_CFA_def_cfa_offset: 8
  DW_CFA_advance_loc: 1 to 0000000000417dd0
  DW_CFA_restore_state
  DW_CFA_advance_loc1: 64 to 0000000000417e10
  DW_CFA_remember_state
  DW_CFA_def_cfa_offset: 48
  DW_CFA_advance_loc: 3 to 0000000000417e13
  DW_CFA_def_cfa_offset: 40
  DW_CFA_advance_loc: 1 to 0000000000417e14
  DW_CFA_def_cfa_offset: 32
  DW_CFA_advance_loc: 2 to 0000000000417e16
  DW_CFA_def_cfa_offset: 24
  DW_CFA_advance_loc: 2 to 0000000000417e18
  DW_CFA_def_cfa_offset: 16
  DW_CFA_advance_loc: 2 to 0000000000417e1a
  DW_CFA_def_cfa_offset: 8
  DW_CFA_advance_loc: 6 to 0000000000417e20
  DW_CFA_restore_state
  DW_CFA_nop
  DW_CFA_nop
  DW_CFA_nop
  DW_CFA_nop
  DW_CFA_nop
  DW_CFA_nop
  DW_CFA_nop

000026a0 000000000000003c 00002674 FDE cie=00000030 pc=0000000000417ee0..000000000041801f
  DW_CFA_advance_loc: 2 to 0000000000417ee2
  DW_CFA_def_cfa_offset: 16
  DW_CFA_offset: r13 (r13) at cfa-16
  DW_CFA_advance_loc: 2 to 0000000000417ee4
  DW_CFA_def_cfa_offset: 24
  DW_CFA_offset: r12 (r12) at cfa-24
  DW_CFA_advance_loc: 1 to 0000000000417ee5
  DW_CFA_def_cfa_offset: 32
  DW_CFA_offset: r6 (rbp) at cfa-32
  DW_CFA_advance_loc: 1 to 0000000000417ee6
  DW_CFA_def_cfa_offset: 40
  DW_CFA_offset: r3 (rbx) at cfa-40
  DW_CFA_advance_loc: 4 to 0000000000417eea
  DW_CFA_def_cfa_offset: 80
  DW_CFA_advance_loc1: 83 to 0000000000417f3d
  DW_CFA_remember_state
  DW_CFA_def_cfa_offset: 40
  DW_CFA_advance_loc: 1 to 0000000000417f3e
  DW_CFA_def_cfa_offset: 32
  DW_CFA_advance_loc: 1 to 0000000000417f3f
  DW_CFA_def_cfa_offset: 24
  DW_CFA_advance_loc: 2 to 0000000000417f41
  DW_CFA_def_cfa_offset: 16
  DW_CFA_advance_loc: 2 to 0000000000417f43
  DW_CFA_def_cfa_offset: 8
  DW_CFA_advance_loc: 5 to 0000000000417f48
  DW_CFA_restore_state
  DW_CFA_nop
  DW_CFA_nop
  DW_CFA_nop
  DW_CFA_nop
  DW_CFA_nop

000026e0 000000000000008c 000026b4 FDE cie=00000030 pc=0000000000418020..0000000000418aa7
  DW_CFA_advance_loc: 16 to 0000000000418030
  DW_CFA_def_cfa_offset: 16
  DW_CFA_offset: r15 (r15) at cfa-16
  DW_CFA_advance_loc: 2 to 0000000000418032
  DW_CFA_def_cfa_offset: 24
  DW_CFA_offset: r14 (r14) at cfa-24
  DW_CFA_advance_loc: 5 to 0000000000418037
  DW_CFA_def_cfa_offset: 32
  DW_CFA_offset: r13 (r13) at cfa-32
  DW_CFA_advance_loc: 2 to 0000000000418039
  DW_CFA_def_cfa_offset: 40
  DW_CFA_offset: r12 (r12) at cfa-40
  DW_CFA_advance_loc: 1 to 000000000041803a
  DW_CFA_def_cfa_offset: 48
  DW_CFA_offset: r6 (rbp) at cfa-48
  DW_CFA_advance_loc: 1 to 000000000041803b
  DW_CFA_def_cfa_offset: 56
  DW_CFA_offset: r3 (rbx) at cfa-56
  DW_CFA_advance_loc: 4 to 000000000041803f
  DW_CFA_def_cfa_offset: 160
  DW_CFA_advance_loc2: 463 to 000000000041820e
  DW_CFA_remember_state
  DW_CFA_def_cfa_offset: 56
  DW_CFA_advance_loc: 1 to 000000000041820f
  DW_CFA_restore: r3 (rbx)
  DW_CFA_def_cfa_offset: 48
  DW_CFA_advance_loc: 1 to 0000000000418210
  DW_CFA_restore: r6 (rbp)
  DW_CFA_def_cfa_offset: 40
  DW_CFA_advance_loc: 2 to 0000000000418212
  DW_CFA_restore: r12 (r12)
  DW_CFA_def_cfa_offset: 32
  DW_CFA_advance_loc: 2 to 0000000000418214
  DW_CFA_restore: r13 (r13)
  DW_CFA_def_cfa_offset: 24
  DW_CFA_advance_loc: 2 to 0000000000418216
  DW_CFA_restore: r14 (r14)
  DW_CFA_def_cfa_offset: 16
  DW_CFA_advance_loc: 2 to 0000000000418218
  DW_CFA_restore: r15 (r15)
  DW_CFA_def_cfa_offset: 8
  DW_CFA_advance_loc: 8 to 0000000000418220
  DW_CFA_restore_state
  DW_CFA_advance_loc2: 1332 to 0000000000418754
  DW_CFA_def_cfa_offset: 8
  DW_CFA_restore: r3 (rbx)
  DW_CFA_restore: r6 (rbp)
  DW_CFA_restore: r12 (r12)
  DW_CFA_restore: r13 (r13)
  DW_CFA_restore: r14 (r14)
  DW_CFA_restore: r15 (r15)
  DW_CFA_advance_loc1: 67 to 0000000000418797
  DW_CFA_def_cfa_offset: 160
  DW_CFA_offset: r3 (rbx) at cfa-56
  DW_CFA_offset: r6 (rbp) at cfa-48
  DW_CFA_offset: r12 (r12) at cfa-40
  DW_CFA_offset: r13 (r13) at cfa-32
  DW_CFA_offset: r14 (r14) at cfa-24
  DW_CFA_offset: r15 (r15) at cfa-16
  DW_CFA_advance_loc2: 642 to 0000000000418a19
  DW_CFA_def_cfa_offset: 8
  DW_CFA_restore: r3 (rbx)
  DW_CFA_restore: r6 (rbp)
  DW_CFA_restore: r12 (r12)
  DW_CFA_restore: r13 (r13)
  DW_CFA_restore: r14 (r14)
  DW_CFA_restore: r15 (r15)
  DW_CFA_advance_loc: 22 to 0000000000418a2f
  DW_CFA_def_cfa_offset: 160
  DW_CFA_offset: r3 (rbx) at cfa-56
  DW_CFA_offset: r6 (rbp) at cfa-48
  DW_CFA_offset: r12 (r12) at cfa-40
  DW_CFA_offset: r13 (r13) at cfa-32
  DW_CFA_offset: r14 (r14) at cfa-24
  DW_CFA_offset: r15 (r15) at cfa-16
  DW_CFA_nop
  DW_CFA_nop
  DW_CFA_nop
  DW_CFA_nop
  DW_CFA_nop
  DW_CFA_nop

00002770 000000000000003c 00002744 FDE cie=00000030 pc=0000000000418ab0..0000000000418bc9
  DW_CFA_advance_loc: 2 to 0000000000418ab2
  DW_CFA_def_cfa_offset: 16
  DW_CFA_offset: r12 (r12) at cfa-16
  DW_CFA_advance_loc: 1 to 0000000000418ab3
  DW_CFA_def_cfa_offset: 24
  DW_CFA_offset: r6 (rbp) at cfa-24
  DW_CFA_advance_loc: 4 to 0000000000418ab7
  DW_CFA_def_cfa_offset: 32
  DW_CFA_offset: r3 (rbx) at cfa-32
  DW_CFA_advance_loc1: 208 to 0000000000418b87
  DW_CFA_remember_state
  DW_CFA_def_cfa_offset: 24
  DW_CFA_advance_loc: 1 to 0000000000418b88
  DW_CFA_def_cfa_offset: 16
  DW_CFA_advance_loc: 2 to 0000000000418b8a
  DW_CFA_def_cfa_offset: 8
  DW_CFA_advance_loc: 1 to 0000000000418b8b
  DW_CFA_restore_state
  DW_CFA_advance_loc: 10 to 0000000000418b95
  DW_CFA_remember_state
  DW_CFA_def_cfa_offset: 24
  DW_CFA_advance_loc: 30 to 0000000000418bb3
  DW_CFA_def_cfa_offset: 16
  DW_CFA_advance_loc: 7 to 0000000000418bba
  DW_CFA_def_cfa_offset: 8
  DW_CFA_advance_loc: 1 to 0000000000418bbb
  DW_CFA_restore_state
  DW_CFA_nop
  DW_CFA_nop
  DW_CFA_nop
  DW_CFA_nop
  DW_CFA_nop
  DW_CFA_nop
  DW_CFA_nop

000027b0 000000000000007c 00002784 FDE cie=00000030 pc=0000000000418bd0..00000000004199ab
  DW_CFA_advance_loc: 11 to 0000000000418bdb
  DW_CFA_def_cfa_offset: 16
  DW_CFA_offset: r15 (r15) at cfa-16
  DW_CFA_advance_loc: 2 to 0000000000418bdd
  DW_CFA_def_cfa_offset: 24
  DW_CFA_offset: r14 (r14) at cfa-24
  DW_CFA_advance_loc: 5 to 0000000000418be2
  DW_CFA_def_cfa_offset: 32
  DW_CFA_offset: r13 (r13) at cfa-32
  DW_CFA_advance_loc: 2 to 0000000000418be4
  DW_CFA_def_cfa_offset: 40
  DW_CFA_offset: r12 (r12) at cfa-40
  DW_CFA_advance_loc: 6 to 0000000000418bea
  DW_CFA_def_cfa_offset: 48
  DW_CFA_offset: r6 (rbp) at cfa-48
  DW_CFA_advance_loc: 1 to 0000000000418beb
  DW_CFA_def_cfa_offset: 56
  DW_CFA_offset: r3 (rbx) at cfa-56
  DW_CFA_advance_loc: 6 to 0000000000418bf1
  DW_CFA_def_cfa_offset: 112
  DW_CFA_advance_loc: 44 to 0000000000418c1d
  DW_CFA_def_cfa_offset: 240
  DW_CFA_advance_loc: 12 to 0000000000418c29
  DW_CFA_def_cfa_offset: 112
  DW_CFA_advance_loc2: 937 to 0000000000418fd2
  DW_CFA_def_cfa_offset: 240
  DW_CFA_advance_loc: 12 to 0000000000418fde
  DW_CFA_def_cfa_offset: 112
  DW_CFA_advance_loc: 12 to 0000000000418fea
  DW_CFA_def_cfa_offset: 56
  DW_CFA_advance_loc: 1 to 0000000000418feb
  DW_CFA_restore: r3 (rbx)
  DW_CFA_def_cfa_offset: 48
  DW_CFA_advance_loc: 1 to 0000000000418fec
  DW_CFA_restore: r6 (rbp)
  DW_CFA_def_cfa_offset: 40
  DW_CFA_advance_loc: 2 to 0000000000418fee
  DW_CFA_restore: r12 (r12)
  DW_CFA_def_cfa_offset: 32
  DW_CFA_advance_loc: 2 to 0000000000418ff0
  DW_CFA_restore: r13 (r13)
  DW_CFA_def_cfa_offset: 24
  DW_CFA_advance_loc: 2 to 0000000000418ff2
  DW_CFA_restore: r14 (r14)
  DW_CFA_def_cfa_offset: 16
  DW_CFA_advance_loc: 2 to 0000000000418ff4
  DW_CFA_restore: r15 (r15)
  DW_CFA_def_cfa_offset: 8
  DW_CFA_advance_loc: 12 to 0000000000419000
  DW_CFA_def_cfa_offset: 112
  DW_CFA_offset: r3 (rbx) at cfa-56
  DW_CFA_offset: r6 (rbp) at cfa-48
  DW_CFA_offset: r12 (r12) at cfa-40
  DW_CFA_offset: r13 (r13) at cfa-32
  DW_CFA_offset: r14 (r14) at cfa-24
  DW_CFA_offset: r15 (r15) at cfa-16
  DW_CFA_advance_loc1: 146 to 0000000000419092
  DW_CFA_def_cfa_offset: 240
  DW_CFA_advance_loc: 12 to 000000000041909e
  DW_CFA_def_cfa_offset: 112
  DW_CFA_advance_loc2: 412 to 000000000041923a
  DW_CFA_def_cfa_offset: 240
  DW_CFA_advance_loc: 12 to 0000000000419246
  DW_CFA_def_cfa_offset: 112
  DW_CFA_nop
  DW_CFA_nop
  DW_CFA_nop

00002830 0000000000000094 00002804 FDE cie=00000030 pc=00000000004199b0..000000000041ae1c
  DW_CFA_advance_loc: 2 to 00000000004199b2
  DW_CFA_def_cfa_offset: 16
  DW_CFA_offset: r15 (r15) at cfa-16
  DW_CFA_advance_loc: 2 to 00000000004199b4
  DW_CFA_def_cfa_offset: 24
  DW_CFA_offset: r14 (r14) at cfa-24
  DW_CFA_advance_loc: 2 to 00000000004199b6
  DW_CFA_def_cfa_offset: 32
  DW_CFA_offset: r13 (r13) at cfa-32
  DW_CFA_advance_loc: 2 to 00000000004199b8
  DW_CFA_def_cfa_offset: 40
  DW_CFA_offset: r12 (r12) at cfa-40
  DW_CFA_advance_loc: 1 to 00000000004199b9
  DW_CFA_def_cfa_offset: 48
  DW_CFA_offset: r6 (rbp) at cfa-48
  DW_CFA_advance_loc: 1 to 00000000004199ba
  DW_CFA_def_cfa_offset: 56
  DW_CFA_offset: r3 (rbx) at cfa-56
  DW_CFA_advance_loc: 10 to 00000000004199c4
  DW_CFA_def_cfa_offset: 144
  DW_CFA_advance_loc2: 315 to 0000000000419aff
  DW_CFA_remember_state
  DW_CFA_def_cfa_offset: 56
  DW_CFA_advance_loc: 1 to 0000000000419b00
  DW_CFA_def_cfa_offset: 48
  DW_CFA_advance_loc: 1 to 0000000000419b01
  DW_CFA_def_cfa_offset: 40
  DW_CFA_advance_loc: 2 to 0000000000419b03
  DW_CFA_def_cfa_offset: 32
  DW_CFA_advance_loc: 2 to 0000000000419b05
  DW_CFA_def_cfa_offset: 24
  DW_CFA_advance_loc: 2 to 0000000000419b07
  DW_CFA_def_cfa_offset: 16
  DW_CFA_advance_loc: 2 to 0000000000419b09
  DW_CFA_def_cfa_offset: 8
  DW_CFA_advance_loc: 7 to 0000000000419b10
  DW_CFA_restore_state
  DW_CFA_advance_loc2: 1000 to 0000000000419ef8
  DW_CFA_def_cfa_offset: 272
  DW_CFA_advance_loc: 12 to 0000000000419f04
  DW_CFA_def_cfa_offset: 144
  DW_CFA_advance_loc1: 182 to 0000000000419fba
  DW_CFA_remember_state
  DW_CFA_def_cfa_offset: 56
  DW_CFA_advance_loc: 1 to 0000000000419fbb
  DW_CFA_def_cfa_offset: 48
  DW_CFA_advance_loc: 1 to 0000000000419fbc
  DW_CFA_def_cfa_offset: 40
  DW_CFA_advance_loc: 2 to 0000000000419fbe
  DW_CFA_def_cfa_offset: 32
  DW_CFA_advance_loc: 2 to 0000000000419fc0
  DW_CFA_def_cfa_offset: 24
  DW_CFA_advance_loc: 2 to 0000000000419fc2
  DW_CFA_def_cfa_offset: 16
  DW_CFA_advance_loc: 2 to 0000000000419fc4
  DW_CFA_def_cfa_offset: 8
  DW_CFA_advance_loc: 4 to 0000000000419fc8
  DW_CFA_restore_state
  DW_CFA_advance_loc1: 225 to 000000000041a0a9
  DW_CFA_def_cfa_offset: 272
  DW_CFA_advance_loc: 12 to 000000000041a0b5
  DW_CFA_def_cfa_offset: 144
  DW_CFA_advance_loc2: 325 to 000000000041a1fa
  DW_CFA_def_cfa_offset: 272
  DW_CFA_advance_loc: 12 to 000000000041a206
  DW_CFA_def_cfa_offset: 144
  DW_CFA_advance_loc1: 64 to 000000000041a246
  DW_CFA_def_cfa_offset: 272
  DW_CFA_advance_loc: 12 to 000000000041a252
  DW_CFA_def_cfa_offset: 144
  DW_CFA_advance_loc2: 396 to 000000000041a3de
  DW_CFA_def_cfa_offset: 272
  DW_CFA_advance_loc: 12 to 000000000041a3ea
  DW_CFA_def_cfa_offset: 144
  DW_CFA_nop
  DW_CFA_nop

000028c8 000000000000004c 0000289c FDE cie=00000030 pc=000000000041ae20..000000000041b72d
  DW_CFA_advance_loc: 2 to 000000000041ae22
  DW_CFA_def_cfa_offset: 16
  DW_CFA_offset: r15 (r15) at cfa-16
  DW_CFA_advance_loc: 2 to 000000000041ae24
  DW_CFA_def_cfa_offset: 24
  DW_CFA_offset: r14 (r14) at cfa-24
  DW_CFA_advance_loc: 2 to 000000000041ae26
  DW_CFA_def_cfa_offset: 32
  DW_CFA_offset: r13 (r13) at cfa-32
  DW_CFA_advance_loc: 2 to 000000000041ae28
  DW_CFA_def_cfa_offset: 40
  DW_CFA_offset: r12 (r12) at cfa-40
  DW_CFA_advance_loc: 1 to 000000000041ae29
  DW_CFA_def_cfa_offset: 48
  DW_CFA_offset: r6 (rbp) at cfa-48
  DW_CFA_advance_loc: 1 to 000000000041ae2a
  DW_CFA_def_cfa_offset: 56
  DW_CFA_offset: r3 (rbx) at cfa-56
  DW_CFA_advance_loc: 7 to 000000000041ae31
  DW_CFA_def_cfa_offset: 144
  DW_CFA_advance_loc2: 365 to 000000000041af9e
  DW_CFA_remember_state
  DW_CFA_def_cfa_offset: 56
  DW_CFA_advance_loc: 4 to 000000000041afa2
  DW_CFA_def_cfa_offset: 48
  DW_CFA_advance_loc: 1 to 000000000041afa3
  DW_CFA_def_cfa_offset: 40
  DW_CFA_advance_loc: 2 to 000000000041afa5
  DW_CFA_def_cfa_offset: 32
  DW_CFA_advance_loc: 2 to 000000000041afa7
  DW_CFA_def_cfa_offset: 24
  DW_CFA_advance_loc: 2 to 000000000041afa9
  DW_CFA_def_cfa_offset: 16
  DW_CFA_advance_loc: 2 to 000000000041afab
  DW_CFA_def_cfa_offset: 8
  DW_CFA_advance_loc: 5 to 000000000041afb0
  DW_CFA_restore_state
  DW_CFA_nop
  DW_CFA_nop
  DW_CFA_nop

00002918 000000000000006c 000028ec FDE cie=00000030 pc=000000000041b730..000000000041c6f7
  DW_CFA_advance_loc: 15 to 000000000041b73f
  DW_CFA_def_cfa_offset: 16
  DW_CFA_offset: r15 (r15) at cfa-16
  DW_CFA_advance_loc: 2 to 000000000041b741
  DW_CFA_def_cfa_offset: 24
  DW_CFA_offset: r14 (r14) at cfa-24
  DW_CFA_advance_loc: 6 to 000000000041b747
  DW_CFA_def_cfa_offset: 32
  DW_CFA_offset: r13 (r13) at cfa-32
  DW_CFA_advance_loc: 2 to 000000000041b749
  DW_CFA_def_cfa_offset: 40
  DW_CFA_offset: r12 (r12) at cfa-40
  DW_CFA_advance_loc: 1 to 000000000041b74a
  DW_CFA_def_cfa_offset: 48
  DW_CFA_offset: r6 (rbp) at cfa-48
  DW_CFA_advance_loc: 1 to 000000000041b74b
  DW_CFA_def_cfa_offset: 56
  DW_CFA_offset: r3 (rbx) at cfa-56
  DW_CFA_advance_loc: 17 to 000000000041b75c
  DW_CFA_def_cfa_offset: 208
  DW_CFA_advance_loc2: 757 to 000000000041ba51
  DW_CFA_remember_state
  DW_CFA_def_cfa_offset: 56
  DW_CFA_advance_loc: 4 to 000000000041ba55
  DW_CFA_restore: r3 (rbx)
  DW_CFA_def_cfa_offset: 48
  DW_CFA_advance_loc: 1 to 000000000041ba56
  DW_CFA_restore: r6 (rbp)
  DW_CFA_def_cfa_offset: 40
  DW_CFA_advance_loc: 2 to 000000000041ba58
  DW_CFA_restore: r12 (r12)
  DW_CFA_def_cfa_offset: 32
  DW_CFA_advance_loc: 2 to 000000000041ba5a
  DW_CFA_restore: r13 (r13)
  DW_CFA_def_cfa_offset: 24
  DW_CFA_advance_loc: 2 to 000000000041ba5c
  DW_CFA_restore: r14 (r14)
  DW_CFA_def_cfa_offset: 16
  DW_CFA_advance_loc: 2 to 000000000041ba5e
  DW_CFA_restore: r15 (r15)
  DW_CFA_def_cfa_offset: 8
  DW_CFA_advance_loc: 2 to 000000000041ba60
  DW_CFA_restore_state
  DW_CFA_advance_loc2: 1341 to 000000000041bf9d
  DW_CFA_def_cfa_offset: 8
  DW_CFA_restore: r3 (rbx)
  DW_CFA_restore: r6 (rbp)
  DW_CFA_restore: r12 (r12)
  DW_CFA_restore: r13 (r13)
  DW_CFA_restore: r14 (r14)
  DW_CFA_restore: r15 (r15)
  DW_CFA_advance_loc: 20 to 000000000041bfb1
  DW_CFA_def_cfa_offset: 208
  DW_CFA_offset: r3 (rbx) at cfa-56
  DW_CFA_offset: r6 (rbp) at cfa-48
  DW_CFA_offset: r12 (r12) at cfa-40
  DW_CFA_offset: r13 (r13) at cfa-32
  DW_CFA_offset: r14 (r14) at cfa-24
  DW_CFA_offset: r15 (r15) at cfa-16
  DW_CFA_nop
  DW_CFA_nop

00002988 0000000000000064 0000295c FDE cie=00000030 pc=000000000041c700..000000000041c910
  DW_CFA_advance_loc: 16 to 000000000041c710
  DW_CFA_def_cfa_offset: 16
  DW_CFA_offset: r14 (r14) at cfa-16
  DW_CFA_advance_loc: 2 to 000000000041c712
  DW_CFA_def_cfa_offset: 24
  DW_CFA_offset: r13 (r13) at cfa-24
  DW_CFA_advance_loc: 2 to 000000000041c714
  DW_CFA_def_cfa_offset: 32
  DW_CFA_offset: r12 (r12) at cfa-32
  DW_CFA_advance_loc: 1 to 000000000041c715
  DW_CFA_def_cfa_offset: 40
  DW_CFA_offset: r6 (rbp) at cfa-40
  DW_CFA_advance_loc: 21 to 000000000041c72a
  DW_CFA_def_cfa_offset: 48
  DW_CFA_offset: r3 (rbx) at cfa-48
  DW_CFA_advance_loc1: 234 to 000000000041c814
  DW_CFA_remember_state
  DW_CFA_restore: r3 (rbx)
  DW_CFA_def_cfa_offset: 40
  DW_CFA_advance_loc: 1 to 000000000041c815
  DW_CFA_restore: r6 (rbp)
  DW_CFA_def_cfa_offset: 32
  DW_CFA_advance_loc: 2 to 000000000041c817
  DW_CFA_restore: r12 (r12)
  DW_CFA_def_cfa_offset: 24
  DW_CFA_advance_loc: 2 to 000000000041c819
  DW_CFA_restore: r13 (r13)
  DW_CFA_def_cfa_offset: 16
  DW_CFA_advance_loc: 2 to 000000000041c81b
  DW_CFA_restore: r14 (r14)
  DW_CFA_def_cfa_offset: 8
  DW_CFA_advance_loc: 5 to 000000000041c820
  DW_CFA_restore_state
  DW_CFA_advance_loc1: 127 to 000000000041c89f
  DW_CFA_restore: r3 (rbx)
  DW_CFA_def_cfa_offset: 40
  DW_CFA_advance_loc: 1 to 000000000041c8a0
  DW_CFA_restore: r6 (rbp)
  DW_CFA_def_cfa_offset: 32
  DW_CFA_advance_loc: 2 to 000000000041c8a2
  DW_CFA_restore: r12 (r12)
  DW_CFA_def_cfa_offset: 24
  DW_CFA_advance_loc: 2 to 000000000041c8a4
  DW_CFA_restore: r13 (r13)
  DW_CFA_def_cfa_offset: 16
  DW_CFA_advance_loc: 2 to 000000000041c8a6
  DW_CFA_restore: r14 (r14)
  DW_CFA_def_cfa_offset: 8
  DW_CFA_advance_loc: 34 to 000000000041c8c8
  DW_CFA_def_cfa_offset: 48
  DW_CFA_offset: r3 (rbx) at cfa-48
  DW_CFA_offset: r6 (rbp) at cfa-40
  DW_CFA_offset: r12 (r12) at cfa-32
  DW_CFA_offset: r13 (r13) at cfa-24
  DW_CFA_offset: r14 (r14) at cfa-16
  DW_CFA_nop
  DW_CFA_nop
  DW_CFA_nop
  DW_CFA_nop

000029f0 0000000000000034 000029c4 FDE cie=00000030 pc=000000000041c910..000000000041ca5c
  DW_CFA_advance_loc: 11 to 000000000041c91b
  DW_CFA_def_cfa_offset: 16
  DW_CFA_offset: r3 (rbx) at cfa-16
  DW_CFA_advance_loc: 54 to 000000000041c951
  DW_CFA_def_cfa_offset: 144
  DW_CFA_advance_loc: 12 to 000000000041c95d
  DW_CFA_def_cfa_offset: 16
  DW_CFA_advance_loc1: 71 to 000000000041c9a4
  DW_CFA_def_cfa_offset: 144
  DW_CFA_advance_loc: 12 to 000000000041c9b0
  DW_CFA_def_cfa_offset: 16
  DW_CFA_advance_loc1: 136 to 000000000041ca38
  DW_CFA_restore: r3 (rbx)
  DW_CFA_def_cfa_offset: 8
  DW_CFA_advance_loc: 32 to 000000000041ca58
  DW_CFA_def_cfa_offset: 16
  DW_CFA_offset: r3 (rbx) at cfa-16
  DW_CFA_advance_loc: 3 to 000000000041ca5b
  DW_CFA_restore: r3 (rbx)
  DW_CFA_def_cfa_offset: 8
  DW_CFA_nop
  DW_CFA_nop
  DW_CFA_nop
  DW_CFA_nop
  DW_CFA_nop

00002a28 0000000000000044 000029fc FDE cie=00000030 pc=000000000041ca60..000000000041cc4f
  DW_CFA_advance_loc: 1 to 000000000041ca61
  DW_CFA_def_cfa_offset: 16
  DW_CFA_offset: r6 (rbp) at cfa-16
  DW_CFA_advance_loc: 1 to 000000000041ca62
  DW_CFA_def_cfa_offset: 24
  DW_CFA_offset: r3 (rbx) at cfa-24
  DW_CFA_advance_loc: 7 to 000000000041ca69
  DW_CFA_def_cfa_offset: 32
  DW_CFA_advance_loc1: 86 to 000000000041cabf
  DW_CFA_def_cfa_offset: 160
  DW_CFA_advance_loc: 12 to 000000000041cacb
  DW_CFA_def_cfa_offset: 32
  DW_CFA_advance_loc1: 74 to 000000000041cb15
  DW_CFA_def_cfa_offset: 160
  DW_CFA_advance_loc: 12 to 000000000041cb21
  DW_CFA_def_cfa_offset: 32
  DW_CFA_advance_loc1: 138 to 000000000041cbab
  DW_CFA_remember_state
  DW_CFA_def_cfa_offset: 24
  DW_CFA_advance_loc: 1 to 000000000041cbac
  DW_CFA_def_cfa_offset: 16
  DW_CFA_advance_loc: 1 to 000000000041cbad
  DW_CFA_def_cfa_offset: 8
  DW_CFA_advance_loc: 3 to 000000000041cbb0
  DW_CFA_restore_state
  DW_CFA_advance_loc1: 84 to 000000000041cc04
  DW_CFA_remember_state
  DW_CFA_def_cfa_offset: 24
  DW_CFA_advance_loc: 6 to 000000000041cc0a
  DW_CFA_def_cfa_offset: 16
  DW_CFA_advance_loc: 1 to 000000000041cc0b
  DW_CFA_def_cfa_offset: 8
  DW_CFA_advance_loc: 5 to 000000000041cc10
  DW_CFA_restore_state

00002a70 000000000000007c 00002a44 FDE cie=00000030 pc=000000000041cc50..000000000041d361
  DW_CFA_advance_loc: 2 to 000000000041cc52
  DW_CFA_def_cfa_offset: 16
  DW_CFA_offset: r15 (r15) at cfa-16
  DW_CFA_advance_loc: 2 to 000000000041cc54
  DW_CFA_def_cfa_offset: 24
  DW_CFA_offset: r14 (r14) at cfa-24
  DW_CFA_advance_loc: 2 to 000000000041cc56
  DW_CFA_def_cfa_offset: 32
  DW_CFA_offset: r13 (r13) at cfa-32
  DW_CFA_advance_loc: 2 to 000000000041cc58
  DW_CFA_def_cfa_offset: 40
  DW_CFA_offset: r12 (r12) at cfa-40
  DW_CFA_advance_loc: 4 to 000000000041cc5c
  DW_CFA_def_cfa_offset: 48
  DW_CFA_offset: r6 (rbp) at cfa-48
  DW_CFA_advance_loc: 1 to 000000000041cc5d
  DW_CFA_def_cfa_offset: 56
  DW_CFA_offset: r3 (rbx) at cfa-56
  DW_CFA_advance_loc: 10 to 000000000041cc67
  DW_CFA_def_cfa_offset: 128
  DW_CFA_advance_loc1: 141 to 000000000041ccf4
  DW_CFA_remember_state
  DW_CFA_def_cfa_offset: 56
  DW_CFA_advance_loc: 1 to 000000000041ccf5
  DW_CFA_def_cfa_offset: 48
  DW_CFA_advance_loc: 1 to 000000000041ccf6
  DW_CFA_def_cfa_offset: 40
  DW_CFA_advance_loc: 2 to 000000000041ccf8
  DW_CFA_def_cfa_offset: 32
  DW_CFA_advance_loc: 2 to 000000000041ccfa
  DW_CFA_def_cfa_offset: 24
  DW_CFA_advance_loc: 2 to 000000000041ccfc
  DW_CFA_def_cfa_offset: 16
  DW_CFA_advance_loc: 2 to 000000000041ccfe
  DW_CFA_def_cfa_offset: 8
  DW_CFA_advance_loc: 2 to 000000000041cd00
  DW_CFA_restore_state
  DW_CFA_advance_loc2: 356 to 000000000041ce64
  DW_CFA_remember_state
  DW_CFA_def_cfa_offset: 56
  DW_CFA_advance_loc: 4 to 000000000041ce68
  DW_CFA_def_cfa_offset: 48
  DW_CFA_advance_loc: 1 to 000000000041ce69
  DW_CFA_def_cfa_offset: 40
  DW_CFA_advance_loc: 2 to 000000000041ce6b
  DW_CFA_def_cfa_offset: 32
  DW_CFA_advance_loc: 2 to 000000000041ce6d
  DW_CFA_def_cfa_offset: 24
  DW_CFA_advance_loc: 2 to 000000000041ce6f
  DW_CFA_def_cfa_offset: 16
  DW_CFA_advance_loc: 2 to 000000000041ce71
  DW_CFA_def_cfa_offset: 8
  DW_CFA_advance_loc: 7 to 000000000041ce78
  DW_CFA_restore_state
  DW_CFA_advance_loc1: 71 to 000000000041cebf
  DW_CFA_remember_state
  DW_CFA_def_cfa_offset: 56
  DW_CFA_advance_loc: 3 to 000000000041cec2
  DW_CFA_def_cfa_offset: 48
  DW_CFA_advance_loc: 1 to 000000000041cec3
  DW_CFA_def_cfa_offset: 40
  DW_CFA_advance_loc: 2 to 000000000041cec5
  DW_CFA_def_cfa_offset: 32
  DW_CFA_advance_loc: 2 to 000000000041cec7
  DW_CFA_def_cfa_offset: 24
  DW_CFA_advance_loc: 2 to 000000000041cec9
  DW_CFA_def_cfa_offset: 16
  DW_CFA_advance_loc: 2 to 000000000041cecb
  DW_CFA_def_cfa_offset: 8
  DW_CFA_advance_loc: 5 to 000000000041ced0
  DW_CFA_restore_state
  DW_CFA_nop

00002af0 000000000000008c 00002ac4 FDE cie=00000030 pc=000000000041d370..000000000041d9bc
  DW_CFA_advance_loc: 2 to 000000000041d372
  DW_CFA_def_cfa_offset: 16
  DW_CFA_offset: r15 (r15) at cfa-16
  DW_CFA_advance_loc: 2 to 000000000041d374
  DW_CFA_def_cfa_offset: 24
  DW_CFA_offset: r14 (r14) at cfa-24
  DW_CFA_advance_loc: 2 to 000000000041d376
  DW_CFA_def_cfa_offset: 32
  DW_CFA_offset: r13 (r13) at cfa-32
  DW_CFA_advance_loc: 2 to 000000000041d378
  DW_CFA_def_cfa_offset: 40
  DW_CFA_offset: r12 (r12) at cfa-40
  DW_CFA_advance_loc: 1 to 000000000041d379
  DW_CFA_def_cfa_offset: 48
  DW_CFA_offset: r6 (rbp) at cfa-48
  DW_CFA_advance_loc: 1 to 000000000041d37a
  DW_CFA_def_cfa_offset: 56
  DW_CFA_offset: r3 (rbx) at cfa-56
  DW_CFA_advance_loc: 4 to 000000000041d37e
  DW_CFA_def_cfa_offset: 128
  DW_CFA_advance_loc1: 85 to 000000000041d3d3
  DW_CFA_def_cfa_offset: 256
  DW_CFA_advance_loc: 12 to 000000000041d3df
  DW_CFA_def_cfa_offset: 128
  DW_CFA_advance_loc2: 366 to 000000000041d54d
  DW_CFA_def_cfa_offset: 256
  DW_CFA_advance_loc: 12 to 000000000041d559
  DW_CFA_def_cfa_offset: 128
  DW_CFA_advance_loc1: 115 to 000000000041d5cc
  DW_CFA_def_cfa_offset: 256
  DW_CFA_advance_loc: 12 to 000000000041d5d8
  DW_CFA_def_cfa_offset: 128
  DW_CFA_advance_loc1: 115 to 000000000041d64b
  DW_CFA_def_cfa_offset: 256
  DW_CFA_advance_loc: 12 to 000000000041d657
  DW_CFA_def_cfa_offset: 128
  DW_CFA_advance_loc1: 141 to 000000000041d6e4
  DW_CFA_remember_state
  DW_CFA_def_cfa_offset: 56
  DW_CFA_advance_loc: 1 to 000000000041d6e5
  DW_CFA_def_cfa_offset: 48
  DW_CFA_advance_loc: 1 to 000000000041d6e6
  DW_CFA_def_cfa_offset: 40
  DW_CFA_advance_loc: 2 to 000000000041d6e8
  DW_CFA_def_cfa_offset: 32
  DW_CFA_advance_loc: 2 to 000000000041d6ea
  DW_CFA_def_cfa_offset: 24
  DW_CFA_advance_loc: 2 to 000000000041d6ec
  DW_CFA_def_cfa_offset: 16
  DW_CFA_advance_loc: 2 to 000000000041d6ee
  DW_CFA_def_cfa_offset: 8
  DW_CFA_advance_loc: 2 to 000000000041d6f0
  DW_CFA_restore_state
  DW_CFA_advance_loc2: 322 to 000000000041d832
  DW_CFA_remember_state
  DW_CFA_def_cfa_offset: 56
  DW_CFA_advance_loc: 3 to 000000000041d835
  DW_CFA_def_cfa_offset: 48
  DW_CFA_advance_loc: 1 to 000000000041d836
  DW_CFA_def_cfa_offset: 40
  DW_CFA_advance_loc: 2 to 000000000041d838
  DW_CFA_def_cfa_offset: 32
  DW_CFA_advance_loc: 2 to 000000000041d83a
  DW_CFA_def_cfa_offset: 24
  DW_CFA_advance_loc: 2 to 000000000041d83c
  DW_CFA_def_cfa_offset: 16
  DW_CFA_advance_loc: 2 to 000000000041d83e
  DW_CFA_def_cfa_offset: 8
  DW_CFA_advance_loc: 2 to 000000000041d840
  DW_CFA_restore_state
  DW_CFA_nop
  DW_CFA_nop
  DW_CFA_nop
  DW_CFA_nop
  DW_CFA_nop

00002b80 000000000000001c 00002b54 FDE cie=00000030 pc=000000000041d9c0..000000000041da64
  DW_CFA_advance_loc1: 65 to 000000000041da01
  DW_CFA_def_cfa_offset: 136
  DW_CFA_advance_loc: 12 to 000000000041da0d
  DW_CFA_def_cfa_offset: 8
  DW_CFA_advance_loc: 57 to 000000000041da46
  DW_CFA_def_cfa_offset: 136
  DW_CFA_advance_loc: 12 to 000000000041da52
  DW_CFA_def_cfa_offset: 8

00002ba0 000000000000001c 00002b74 FDE cie=00000030 pc=000000000041da70..000000000041daf2
  DW_CFA_advance_loc: 46 to 000000000041da9e
  DW_CFA_def_cfa_offset: 136
  DW_CFA_advance_loc: 12 to 000000000041daaa
  DW_CFA_def_cfa_offset: 8
  DW_CFA_advance_loc: 58 to 000000000041dae4
  DW_CFA_def_cfa_offset: 136
  DW_CFA_advance_loc: 12 to 000000000041daf0
  DW_CFA_def_cfa_offset: 8
  DW_CFA_nop

00002bc0 0000000000000014 00002b94 FDE cie=00000030 pc=000000000041db00..000000000041db9e
  DW_CFA_nop
  DW_CFA_nop
  DW_CFA_nop
  DW_CFA_nop
  DW_CFA_nop
  DW_CFA_nop
  DW_CFA_nop

00002bd8 0000000000000014 00002bac FDE cie=00000030 pc=000000000041dba0..000000000041dbf3
  DW_CFA_nop
  DW_CFA_nop
  DW_CFA_nop
  DW_CFA_nop
  DW_CFA_nop
  DW_CFA_nop
  DW_CFA_nop

00002bf0 0000000000000044 00002bc4 FDE cie=00000030 pc=000000000041dc00..000000000041dd88
  DW_CFA_advance_loc: 1 to 000000000041dc01
  DW_CFA_def_cfa_offset: 16
  DW_CFA_offset: r6 (rbp) at cfa-16
  DW_CFA_advance_loc: 1 to 000000000041dc02
  DW_CFA_def_cfa_offset: 24
  DW_CFA_offset: r3 (rbx) at cfa-24
  DW_CFA_advance_loc: 4 to 000000000041dc06
  DW_CFA_def_cfa_offset: 32
  DW_CFA_advance_loc1: 117 to 000000000041dc7b
  DW_CFA_def_cfa_offset: 160
  DW_CFA_advance_loc: 12 to 000000000041dc87
  DW_CFA_def_cfa_offset: 32
  DW_CFA_advance_loc: 55 to 000000000041dcbe
  DW_CFA_remember_state
  DW_CFA_def_cfa_offset: 24
  DW_CFA_advance_loc: 1 to 000000000041dcbf
  DW_CFA_def_cfa_offset: 16
  DW_CFA_advance_loc: 1 to 000000000041dcc0
  DW_CFA_def_cfa_offset: 8
  DW_CFA_advance_loc: 8 to 000000000041dcc8
  DW_CFA_restore_state
  DW_CFA_advance_loc: 37 to 000000000041dced
  DW_CFA_def_cfa_offset: 160
  DW_CFA_advance_loc: 12 to 000000000041dcf9
  DW_CFA_def_cfa_offset: 32
  DW_CFA_advance_loc1: 104 to 000000000041dd61
  DW_CFA_remember_state
  DW_CFA_def_cfa_offset: 24
  DW_CFA_advance_loc: 1 to 000000000041dd62
  DW_CFA_def_cfa_offset: 16
  DW_CFA_advance_loc: 1 to 000000000041dd63
  DW_CFA_def_cfa_offset: 8
  DW_CFA_advance_loc: 5 to 000000000041dd68
  DW_CFA_restore_state
  DW_CFA_nop
  DW_CFA_nop

00002c38 000000000000002c 00002c0c FDE cie=00000030 pc=000000000041dd90..000000000041df9d
  DW_CFA_advance_loc: 1 to 000000000041dd91
  DW_CFA_def_cfa_offset: 16
  DW_CFA_offset: r3 (rbx) at cfa-16
  DW_CFA_advance_loc1: 73 to 000000000041ddda
  DW_CFA_def_cfa_offset: 144
  DW_CFA_advance_loc: 12 to 000000000041dde6
  DW_CFA_def_cfa_offset: 16
  DW_CFA_advance_loc2: 418 to 000000000041df88
  DW_CFA_def_cfa_offset: 144
  DW_CFA_advance_loc: 12 to 000000000041df94
  DW_CFA_def_cfa_offset: 16
  DW_CFA_advance_loc: 4 to 000000000041df98
  DW_CFA_remember_state
  DW_CFA_def_cfa_offset: 8
  DW_CFA_advance_loc: 1 to 000000000041df99
  DW_CFA_restore_state
  DW_CFA_advance_loc: 3 to 000000000041df9c
  DW_CFA_def_cfa_offset: 8

00002c68 000000000000005c 00002c3c FDE cie=00000030 pc=000000000041dfa0..000000000041e152
  DW_CFA_advance_loc: 2 to 000000000041dfa2
  DW_CFA_def_cfa_offset: 16
  DW_CFA_offset: r13 (r13) at cfa-16
  DW_CFA_advance_loc: 2 to 000000000041dfa4
  DW_CFA_def_cfa_offset: 24
  DW_CFA_offset: r12 (r12) at cfa-24
  DW_CFA_advance_loc: 1 to 000000000041dfa5
  DW_CFA_def_cfa_offset: 32
  DW_CFA_offset: r6 (rbp) at cfa-32
  DW_CFA_advance_loc: 1 to 000000000041dfa6
  DW_CFA_def_cfa_offset: 40
  DW_CFA_offset: r3 (rbx) at cfa-40
  DW_CFA_advance_loc: 4 to 000000000041dfaa
  DW_CFA_def_cfa_offset: 80
  DW_CFA_advance_loc1: 65 to 000000000041dfeb
  DW_CFA_remember_state
  DW_CFA_def_cfa_offset: 40
  DW_CFA_advance_loc: 1 to 000000000041dfec
  DW_CFA_def_cfa_offset: 32
  DW_CFA_advance_loc: 1 to 000000000041dfed
  DW_CFA_def_cfa_offset: 24
  DW_CFA_advance_loc: 2 to 000000000041dfef
  DW_CFA_def_cfa_offset: 16
  DW_CFA_advance_loc: 2 to 000000000041dff1
  DW_CFA_def_cfa_offset: 8
  DW_CFA_advance_loc: 7 to 000000000041dff8
  DW_CFA_restore_state
  DW_CFA_advance_loc1: 129 to 000000000041e079
  DW_CFA_remember_state
  DW_CFA_def_cfa_offset: 40
  DW_CFA_advance_loc: 1 to 000000000041e07a
  DW_CFA_def_cfa_offset: 32
  DW_CFA_advance_loc: 1 to 000000000041e07b
  DW_CFA_def_cfa_offset: 24
  DW_CFA_advance_loc: 2 to 000000000041e07d
  DW_CFA_def_cfa_offset: 16
  DW_CFA_advance_loc: 2 to 000000000041e07f
  DW_CFA_def_cfa_offset: 8
  DW_CFA_advance_loc: 1 to 000000000041e080
  DW_CFA_restore_state
  DW_CFA_advance_loc: 11 to 000000000041e08b
  DW_CFA_remember_state
  DW_CFA_def_cfa_offset: 40
  DW_CFA_advance_loc: 1 to 000000000041e08c
  DW_CFA_def_cfa_offset: 32
  DW_CFA_advance_loc: 1 to 000000000041e08d
  DW_CFA_def_cfa_offset: 24
  DW_CFA_advance_loc: 2 to 000000000041e08f
  DW_CFA_def_cfa_offset: 16
  DW_CFA_advance_loc: 2 to 000000000041e091
  DW_CFA_def_cfa_offset: 8
  DW_CFA_advance_loc: 7 to 000000000041e098
  DW_CFA_restore_state

00002cc8 000000000000005c 00002c9c FDE cie=00000030 pc=000000000041e160..000000000041e532
  DW_CFA_advance_loc: 2 to 000000000041e162
  DW_CFA_def_cfa_offset: 16
  DW_CFA_offset: r15 (r15) at cfa-16
  DW_CFA_advance_loc: 2 to 000000000041e164
  DW_CFA_def_cfa_offset: 24
  DW_CFA_offset: r14 (r14) at cfa-24
  DW_CFA_advance_loc: 2 to 000000000041e166
  DW_CFA_def_cfa_offset: 32
  DW_CFA_offset: r13 (r13) at cfa-32
  DW_CFA_advance_loc: 2 to 000000000041e168
  DW_CFA_def_cfa_offset: 40
  DW_CFA_offset: r12 (r12) at cfa-40
  DW_CFA_advance_loc: 4 to 000000000041e16c
  DW_CFA_def_cfa_offset: 48
  DW_CFA_offset: r6 (rbp) at cfa-48
  DW_CFA_advance_loc: 1 to 000000000041e16d
  DW_CFA_def_cfa_offset: 56
  DW_CFA_offset: r3 (rbx) at cfa-56
  DW_CFA_advance_loc: 7 to 000000000041e174
  DW_CFA_def_cfa_offset: 112
  DW_CFA_advance_loc1: 171 to 000000000041e21f
  DW_CFA_remember_state
  DW_CFA_def_cfa_offset: 56
  DW_CFA_advance_loc: 4 to 000000000041e223
  DW_CFA_def_cfa_offset: 48
  DW_CFA_advance_loc: 1 to 000000000041e224
  DW_CFA_def_cfa_offset: 40
  DW_CFA_advance_loc: 2 to 000000000041e226
  DW_CFA_def_cfa_offset: 32
  DW_CFA_advance_loc: 2 to 000000000041e228
  DW_CFA_def_cfa_offset: 24
  DW_CFA_advance_loc: 2 to 000000000041e22a
  DW_CFA_def_cfa_offset: 16
  DW_CFA_advance_loc: 2 to 000000000041e22c
  DW_CFA_def_cfa_offset: 8
  DW_CFA_advance_loc: 4 to 000000000041e230
  DW_CFA_restore_state
  DW_CFA_advance_loc1: 140 to 000000000041e2bc
  DW_CFA_def_cfa_offset: 240
  DW_CFA_advance_loc: 12 to 000000000041e2c8
  DW_CFA_def_cfa_offset: 112
  DW_CFA_advance_loc: 55 to 000000000041e2ff
  DW_CFA_def_cfa_offset: 240
  DW_CFA_advance_loc: 12 to 000000000041e30b
  DW_CFA_def_cfa_offset: 112
  DW_CFA_nop
  DW_CFA_nop
  DW_CFA_nop
  DW_CFA_nop
  DW_CFA_nop
  DW_CFA_nop

00002d28 0000000000000054 00002cfc FDE cie=00000030 pc=000000000041e540..000000000041e7a8
  DW_CFA_advance_loc: 9 to 000000000041e549
  DW_CFA_def_cfa_offset: 16
  DW_CFA_offset: r12 (r12) at cfa-16
  DW_CFA_advance_loc: 4 to 000000000041e54d
  DW_CFA_def_cfa_offset: 24
  DW_CFA_offset: r6 (rbp) at cfa-24
  DW_CFA_advance_loc: 1 to 000000000041e54e
  DW_CFA_def_cfa_offset: 32
  DW_CFA_offset: r3 (rbx) at cfa-32
  DW_CFA_advance_loc1: 121 to 000000000041e5c7
  DW_CFA_def_cfa_offset: 160
  DW_CFA_advance_loc: 12 to 000000000041e5d3
  DW_CFA_def_cfa_offset: 32
  DW_CFA_advance_loc: 59 to 000000000041e60e
  DW_CFA_def_cfa_offset: 160
  DW_CFA_advance_loc: 12 to 000000000041e61a
  DW_CFA_def_cfa_offset: 32
  DW_CFA_advance_loc: 43 to 000000000041e645
  DW_CFA_remember_state
  DW_CFA_def_cfa_offset: 24
  DW_CFA_advance_loc: 1 to 000000000041e646
  DW_CFA_def_cfa_offset: 16
  DW_CFA_advance_loc: 2 to 000000000041e648
  DW_CFA_def_cfa_offset: 8
  DW_CFA_advance_loc: 8 to 000000000041e650
  DW_CFA_restore_state
  DW_CFA_advance_loc1: 233 to 000000000041e739
  DW_CFA_remember_state
  DW_CFA_def_cfa_offset: 24
  DW_CFA_advance_loc: 1 to 000000000041e73a
  DW_CFA_def_cfa_offset: 16
  DW_CFA_advance_loc: 2 to 000000000041e73c
  DW_CFA_def_cfa_offset: 8
  DW_CFA_advance_loc: 12 to 000000000041e748
  DW_CFA_restore_state
  DW_CFA_advance_loc: 1 to 000000000041e749
  DW_CFA_remember_state
  DW_CFA_def_cfa_offset: 24
  DW_CFA_advance_loc: 1 to 000000000041e74a
  DW_CFA_def_cfa_offset: 16
  DW_CFA_advance_loc: 2 to 000000000041e74c
  DW_CFA_def_cfa_offset: 8
  DW_CFA_advance_loc: 4 to 000000000041e750
  DW_CFA_restore_state
  DW_CFA_nop
  DW_CFA_nop
  DW_CFA_nop
  DW_CFA_nop

00002d80 000000000000005c 00002d54 FDE cie=00000030 pc=000000000041e7b0..000000000041eb19
  DW_CFA_advance_loc: 2 to 000000000041e7b2
  DW_CFA_def_cfa_offset: 16
  DW_CFA_offset: r13 (r13) at cfa-16
  DW_CFA_advance_loc: 5 to 000000000041e7b7
  DW_CFA_def_cfa_offset: 24
  DW_CFA_offset: r12 (r12) at cfa-24
  DW_CFA_advance_loc: 1 to 000000000041e7b8
  DW_CFA_def_cfa_offset: 32
  DW_CFA_offset: r6 (rbp) at cfa-32
  DW_CFA_advance_loc: 1 to 000000000041e7b9
  DW_CFA_def_cfa_offset: 40
  DW_CFA_offset: r3 (rbx) at cfa-40
  DW_CFA_advance_loc: 15 to 000000000041e7c8
  DW_CFA_def_cfa_offset: 48
  DW_CFA_advance_loc1: 237 to 000000000041e8b5
  DW_CFA_def_cfa_offset: 176
  DW_CFA_advance_loc: 12 to 000000000041e8c1
  DW_CFA_def_cfa_offset: 48
  DW_CFA_advance_loc: 39 to 000000000041e8e8
  DW_CFA_remember_state
  DW_CFA_def_cfa_offset: 40
  DW_CFA_advance_loc: 1 to 000000000041e8e9
  DW_CFA_def_cfa_offset: 32
  DW_CFA_advance_loc: 1 to 000000000041e8ea
  DW_CFA_def_cfa_offset: 24
  DW_CFA_advance_loc: 2 to 000000000041e8ec
  DW_CFA_def_cfa_offset: 16
  DW_CFA_advance_loc: 2 to 000000000041e8ee
  DW_CFA_def_cfa_offset: 8
  DW_CFA_advance_loc: 2 to 000000000041e8f0
  DW_CFA_restore_state
  DW_CFA_advance_loc: 37 to 000000000041e915
  DW_CFA_def_cfa_offset: 176
  DW_CFA_advance_loc: 12 to 000000000041e921
  DW_CFA_def_cfa_offset: 48
  DW_CFA_advance_loc2: 323 to 000000000041ea64
  DW_CFA_remember_state
  DW_CFA_def_cfa_offset: 40
  DW_CFA_advance_loc: 1 to 000000000041ea65
  DW_CFA_def_cfa_offset: 32
  DW_CFA_advance_loc: 1 to 000000000041ea66
  DW_CFA_def_cfa_offset: 24
  DW_CFA_advance_loc: 2 to 000000000041ea68
  DW_CFA_def_cfa_offset: 16
  DW_CFA_advance_loc: 2 to 000000000041ea6a
  DW_CFA_def_cfa_offset: 8
  DW_CFA_advance_loc: 6 to 000000000041ea70
  DW_CFA_restore_state
  DW_CFA_nop
  DW_CFA_nop
  DW_CFA_nop

00002de0 000000000000005c 00002db4 FDE cie=00000030 pc=000000000041eb20..000000000041ecfa
  DW_CFA_advance_loc: 2 to 000000000041eb22
  DW_CFA_def_cfa_offset: 16
  DW_CFA_offset: r13 (r13) at cfa-16
  DW_CFA_advance_loc: 2 to 000000000041eb24
  DW_CFA_def_cfa_offset: 24
  DW_CFA_offset: r12 (r12) at cfa-24
  DW_CFA_advance_loc: 1 to 000000000041eb25
  DW_CFA_def_cfa_offset: 32
  DW_CFA_offset: r6 (rbp) at cfa-32
  DW_CFA_advance_loc: 1 to 000000000041eb26
  DW_CFA_def_cfa_offset: 40
  DW_CFA_offset: r3 (rbx) at cfa-40
  DW_CFA_advance_loc: 4 to 000000000041eb2a
  DW_CFA_def_cfa_offset: 80
  DW_CFA_advance_loc: 45 to 000000000041eb57
  DW_CFA_remember_state
  DW_CFA_def_cfa_offset: 40
  DW_CFA_advance_loc: 1 to 000000000041eb58
  DW_CFA_def_cfa_offset: 32
  DW_CFA_advance_loc: 1 to 000000000041eb59
  DW_CFA_def_cfa_offset: 24
  DW_CFA_advance_loc: 2 to 000000000041eb5b
  DW_CFA_def_cfa_offset: 16
  DW_CFA_advance_loc: 2 to 000000000041eb5d
  DW_CFA_def_cfa_offset: 8
  DW_CFA_advance_loc: 3 to 000000000041eb60
  DW_CFA_restore_state
  DW_CFA_advance_loc: 8 to 000000000041eb68
  DW_CFA_remember_state
  DW_CFA_def_cfa_offset: 40
  DW_CFA_advance_loc: 5 to 000000000041eb6d
  DW_CFA_def_cfa_offset: 32
  DW_CFA_advance_loc: 1 to 000000000041eb6e
  DW_CFA_def_cfa_offset: 24
  DW_CFA_advance_loc: 2 to 000000000041eb70
  DW_CFA_def_cfa_offset: 16
  DW_CFA_advance_loc: 2 to 000000000041eb72
  DW_CFA_def_cfa_offset: 8
  DW_CFA_advance_loc: 1 to 000000000041eb73
  DW_CFA_restore_state
  DW_CFA_advance_loc: 26 to 000000000041eb8d
  DW_CFA_remember_state
  DW_CFA_def_cfa_offset: 40
  DW_CFA_advance_loc: 3 to 000000000041eb90
  DW_CFA_def_cfa_offset: 32
  DW_CFA_advance_loc: 1 to 000000000041eb91
  DW_CFA_def_cfa_offset: 24
  DW_CFA_advance_loc: 2 to 000000000041eb93
  DW_CFA_def_cfa_offset: 16
  DW_CFA_advance_loc: 2 to 000000000041eb95
  DW_CFA_def_cfa_offset: 8
  DW_CFA_advance_loc: 11 to 000000000041eba0
  DW_CFA_restore_state
  DW_CFA_nop
  DW_CFA_nop

00002e40 000000000000003c 00002e14 FDE cie=00000030 pc=000000000041ed00..000000000041eeda
  DW_CFA_advance_loc: 1 to 000000000041ed01
  DW_CFA_def_cfa_offset: 16
  DW_CFA_offset: r6 (rbp) at cfa-16
  DW_CFA_advance_loc: 1 to 000000000041ed02
  DW_CFA_def_cfa_offset: 24
  DW_CFA_offset: r3 (rbx) at cfa-24
  DW_CFA_advance_loc: 9 to 000000000041ed0b
  DW_CFA_def_cfa_offset: 32
  DW_CFA_advance_loc1: 65 to 000000000041ed4c
  DW_CFA_def_cfa_offset: 160
  DW_CFA_advance_loc: 12 to 000000000041ed58
  DW_CFA_def_cfa_offset: 32
  DW_CFA_advance_loc1: 147 to 000000000041edeb
  DW_CFA_def_cfa_offset: 160
  DW_CFA_advance_loc: 12 to 000000000041edf7
  DW_CFA_def_cfa_offset: 32
  DW_CFA_advance_loc: 4 to 000000000041edfb
  DW_CFA_remember_state
  DW_CFA_def_cfa_offset: 24
  DW_CFA_advance_loc: 3 to 000000000041edfe
  DW_CFA_def_cfa_offset: 16
  DW_CFA_advance_loc: 1 to 000000000041edff
  DW_CFA_def_cfa_offset: 8
  DW_CFA_advance_loc: 1 to 000000000041ee00
  DW_CFA_restore_state
  DW_CFA_nop
  DW_CFA_nop
  DW_CFA_nop
  DW_CFA_nop
  DW_CFA_nop
  DW_CFA_nop

00002e80 000000000000003c 00002e54 FDE cie=00000030 pc=000000000041eee0..000000000041f247
  DW_CFA_advance_loc: 2 to 000000000041eee2
  DW_CFA_def_cfa_offset: 16
  DW_CFA_offset: r13 (r13) at cfa-16
  DW_CFA_advance_loc: 2 to 000000000041eee4
  DW_CFA_def_cfa_offset: 24
  DW_CFA_offset: r12 (r12) at cfa-24
  DW_CFA_advance_loc: 1 to 000000000041eee5
  DW_CFA_def_cfa_offset: 32
  DW_CFA_offset: r6 (rbp) at cfa-32
  DW_CFA_advance_loc: 1 to 000000000041eee6
  DW_CFA_def_cfa_offset: 40
  DW_CFA_offset: r3 (rbx) at cfa-40
  DW_CFA_advance_loc: 4 to 000000000041eeea
  DW_CFA_def_cfa_offset: 48
  DW_CFA_advance_loc1: 224 to 000000000041efca
  DW_CFA_remember_state
  DW_CFA_def_cfa_offset: 40
  DW_CFA_advance_loc: 1 to 000000000041efcb
  DW_CFA_def_cfa_offset: 32
  DW_CFA_advance_loc: 1 to 000000000041efcc
  DW_CFA_def_cfa_offset: 24
  DW_CFA_advance_loc: 2 to 000000000041efce
  DW_CFA_def_cfa_offset: 16
  DW_CFA_advance_loc: 2 to 000000000041efd0
  DW_CFA_def_cfa_offset: 8
  DW_CFA_advance_loc: 8 to 000000000041efd8
  DW_CFA_restore_state
  DW_CFA_nop
  DW_CFA_nop
  DW_CFA_nop
  DW_CFA_nop
  DW_CFA_nop

00002ec0 0000000000000044 00002e94 FDE cie=00000030 pc=000000000041f250..000000000041f400
  DW_CFA_advance_loc: 1 to 000000000041f251
  DW_CFA_def_cfa_offset: 16
  DW_CFA_offset: r6 (rbp) at cfa-16
  DW_CFA_advance_loc: 1 to 000000000041f252
  DW_CFA_def_cfa_offset: 24
  DW_CFA_offset: r3 (rbx) at cfa-24
  DW_CFA_advance_loc: 7 to 000000000041f259
  DW_CFA_def_cfa_offset: 32
  DW_CFA_advance_loc1: 134 to 000000000041f2df
  DW_CFA_def_cfa_offset: 160
  DW_CFA_advance_loc: 12 to 000000000041f2eb
  DW_CFA_def_cfa_offset: 32
  DW_CFA_advance_loc: 55 to 000000000041f322
  DW_CFA_remember_state
  DW_CFA_def_cfa_offset: 24
  DW_CFA_advance_loc: 1 to 000000000041f323
  DW_CFA_def_cfa_offset: 16
  DW_CFA_advance_loc: 1 to 000000000041f324
  DW_CFA_def_cfa_offset: 8
  DW_CFA_advance_loc: 4 to 000000000041f328
  DW_CFA_restore_state
  DW_CFA_advance_loc: 37 to 000000000041f34d
  DW_CFA_def_cfa_offset: 160
  DW_CFA_advance_loc: 12 to 000000000041f359
  DW_CFA_def_cfa_offset: 32
  DW_CFA_advance_loc1: 125 to 000000000041f3d6
  DW_CFA_remember_state
  DW_CFA_def_cfa_offset: 24
  DW_CFA_advance_loc: 4 to 000000000041f3da
  DW_CFA_def_cfa_offset: 16
  DW_CFA_advance_loc: 1 to 000000000041f3db
  DW_CFA_def_cfa_offset: 8
  DW_CFA_advance_loc: 5 to 000000000041f3e0
  DW_CFA_restore_state
  DW_CFA_nop
  DW_CFA_nop

00002f08 000000000000005c 00002edc FDE cie=00000030 pc=000000000041f400..000000000041f802
  DW_CFA_advance_loc: 2 to 000000000041f402
  DW_CFA_def_cfa_offset: 16
  DW_CFA_offset: r15 (r15) at cfa-16
  DW_CFA_advance_loc: 2 to 000000000041f404
  DW_CFA_def_cfa_offset: 24
  DW_CFA_offset: r14 (r14) at cfa-24
  DW_CFA_advance_loc: 2 to 000000000041f406
  DW_CFA_def_cfa_offset: 32
  DW_CFA_offset: r13 (r13) at cfa-32
  DW_CFA_advance_loc: 2 to 000000000041f408
  DW_CFA_def_cfa_offset: 40
  DW_CFA_offset: r12 (r12) at cfa-40
  DW_CFA_advance_loc: 4 to 000000000041f40c
  DW_CFA_def_cfa_offset: 48
  DW_CFA_offset: r6 (rbp) at cfa-48
  DW_CFA_advance_loc: 1 to 000000000041f40d
  DW_CFA_def_cfa_offset: 56
  DW_CFA_offset: r3 (rbx) at cfa-56
  DW_CFA_advance_loc: 7 to 000000000041f414
  DW_CFA_def_cfa_offset: 112
  DW_CFA_advance_loc1: 202 to 000000000041f4de
  DW_CFA_remember_state
  DW_CFA_def_cfa_offset: 56
  DW_CFA_advance_loc: 4 to 000000000041f4e2
  DW_CFA_def_cfa_offset: 48
  DW_CFA_advance_loc: 1 to 000000000041f4e3
  DW_CFA_def_cfa_offset: 40
  DW_CFA_advance_loc: 2 to 000000000041f4e5
  DW_CFA_def_cfa_offset: 32
  DW_CFA_advance_loc: 2 to 000000000041f4e7
  DW_CFA_def_cfa_offset: 24
  DW_CFA_advance_loc: 2 to 000000000041f4e9
  DW_CFA_def_cfa_offset: 16
  DW_CFA_advance_loc: 2 to 000000000041f4eb
  DW_CFA_def_cfa_offset: 8
  DW_CFA_advance_loc: 5 to 000000000041f4f0
  DW_CFA_restore_state
  DW_CFA_advance_loc1: 140 to 000000000041f57c
  DW_CFA_def_cfa_offset: 240
  DW_CFA_advance_loc: 12 to 000000000041f588
  DW_CFA_def_cfa_offset: 112
  DW_CFA_advance_loc: 55 to 000000000041f5bf
  DW_CFA_def_cfa_offset: 240
  DW_CFA_advance_loc: 12 to 000000000041f5cb
  DW_CFA_def_cfa_offset: 112
  DW_CFA_nop
  DW_CFA_nop
  DW_CFA_nop
  DW_CFA_nop
  DW_CFA_nop
  DW_CFA_nop

00002f68 0000000000000064 00002f3c FDE cie=00000030 pc=000000000041f810..000000000041fab8
  DW_CFA_advance_loc: 2 to 000000000041f812
  DW_CFA_def_cfa_offset: 16
  DW_CFA_offset: r12 (r12) at cfa-16
  DW_CFA_advance_loc: 1 to 000000000041f813
  DW_CFA_def_cfa_offset: 24
  DW_CFA_offset: r6 (rbp) at cfa-24
  DW_CFA_advance_loc: 4 to 000000000041f817
  DW_CFA_def_cfa_offset: 32
  DW_CFA_offset: r3 (rbx) at cfa-32
  DW_CFA_advance_loc: 4 to 000000000041f81b
  DW_CFA_def_cfa_offset: 48
  DW_CFA_advance_loc1: 153 to 000000000041f8b4
  DW_CFA_def_cfa_offset: 176
  DW_CFA_advance_loc: 12 to 000000000041f8c0
  DW_CFA_def_cfa_offset: 48
  DW_CFA_advance_loc: 59 to 000000000041f8fb
  DW_CFA_def_cfa_offset: 176
  DW_CFA_advance_loc: 12 to 000000000041f907
  DW_CFA_def_cfa_offset: 48
  DW_CFA_advance_loc: 46 to 000000000041f935
  DW_CFA_remember_state
  DW_CFA_def_cfa_offset: 32
  DW_CFA_advance_loc: 1 to 000000000041f936
  DW_CFA_def_cfa_offset: 24
  DW_CFA_advance_loc: 1 to 000000000041f937
  DW_CFA_def_cfa_offset: 16
  DW_CFA_advance_loc: 2 to 000000000041f939
  DW_CFA_def_cfa_offset: 8
  DW_CFA_advance_loc: 7 to 000000000041f940
  DW_CFA_restore_state
  DW_CFA_advance_loc2: 260 to 000000000041fa44
  DW_CFA_remember_state
  DW_CFA_def_cfa_offset: 32
  DW_CFA_advance_loc: 4 to 000000000041fa48
  DW_CFA_def_cfa_offset: 24
  DW_CFA_advance_loc: 1 to 000000000041fa49
  DW_CFA_def_cfa_offset: 16
  DW_CFA_advance_loc: 2 to 000000000041fa4b
  DW_CFA_def_cfa_offset: 8
  DW_CFA_advance_loc: 5 to 000000000041fa50
  DW_CFA_restore_state
  DW_CFA_advance_loc: 4 to 000000000041fa54
  DW_CFA_remember_state
  DW_CFA_def_cfa_offset: 32
  DW_CFA_advance_loc: 4 to 000000000041fa58
  DW_CFA_def_cfa_offset: 24
  DW_CFA_advance_loc: 1 to 000000000041fa59
  DW_CFA_def_cfa_offset: 16
  DW_CFA_advance_loc: 2 to 000000000041fa5b
  DW_CFA_def_cfa_offset: 8
  DW_CFA_advance_loc: 5 to 000000000041fa60
  DW_CFA_restore_state
  DW_CFA_nop
  DW_CFA_nop
  DW_CFA_nop
  DW_CFA_nop
  DW_CFA_nop
  DW_CFA_nop
  DW_CFA_nop

00002fd0 000000000000003c 00002fa4 FDE cie=00000030 pc=000000000041fac0..000000000041fff6
  DW_CFA_advance_loc: 8 to 000000000041fac8
  DW_CFA_def_cfa_offset: 16
  DW_CFA_offset: r3 (rbx) at cfa-16
  DW_CFA_advance_loc1: 100 to 000000000041fb2c
  DW_CFA_def_cfa_offset: 144
  DW_CFA_advance_loc: 12 to 000000000041fb38
  DW_CFA_def_cfa_offset: 16
  DW_CFA_advance_loc2: 952 to 000000000041fef0
  DW_CFA_def_cfa_offset: 144
  DW_CFA_advance_loc: 12 to 000000000041fefc
  DW_CFA_def_cfa_offset: 16
  DW_CFA_advance_loc: 3 to 000000000041feff
  DW_CFA_remember_state
  DW_CFA_def_cfa_offset: 8
  DW_CFA_advance_loc: 1 to 000000000041ff00
  DW_CFA_restore_state
  DW_CFA_advance_loc1: 213 to 000000000041ffd5
  DW_CFA_remember_state
  DW_CFA_def_cfa_offset: 8
  DW_CFA_advance_loc: 1 to 000000000041ffd6
  DW_CFA_restore_state
  DW_CFA_advance_loc: 6 to 000000000041ffdc
  DW_CFA_remember_state
  DW_CFA_def_cfa_offset: 8
  DW_CFA_advance_loc: 1 to 000000000041ffdd
  DW_CFA_restore_state
  DW_CFA_nop
  DW_CFA_nop
  DW_CFA_nop
  DW_CFA_nop
  DW_CFA_nop
  DW_CFA_nop

00003010 0000000000000054 00002fe4 FDE cie=00000030 pc=0000000000420000..0000000000420290
  DW_CFA_advance_loc: 8 to 0000000000420008
  DW_CFA_def_cfa_offset: 16
  DW_CFA_offset: r12 (r12) at cfa-16
  DW_CFA_advance_loc: 4 to 000000000042000c
  DW_CFA_def_cfa_offset: 24
  DW_CFA_offset: r6 (rbp) at cfa-24
  DW_CFA_advance_loc: 1 to 000000000042000d
  DW_CFA_def_cfa_offset: 32
  DW_CFA_offset: r3 (rbx) at cfa-32
  DW_CFA_advance_loc1: 143 to 000000000042009c
  DW_CFA_def_cfa_offset: 160
  DW_CFA_advance_loc: 12 to 00000000004200a8
  DW_CFA_def_cfa_offset: 32
  DW_CFA_advance_loc: 59 to 00000000004200e3
  DW_CFA_def_cfa_offset: 160
  DW_CFA_advance_loc: 12 to 00000000004200ef
  DW_CFA_def_cfa_offset: 32
  DW_CFA_advance_loc: 43 to 000000000042011a
  DW_CFA_remember_state
  DW_CFA_def_cfa_offset: 24
  DW_CFA_advance_loc: 1 to 000000000042011b
  DW_CFA_def_cfa_offset: 16
  DW_CFA_advance_loc: 2 to 000000000042011d
  DW_CFA_def_cfa_offset: 8
  DW_CFA_advance_loc: 3 to 0000000000420120
  DW_CFA_restore_state
  DW_CFA_advance_loc1: 233 to 0000000000420209
  DW_CFA_remember_state
  DW_CFA_def_cfa_offset: 24
  DW_CFA_advance_loc: 4 to 000000000042020d
  DW_CFA_def_cfa_offset: 16
  DW_CFA_advance_loc: 2 to 000000000042020f
  DW_CFA_def_cfa_offset: 8
  DW_CFA_advance_loc: 9 to 0000000000420218
  DW_CFA_restore_state
  DW_CFA_advance_loc: 1 to 0000000000420219
  DW_CFA_remember_state
  DW_CFA_def_cfa_offset: 24
  DW_CFA_advance_loc: 4 to 000000000042021d
  DW_CFA_def_cfa_offset: 16
  DW_CFA_advance_loc: 2 to 000000000042021f
  DW_CFA_def_cfa_offset: 8
  DW_CFA_advance_loc: 9 to 0000000000420228
  DW_CFA_restore_state
  DW_CFA_nop
  DW_CFA_nop
  DW_CFA_nop
  DW_CFA_nop

00003068 000000000000006c 0000303c FDE cie=00000030 pc=0000000000420290..0000000000420555
  DW_CFA_advance_loc: 2 to 0000000000420292
  DW_CFA_def_cfa_offset: 16
  DW_CFA_offset: r12 (r12) at cfa-16
  DW_CFA_advance_loc: 1 to 0000000000420293
  DW_CFA_def_cfa_offset: 24
  DW_CFA_offset: r6 (rbp) at cfa-24
  DW_CFA_advance_loc: 1 to 0000000000420294
  DW_CFA_def_cfa_offset: 32
  DW_CFA_offset: r3 (rbx) at cfa-32
  DW_CFA_advance_loc: 4 to 0000000000420298
  DW_CFA_def_cfa_offset: 48
  DW_CFA_advance_loc1: 192 to 0000000000420358
  DW_CFA_def_cfa_offset: 176
  DW_CFA_advance_loc: 12 to 0000000000420364
  DW_CFA_def_cfa_offset: 48
  DW_CFA_advance_loc: 59 to 000000000042039f
  DW_CFA_def_cfa_offset: 176
  DW_CFA_advance_loc: 12 to 00000000004203ab
  DW_CFA_def_cfa_offset: 48
  DW_CFA_advance_loc: 46 to 00000000004203d9
  DW_CFA_remember_state
  DW_CFA_def_cfa_offset: 32
  DW_CFA_advance_loc: 1 to 00000000004203da
  DW_CFA_def_cfa_offset: 24
  DW_CFA_advance_loc: 1 to 00000000004203db
  DW_CFA_def_cfa_offset: 16
  DW_CFA_advance_loc: 2 to 00000000004203dd
  DW_CFA_def_cfa_offset: 8
  DW_CFA_advance_loc: 3 to 00000000004203e0
  DW_CFA_restore_state
  DW_CFA_advance_loc1: 90 to 000000000042043a
  DW_CFA_remember_state
  DW_CFA_def_cfa_offset: 32
  DW_CFA_advance_loc: 3 to 000000000042043d
  DW_CFA_def_cfa_offset: 24
  DW_CFA_advance_loc: 1 to 000000000042043e
  DW_CFA_def_cfa_offset: 16
  DW_CFA_advance_loc: 2 to 0000000000420440
  DW_CFA_def_cfa_offset: 8
  DW_CFA_advance_loc: 8 to 0000000000420448
  DW_CFA_restore_state
  DW_CFA_advance_loc1: 148 to 00000000004204dc
  DW_CFA_remember_state
  DW_CFA_def_cfa_offset: 32
  DW_CFA_advance_loc: 4 to 00000000004204e0
  DW_CFA_def_cfa_offset: 24
  DW_CFA_advance_loc: 1 to 00000000004204e1
  DW_CFA_def_cfa_offset: 16
  DW_CFA_advance_loc: 2 to 00000000004204e3
  DW_CFA_def_cfa_offset: 8
  DW_CFA_advance_loc: 13 to 00000000004204f0
  DW_CFA_restore_state
  DW_CFA_advance_loc: 4 to 00000000004204f4
  DW_CFA_remember_state
  DW_CFA_def_cfa_offset: 32
  DW_CFA_advance_loc: 7 to 00000000004204fb
  DW_CFA_def_cfa_offset: 24
  DW_CFA_advance_loc: 1 to 00000000004204fc
  DW_CFA_def_cfa_offset: 16
  DW_CFA_advance_loc: 2 to 00000000004204fe
  DW_CFA_def_cfa_offset: 8
  DW_CFA_advance_loc: 2 to 0000000000420500
  DW_CFA_restore_state

000030d8 000000000000005c 000030ac FDE cie=00000030 pc=0000000000420560..000000000042080f
  DW_CFA_advance_loc: 2 to 0000000000420562
  DW_CFA_def_cfa_offset: 16
  DW_CFA_offset: r15 (r15) at cfa-16
  DW_CFA_advance_loc: 2 to 0000000000420564
  DW_CFA_def_cfa_offset: 24
  DW_CFA_offset: r14 (r14) at cfa-24
  DW_CFA_advance_loc: 2 to 0000000000420566
  DW_CFA_def_cfa_offset: 32
  DW_CFA_offset: r13 (r13) at cfa-32
  DW_CFA_advance_loc: 2 to 0000000000420568
  DW_CFA_def_cfa_offset: 40
  DW_CFA_offset: r12 (r12) at cfa-40
  DW_CFA_advance_loc: 1 to 0000000000420569
  DW_CFA_def_cfa_offset: 48
  DW_CFA_offset: r6 (rbp) at cfa-48
  DW_CFA_advance_loc: 1 to 000000000042056a
  DW_CFA_def_cfa_offset: 56
  DW_CFA_offset: r3 (rbx) at cfa-56
  DW_CFA_advance_loc: 4 to 000000000042056e
  DW_CFA_def_cfa_offset: 96
  DW_CFA_advance_loc1: 80 to 00000000004205be
  DW_CFA_def_cfa_offset: 224
  DW_CFA_advance_loc: 12 to 00000000004205ca
  DW_CFA_def_cfa_offset: 96
  DW_CFA_advance_loc: 49 to 00000000004205fb
  DW_CFA_def_cfa_offset: 224
  DW_CFA_advance_loc: 12 to 0000000000420607
  DW_CFA_def_cfa_offset: 96
  DW_CFA_advance_loc: 32 to 0000000000420627
  DW_CFA_remember_state
  DW_CFA_def_cfa_offset: 56
  DW_CFA_advance_loc: 1 to 0000000000420628
  DW_CFA_def_cfa_offset: 48
  DW_CFA_advance_loc: 1 to 0000000000420629
  DW_CFA_def_cfa_offset: 40
  DW_CFA_advance_loc: 2 to 000000000042062b
  DW_CFA_def_cfa_offset: 32
  DW_CFA_advance_loc: 2 to 000000000042062d
  DW_CFA_def_cfa_offset: 24
  DW_CFA_advance_loc: 2 to 000000000042062f
  DW_CFA_def_cfa_offset: 16
  DW_CFA_advance_loc: 2 to 0000000000420631
  DW_CFA_def_cfa_offset: 8
  DW_CFA_advance_loc: 1 to 0000000000420632
  DW_CFA_restore_state
  DW_CFA_nop
  DW_CFA_nop
  DW_CFA_nop
  DW_CFA_nop
  DW_CFA_nop
  DW_CFA_nop
  DW_CFA_nop

00003138 0000000000000044 0000310c FDE cie=00000030 pc=0000000000420810..0000000000420922
  DW_CFA_advance_loc: 2 to 0000000000420812
  DW_CFA_def_cfa_offset: 16
  DW_CFA_offset: r12 (r12) at cfa-16
  DW_CFA_advance_loc: 1 to 0000000000420813
  DW_CFA_def_cfa_offset: 24
  DW_CFA_offset: r6 (rbp) at cfa-24
  DW_CFA_advance_loc: 4 to 0000000000420817
  DW_CFA_def_cfa_offset: 32
  DW_CFA_offset: r3 (rbx) at cfa-32
  DW_CFA_advance_loc: 4 to 000000000042081b
  DW_CFA_def_cfa_offset: 80
  DW_CFA_advance_loc1: 105 to 0000000000420884
  DW_CFA_def_cfa_offset: 208
  DW_CFA_advance_loc: 12 to 0000000000420890
  DW_CFA_def_cfa_offset: 80
  DW_CFA_advance_loc: 41 to 00000000004208b9
  DW_CFA_def_cfa_offset: 208
  DW_CFA_advance_loc: 12 to 00000000004208c5
  DW_CFA_def_cfa_offset: 80
  DW_CFA_advance_loc1: 68 to 0000000000420909
  DW_CFA_remember_state
  DW_CFA_def_cfa_offset: 32
  DW_CFA_advance_loc: 4 to 000000000042090d
  DW_CFA_def_cfa_offset: 24
  DW_CFA_advance_loc: 1 to 000000000042090e
  DW_CFA_def_cfa_offset: 16
  DW_CFA_advance_loc: 2 to 0000000000420910
  DW_CFA_def_cfa_offset: 8
  DW_CFA_advance_loc: 8 to 0000000000420918
  DW_CFA_restore_state
  DW_CFA_nop
  DW_CFA_nop
  DW_CFA_nop
  DW_CFA_nop
  DW_CFA_nop
  DW_CFA_nop

00003180 000000000000005c 00003154 FDE cie=00000030 pc=0000000000420930..0000000000420b1a
  DW_CFA_advance_loc: 2 to 0000000000420932
  DW_CFA_def_cfa_offset: 16
  DW_CFA_offset: r15 (r15) at cfa-16
  DW_CFA_advance_loc: 2 to 0000000000420934
  DW_CFA_def_cfa_offset: 24
  DW_CFA_offset: r14 (r14) at cfa-24
  DW_CFA_advance_loc: 2 to 0000000000420936
  DW_CFA_def_cfa_offset: 32
  DW_CFA_offset: r13 (r13) at cfa-32
  DW_CFA_advance_loc: 2 to 0000000000420938
  DW_CFA_def_cfa_offset: 40
  DW_CFA_offset: r12 (r12) at cfa-40
  DW_CFA_advance_loc: 1 to 0000000000420939
  DW_CFA_def_cfa_offset: 48
  DW_CFA_offset: r6 (rbp) at cfa-48
  DW_CFA_advance_loc: 1 to 000000000042093a
  DW_CFA_def_cfa_offset: 56
  DW_CFA_offset: r3 (rbx) at cfa-56
  DW_CFA_advance_loc: 4 to 000000000042093e
  DW_CFA_def_cfa_offset: 112
  DW_CFA_advance_loc1: 150 to 00000000004209d4
  DW_CFA_def_cfa_offset: 240
  DW_CFA_advance_loc: 12 to 00000000004209e0
  DW_CFA_def_cfa_offset: 112
  DW_CFA_advance_loc1: 116 to 0000000000420a54
  DW_CFA_def_cfa_offset: 240
  DW_CFA_advance_loc: 12 to 0000000000420a60
  DW_CFA_def_cfa_offset: 112
  DW_CFA_advance_loc1: 157 to 0000000000420afd
  DW_CFA_remember_state
  DW_CFA_def_cfa_offset: 56
  DW_CFA_advance_loc: 1 to 0000000000420afe
  DW_CFA_def_cfa_offset: 48
  DW_CFA_advance_loc: 1 to 0000000000420aff
  DW_CFA_def_cfa_offset: 40
  DW_CFA_advance_loc: 2 to 0000000000420b01
  DW_CFA_def_cfa_offset: 32
  DW_CFA_advance_loc: 2 to 0000000000420b03
  DW_CFA_def_cfa_offset: 24
  DW_CFA_advance_loc: 2 to 0000000000420b05
  DW_CFA_def_cfa_offset: 16
  DW_CFA_advance_loc: 2 to 0000000000420b07
  DW_CFA_def_cfa_offset: 8
  DW_CFA_advance_loc: 9 to 0000000000420b10
  DW_CFA_restore_state
  DW_CFA_nop
  DW_CFA_nop
  DW_CFA_nop
  DW_CFA_nop
  DW_CFA_nop

000031e0 000000000000008c 000031b4 FDE cie=00000030 pc=0000000000420b20..0000000000420fa1
  DW_CFA_advance_loc: 2 to 0000000000420b22
  DW_CFA_def_cfa_offset: 16
  DW_CFA_offset: r15 (r15) at cfa-16
  DW_CFA_advance_loc: 2 to 0000000000420b24
  DW_CFA_def_cfa_offset: 24
  DW_CFA_offset: r14 (r14) at cfa-24
  DW_CFA_advance_loc: 2 to 0000000000420b26
  DW_CFA_def_cfa_offset: 32
  DW_CFA_offset: r13 (r13) at cfa-32
  DW_CFA_advance_loc: 2 to 0000000000420b28
  DW_CFA_def_cfa_offset: 40
  DW_CFA_offset: r12 (r12) at cfa-40
  DW_CFA_advance_loc: 1 to 0000000000420b29
  DW_CFA_def_cfa_offset: 48
  DW_CFA_offset: r6 (rbp) at cfa-48
  DW_CFA_advance_loc: 1 to 0000000000420b2a
  DW_CFA_def_cfa_offset: 56
  DW_CFA_offset: r3 (rbx) at cfa-56
  DW_CFA_advance_loc: 10 to 0000000000420b34
  DW_CFA_def_cfa_offset: 4560
  DW_CFA_advance_loc1: 189 to 0000000000420bf1
  DW_CFA_def_cfa_offset: 4688
  DW_CFA_advance_loc: 12 to 0000000000420bfd
  DW_CFA_def_cfa_offset: 4560
  DW_CFA_advance_loc2: 389 to 0000000000420d82
  DW_CFA_def_cfa_offset: 4688
  DW_CFA_advance_loc: 12 to 0000000000420d8e
  DW_CFA_def_cfa_offset: 4560
  DW_CFA_advance_loc1: 165 to 0000000000420e33
  DW_CFA_def_cfa_offset: 4568
  DW_CFA_advance_loc: 1 to 0000000000420e34
  DW_CFA_def_cfa_offset: 4576
  DW_CFA_advance_loc: 20 to 0000000000420e48
  DW_CFA_def_cfa_offset: 4568
  DW_CFA_advance_loc: 1 to 0000000000420e49
  DW_CFA_def_cfa_offset: 4560
  DW_CFA_advance_loc1: 122 to 0000000000420ec3
  DW_CFA_def_cfa_offset: 4568
  DW_CFA_advance_loc: 7 to 0000000000420eca
  DW_CFA_def_cfa_offset: 4576
  DW_CFA_advance_loc: 4 to 0000000000420ece
  DW_CFA_def_cfa_offset: 4584
  DW_CFA_advance_loc: 9 to 0000000000420ed7
  DW_CFA_def_cfa_offset: 4592
  DW_CFA_advance_loc: 6 to 0000000000420edd
  DW_CFA_def_cfa_offset: 4600
  DW_CFA_advance_loc: 1 to 0000000000420ede
  DW_CFA_def_cfa_offset: 4608
  DW_CFA_advance_loc: 34 to 0000000000420f00
  DW_CFA_def_cfa_offset: 56
  DW_CFA_advance_loc: 3 to 0000000000420f03
  DW_CFA_def_cfa_offset: 48
  DW_CFA_advance_loc: 1 to 0000000000420f04
  DW_CFA_def_cfa_offset: 40
  DW_CFA_advance_loc: 2 to 0000000000420f06
  DW_CFA_def_cfa_offset: 32
  DW_CFA_advance_loc: 2 to 0000000000420f08
  DW_CFA_def_cfa_offset: 24
  DW_CFA_advance_loc: 2 to 0000000000420f0a
  DW_CFA_def_cfa_offset: 16
  DW_CFA_advance_loc: 2 to 0000000000420f0c
  DW_CFA_def_cfa_offset: 8
  DW_CFA_advance_loc: 4 to 0000000000420f10
  DW_CFA_def_cfa_offset: 4560
  DW_CFA_nop
  DW_CFA_nop
  DW_CFA_nop
  DW_CFA_nop
  DW_CFA_nop
  DW_CFA_nop
  DW_CFA_nop

00003270 0000000000000054 00003244 FDE cie=00000030 pc=0000000000420fb0..000000000042123b
  DW_CFA_advance_loc: 47 to 0000000000420fdf
  DW_CFA_def_cfa_offset: 16
  DW_CFA_offset: r13 (r13) at cfa-16
  DW_CFA_advance_loc: 2 to 0000000000420fe1
  DW_CFA_def_cfa_offset: 24
  DW_CFA_offset: r12 (r12) at cfa-24
  DW_CFA_advance_loc: 4 to 0000000000420fe5
  DW_CFA_def_cfa_offset: 32
  DW_CFA_offset: r6 (rbp) at cfa-32
  DW_CFA_advance_loc: 1 to 0000000000420fe6
  DW_CFA_def_cfa_offset: 40
  DW_CFA_offset: r3 (rbx) at cfa-40
  DW_CFA_advance_loc: 10 to 0000000000420ff0
  DW_CFA_def_cfa_offset: 48
  DW_CFA_advance_loc1: 195 to 00000000004210b3
  DW_CFA_def_cfa_offset: 176
  DW_CFA_advance_loc: 12 to 00000000004210bf
  DW_CFA_def_cfa_offset: 48
  DW_CFA_advance_loc: 61 to 00000000004210fc
  DW_CFA_def_cfa_offset: 176
  DW_CFA_advance_loc: 12 to 0000000000421108
  DW_CFA_def_cfa_offset: 48
  DW_CFA_advance_loc: 57 to 0000000000421141
  DW_CFA_def_cfa_offset: 40
  DW_CFA_advance_loc: 1 to 0000000000421142
  DW_CFA_restore: r3 (rbx)
  DW_CFA_def_cfa_offset: 32
  DW_CFA_advance_loc: 1 to 0000000000421143
  DW_CFA_restore: r6 (rbp)
  DW_CFA_def_cfa_offset: 24
  DW_CFA_advance_loc: 2 to 0000000000421145
  DW_CFA_restore: r12 (r12)
  DW_CFA_def_cfa_offset: 16
  DW_CFA_advance_loc: 2 to 0000000000421147
  DW_CFA_restore: r13 (r13)
  DW_CFA_def_cfa_offset: 8
  DW_CFA_advance_loc: 15 to 0000000000421156
  DW_CFA_def_cfa_offset: 48
  DW_CFA_offset: r3 (rbx) at cfa-40
  DW_CFA_offset: r6 (rbp) at cfa-32
  DW_CFA_offset: r12 (r12) at cfa-24
  DW_CFA_offset: r13 (r13) at cfa-16
  DW_CFA_nop
  DW_CFA_nop
  DW_CFA_nop

000032c8 0000000000000014 0000329c FDE cie=00000030 pc=0000000000421240..0000000000421258
  DW_CFA_nop
  DW_CFA_nop
  DW_CFA_nop
  DW_CFA_nop
  DW_CFA_nop
  DW_CFA_nop
  DW_CFA_nop

000032e0 0000000000000014 000032b4 FDE cie=00000030 pc=0000000000421260..000000000042127b
  DW_CFA_advance_loc: 4 to 0000000000421264
  DW_CFA_def_cfa_offset: 16
  DW_CFA_advance_loc: 22 to 000000000042127a
  DW_CFA_def_cfa_offset: 8
  DW_CFA_nop

000032f8 0000000000000014 000032cc FDE cie=00000030 pc=0000000000421280..000000000042129b
  DW_CFA_nop
  DW_CFA_nop
  DW_CFA_nop
  DW_CFA_nop
  DW_CFA_nop
  DW_CFA_nop
  DW_CFA_nop

00003310 0000000000000014 000032e4 FDE cie=00000030 pc=00000000004212a0..00000000004214ba
  DW_CFA_nop
  DW_CFA_nop
  DW_CFA_nop
  DW_CFA_nop
  DW_CFA_nop
  DW_CFA_nop
  DW_CFA_nop

00003328 0000000000000014 000032fc FDE cie=00000030 pc=00000000004214c0..00000000004214ee
  DW_CFA_nop
  DW_CFA_nop
  DW_CFA_nop
  DW_CFA_nop
  DW_CFA_nop
  DW_CFA_nop
  DW_CFA_nop

00003340 0000000000000014 00003314 FDE cie=00000030 pc=0000000000422930..00000000004236d9
  DW_CFA_nop
  DW_CFA_nop
  DW_CFA_nop
  DW_CFA_nop
  DW_CFA_nop
  DW_CFA_nop
  DW_CFA_nop

00003358 0000000000000014 0000332c FDE cie=00000030 pc=00000000004214f0..0000000000422929
  DW_CFA_nop
  DW_CFA_nop
  DW_CFA_nop
  DW_CFA_nop
  DW_CFA_nop
  DW_CFA_nop
  DW_CFA_nop

00003370 0000000000000014 00003344 FDE cie=00000030 pc=00000000004236e0..000000000042370e
  DW_CFA_nop
  DW_CFA_nop
  DW_CFA_nop
  DW_CFA_nop
  DW_CFA_nop
  DW_CFA_nop
  DW_CFA_nop

00003388 0000000000000014 0000335c FDE cie=00000030 pc=0000000000423710..00000000004237ec
  DW_CFA_nop
  DW_CFA_nop
  DW_CFA_nop
  DW_CFA_nop
  DW_CFA_nop
  DW_CFA_nop
  DW_CFA_nop

000033a0 0000000000000034 00003374 FDE cie=00000030 pc=00000000004237f0..0000000000423831
  DW_CFA_advance_loc: 1 to 00000000004237f1
  DW_CFA_def_cfa_offset: 16
  DW_CFA_offset: r6 (rbp) at cfa-16
  DW_CFA_advance_loc: 1 to 00000000004237f2
  DW_CFA_def_cfa_offset: 24
  DW_CFA_offset: r3 (rbx) at cfa-24
  DW_CFA_advance_loc: 7 to 00000000004237f9
  DW_CFA_def_cfa_offset: 32
  DW_CFA_advance_loc: 26 to 0000000000423813
  DW_CFA_remember_state
  DW_CFA_def_cfa_offset: 24
  DW_CFA_advance_loc: 7 to 000000000042381a
  DW_CFA_def_cfa_offset: 16
  DW_CFA_advance_loc: 1 to 000000000042381b
  DW_CFA_def_cfa_offset: 8
  DW_CFA_advance_loc: 13 to 0000000000423828
  DW_CFA_restore_state
  DW_CFA_advance_loc: 4 to 000000000042382c
  DW_CFA_def_cfa_offset: 24
  DW_CFA_advance_loc: 3 to 000000000042382f
  DW_CFA_def_cfa_offset: 16
  DW_CFA_advance_loc: 1 to 0000000000423830
  DW_CFA_def_cfa_offset: 8
  DW_CFA_nop
  DW_CFA_nop
  DW_CFA_nop
  DW_CFA_nop
  DW_CFA_nop

000033d8 0000000000000014 000033ac FDE cie=00000030 pc=0000000000423840..00000000004239dc
  DW_CFA_nop
  DW_CFA_nop
  DW_CFA_nop
  DW_CFA_nop
  DW_CFA_nop
  DW_CFA_nop
  DW_CFA_nop

000033f0 0000000000000014 000033c4 FDE cie=00000030 pc=00000000004239e0..0000000000425229
  DW_CFA_nop
  DW_CFA_nop
  DW_CFA_nop
  DW_CFA_nop
  DW_CFA_nop
  DW_CFA_nop
  DW_CFA_nop

00003408 000000000000004c 000033dc FDE cie=00000030 pc=0000000000425230..0000000000425731
  DW_CFA_advance_loc: 2 to 0000000000425232
  DW_CFA_def_cfa_offset: 16
  DW_CFA_offset: r15 (r15) at cfa-16
  DW_CFA_advance_loc: 2 to 0000000000425234
  DW_CFA_def_cfa_offset: 24
  DW_CFA_offset: r14 (r14) at cfa-24
  DW_CFA_advance_loc: 2 to 0000000000425236
  DW_CFA_def_cfa_offset: 32
  DW_CFA_offset: r13 (r13) at cfa-32
  DW_CFA_advance_loc: 2 to 0000000000425238
  DW_CFA_def_cfa_offset: 40
  DW_CFA_offset: r12 (r12) at cfa-40
  DW_CFA_advance_loc: 4 to 000000000042523c
  DW_CFA_def_cfa_offset: 48
  DW_CFA_offset: r6 (rbp) at cfa-48
  DW_CFA_advance_loc: 1 to 000000000042523d
  DW_CFA_def_cfa_offset: 56
  DW_CFA_offset: r3 (rbx) at cfa-56
  DW_CFA_advance_loc: 21 to 0000000000425252
  DW_CFA_def_cfa_offset: 2192
  DW_CFA_advance_loc2: 1147 to 00000000004256cd
  DW_CFA_remember_state
  DW_CFA_def_cfa_offset: 56
  DW_CFA_advance_loc: 1 to 00000000004256ce
  DW_CFA_def_cfa_offset: 48
  DW_CFA_advance_loc: 1 to 00000000004256cf
  DW_CFA_def_cfa_offset: 40
  DW_CFA_advance_loc: 2 to 00000000004256d1
  DW_CFA_def_cfa_offset: 32
  DW_CFA_advance_loc: 2 to 00000000004256d3
  DW_CFA_def_cfa_offset: 24
  DW_CFA_advance_loc: 2 to 00000000004256d5
  DW_CFA_def_cfa_offset: 16
  DW_CFA_advance_loc: 2 to 00000000004256d7
  DW_CFA_def_cfa_offset: 8
  DW_CFA_advance_loc: 9 to 00000000004256e0
  DW_CFA_restore_state
  DW_CFA_nop
  DW_CFA_nop
  DW_CFA_nop

00003458 000000000000007c 0000342c FDE cie=00000030 pc=0000000000425740..0000000000425d03
  DW_CFA_advance_loc: 2 to 0000000000425742
  DW_CFA_def_cfa_offset: 16
  DW_CFA_offset: r15 (r15) at cfa-16
  DW_CFA_advance_loc: 2 to 0000000000425744
  DW_CFA_def_cfa_offset: 24
  DW_CFA_offset: r14 (r14) at cfa-24
  DW_CFA_advance_loc: 2 to 0000000000425746
  DW_CFA_def_cfa_offset: 32
  DW_CFA_offset: r13 (r13) at cfa-32
  DW_CFA_advance_loc: 2 to 0000000000425748
  DW_CFA_def_cfa_offset: 40
  DW_CFA_offset: r12 (r12) at cfa-40
  DW_CFA_advance_loc: 1 to 0000000000425749
  DW_CFA_def_cfa_offset: 48
  DW_CFA_offset: r6 (rbp) at cfa-48
  DW_CFA_advance_loc: 1 to 000000000042574a
  DW_CFA_def_cfa_offset: 56
  DW_CFA_offset: r3 (rbx) at cfa-56
  DW_CFA_advance_loc: 4 to 000000000042574e
  DW_CFA_def_cfa_offset: 144
  DW_CFA_advance_loc1: 154 to 00000000004257e8
  DW_CFA_remember_state
  DW_CFA_def_cfa_offset: 56
  DW_CFA_advance_loc: 13 to 00000000004257f5
  DW_CFA_def_cfa_offset: 48
  DW_CFA_advance_loc: 1 to 00000000004257f6
  DW_CFA_def_cfa_offset: 40
  DW_CFA_advance_loc: 2 to 00000000004257f8
  DW_CFA_def_cfa_offset: 32
  DW_CFA_advance_loc: 2 to 00000000004257fa
  DW_CFA_def_cfa_offset: 24
  DW_CFA_advance_loc: 2 to 00000000004257fc
  DW_CFA_def_cfa_offset: 16
  DW_CFA_advance_loc: 2 to 00000000004257fe
  DW_CFA_def_cfa_offset: 8
  DW_CFA_advance_loc: 10 to 0000000000425808
  DW_CFA_restore_state
  DW_CFA_advance_loc: 6 to 000000000042580e
  DW_CFA_remember_state
  DW_CFA_def_cfa_offset: 56
  DW_CFA_advance_loc: 1 to 000000000042580f
  DW_CFA_def_cfa_offset: 48
  DW_CFA_advance_loc: 1 to 0000000000425810
  DW_CFA_def_cfa_offset: 40
  DW_CFA_advance_loc: 2 to 0000000000425812
  DW_CFA_def_cfa_offset: 32
  DW_CFA_advance_loc: 2 to 0000000000425814
  DW_CFA_def_cfa_offset: 24
  DW_CFA_advance_loc: 2 to 0000000000425816
  DW_CFA_def_cfa_offset: 16
  DW_CFA_advance_loc: 2 to 0000000000425818
  DW_CFA_def_cfa_offset: 8
  DW_CFA_advance_loc: 8 to 0000000000425820
  DW_CFA_restore_state
  DW_CFA_advance_loc: 4 to 0000000000425824
  DW_CFA_remember_state
  DW_CFA_def_cfa_offset: 56
  DW_CFA_advance_loc: 4 to 0000000000425828
  DW_CFA_def_cfa_offset: 48
  DW_CFA_advance_loc: 1 to 0000000000425829
  DW_CFA_def_cfa_offset: 40
  DW_CFA_advance_loc: 2 to 000000000042582b
  DW_CFA_def_cfa_offset: 32
  DW_CFA_advance_loc: 2 to 000000000042582d
  DW_CFA_def_cfa_offset: 24
  DW_CFA_advance_loc: 2 to 000000000042582f
  DW_CFA_def_cfa_offset: 16
  DW_CFA_advance_loc: 2 to 0000000000425831
  DW_CFA_def_cfa_offset: 8
  DW_CFA_advance_loc: 7 to 0000000000425838
  DW_CFA_restore_state
  DW_CFA_nop
  DW_CFA_nop
  DW_CFA_nop
  DW_CFA_nop

000034d8 0000000000000014 000034ac FDE cie=00000030 pc=0000000000425d10..0000000000425d26
  DW_CFA_nop
  DW_CFA_nop
  DW_CFA_nop
  DW_CFA_nop
  DW_CFA_nop
  DW_CFA_nop
  DW_CFA_nop

000034f0 0000000000000014 000034c4 FDE cie=00000030 pc=0000000000425d30..0000000000426074
  DW_CFA_nop
  DW_CFA_nop
  DW_CFA_nop
  DW_CFA_nop
  DW_CFA_nop
  DW_CFA_nop
  DW_CFA_nop

00003508 0000000000000014 000034dc FDE cie=00000030 pc=0000000000426080..00000000004260b0
  DW_CFA_nop
  DW_CFA_nop
  DW_CFA_nop
  DW_CFA_nop
  DW_CFA_nop
  DW_CFA_nop
  DW_CFA_nop

00003520 0000000000000014 000034f4 FDE cie=00000030 pc=00000000004260b0..00000000004264b0
  DW_CFA_nop
  DW_CFA_nop
  DW_CFA_nop
  DW_CFA_nop
  DW_CFA_nop
  DW_CFA_nop
  DW_CFA_nop

00003538 000000000000004c 0000350c FDE cie=00000030 pc=00000000004264b0..000000000042660b
  DW_CFA_advance_loc: 2 to 00000000004264b2
  DW_CFA_def_cfa_offset: 16
  DW_CFA_offset: r13 (r13) at cfa-16
  DW_CFA_advance_loc: 5 to 00000000004264b7
  DW_CFA_def_cfa_offset: 24
  DW_CFA_offset: r12 (r12) at cfa-24
  DW_CFA_advance_loc: 1 to 00000000004264b8
  DW_CFA_def_cfa_offset: 32
  DW_CFA_offset: r6 (rbp) at cfa-32
  DW_CFA_advance_loc: 1 to 00000000004264b9
  DW_CFA_def_cfa_offset: 40
  DW_CFA_offset: r3 (rbx) at cfa-40
  DW_CFA_advance_loc: 10 to 00000000004264c3
  DW_CFA_def_cfa_offset: 48
  DW_CFA_advance_loc1: 152 to 000000000042655b
  DW_CFA_remember_state
  DW_CFA_def_cfa_offset: 40
  DW_CFA_advance_loc: 4 to 000000000042655f
  DW_CFA_def_cfa_offset: 32
  DW_CFA_advance_loc: 1 to 0000000000426560
  DW_CFA_def_cfa_offset: 24
  DW_CFA_advance_loc: 2 to 0000000000426562
  DW_CFA_def_cfa_offset: 16
  DW_CFA_advance_loc: 2 to 0000000000426564
  DW_CFA_def_cfa_offset: 8
  DW_CFA_advance_loc: 1 to 0000000000426565
  DW_CFA_restore_state
  DW_CFA_advance_loc1: 139 to 00000000004265f0
  DW_CFA_remember_state
  DW_CFA_def_cfa_offset: 40
  DW_CFA_advance_loc: 4 to 00000000004265f4
  DW_CFA_def_cfa_offset: 32
  DW_CFA_advance_loc: 1 to 00000000004265f5
  DW_CFA_def_cfa_offset: 24
  DW_CFA_advance_loc: 2 to 00000000004265f7
  DW_CFA_def_cfa_offset: 16
  DW_CFA_advance_loc: 2 to 00000000004265f9
  DW_CFA_def_cfa_offset: 8
  DW_CFA_advance_loc: 1 to 00000000004265fa
  DW_CFA_restore_state
  DW_CFA_nop
  DW_CFA_nop

00003588 0000000000000014 0000355c FDE cie=00000030 pc=000000000042660b..0000000000426650
  DW_CFA_nop
  DW_CFA_nop
  DW_CFA_nop
  DW_CFA_nop
  DW_CFA_nop
  DW_CFA_nop
  DW_CFA_nop

000035a0 0000000000000014 00003574 FDE cie=00000030 pc=0000000000426650..000000000042668a
  DW_CFA_nop
  DW_CFA_nop
  DW_CFA_nop
  DW_CFA_nop
  DW_CFA_nop
  DW_CFA_nop
  DW_CFA_nop

000035b8 0000000000000014 0000358c FDE cie=00000030 pc=0000000000426690..000000000042669c
  DW_CFA_nop
  DW_CFA_nop
  DW_CFA_nop
  DW_CFA_nop
  DW_CFA_nop
  DW_CFA_nop
  DW_CFA_nop

000035d0 0000000000000014 000035a4 FDE cie=00000030 pc=00000000004266a0..00000000004266b6
  DW_CFA_nop
  DW_CFA_nop
  DW_CFA_nop
  DW_CFA_nop
  DW_CFA_nop
  DW_CFA_nop
  DW_CFA_nop

000035e8 0000000000000014 000035bc FDE cie=00000030 pc=00000000004266c0..00000000004267a3
  DW_CFA_nop
  DW_CFA_nop
  DW_CFA_nop
  DW_CFA_nop
  DW_CFA_nop
  DW_CFA_nop
  DW_CFA_nop

00003600 000000000000003c 000035d4 FDE cie=00000030 pc=00000000004267b0..0000000000426c02
  DW_CFA_advance_loc2: 404 to 0000000000426944
  DW_CFA_offset: r14 (r14) at cfa-16
  DW_CFA_advance_loc: 5 to 0000000000426949
  DW_CFA_offset: r13 (r13) at cfa-24
  DW_CFA_advance_loc: 5 to 000000000042694e
  DW_CFA_offset: r12 (r12) at cfa-32
  DW_CFA_advance_loc: 5 to 0000000000426953
  DW_CFA_offset: r3 (rbx) at cfa-40
  DW_CFA_advance_loc2: 392 to 0000000000426adb
  DW_CFA_restore: r3 (rbx)
  DW_CFA_advance_loc: 5 to 0000000000426ae0
  DW_CFA_restore: r12 (r12)
  DW_CFA_advance_loc: 5 to 0000000000426ae5
  DW_CFA_restore: r13 (r13)
  DW_CFA_advance_loc: 5 to 0000000000426aea
  DW_CFA_restore: r14 (r14)
  DW_CFA_advance_loc: 56 to 0000000000426b22
  DW_CFA_offset: r14 (r14) at cfa-16
  DW_CFA_advance_loc: 5 to 0000000000426b27
  DW_CFA_offset: r13 (r13) at cfa-24
  DW_CFA_advance_loc: 5 to 0000000000426b2c
  DW_CFA_offset: r12 (r12) at cfa-32
  DW_CFA_advance_loc1: 191 to 0000000000426beb
  DW_CFA_restore: r12 (r12)
  DW_CFA_advance_loc: 5 to 0000000000426bf0
  DW_CFA_restore: r13 (r13)
  DW_CFA_advance_loc: 5 to 0000000000426bf5
  DW_CFA_restore: r14 (r14)
  DW_CFA_nop
  DW_CFA_nop
  DW_CFA_nop
  DW_CFA_nop
  DW_CFA_nop
  DW_CFA_nop
  DW_CFA_nop

00003640 0000000000000014 00003614 FDE cie=00000030 pc=0000000000426c10..0000000000426c3e
  DW_CFA_nop
  DW_CFA_nop
  DW_CFA_nop
  DW_CFA_nop
  DW_CFA_nop
  DW_CFA_nop
  DW_CFA_nop

00003658 0000000000000014 0000362c FDE cie=00000030 pc=0000000000426c40..0000000000426d1c
  DW_CFA_nop
  DW_CFA_nop
  DW_CFA_nop
  DW_CFA_nop
  DW_CFA_nop
  DW_CFA_nop
  DW_CFA_nop

00003670 0000000000000014 00003644 FDE cie=00000030 pc=0000000000426d20..0000000000426d5a
  DW_CFA_nop
  DW_CFA_nop
  DW_CFA_nop
  DW_CFA_nop
  DW_CFA_nop
  DW_CFA_nop
  DW_CFA_nop

00003688 0000000000000014 0000365c FDE cie=00000030 pc=0000000000426d60..0000000000426dad
  DW_CFA_nop
  DW_CFA_nop
  DW_CFA_nop
  DW_CFA_nop
  DW_CFA_nop
  DW_CFA_nop
  DW_CFA_nop

000036a0 0000000000000014 00003674 FDE cie=00000030 pc=0000000000428ff0..0000000000429000
  DW_CFA_nop
  DW_CFA_nop
  DW_CFA_nop
  DW_CFA_nop
  DW_CFA_nop
  DW_CFA_nop
  DW_CFA_nop

000036b8 0000000000000014 0000368c FDE cie=00000030 pc=0000000000429000..000000000042ab96
  DW_CFA_nop
  DW_CFA_nop
  DW_CFA_nop
  DW_CFA_nop
  DW_CFA_nop
  DW_CFA_nop
  DW_CFA_nop

000036d0 0000000000000014 000036a4 FDE cie=00000030 pc=000000000042aba0..000000000042abb0
  DW_CFA_nop
  DW_CFA_nop
  DW_CFA_nop
  DW_CFA_nop
  DW_CFA_nop
  DW_CFA_nop
  DW_CFA_nop

000036e8 0000000000000014 000036bc FDE cie=00000030 pc=000000000042abb0..000000000042c206
  DW_CFA_nop
  DW_CFA_nop
  DW_CFA_nop
  DW_CFA_nop
  DW_CFA_nop
  DW_CFA_nop
  DW_CFA_nop

00003700 0000000000000014 000036d4 FDE cie=00000030 pc=0000000000426db0..0000000000426dc0
  DW_CFA_nop
  DW_CFA_nop
  DW_CFA_nop
  DW_CFA_nop
  DW_CFA_nop
  DW_CFA_nop
  DW_CFA_nop

00003718 0000000000000014 000036ec FDE cie=00000030 pc=0000000000426dc0..0000000000428fe6
  DW_CFA_nop
  DW_CFA_nop
  DW_CFA_nop
  DW_CFA_nop
  DW_CFA_nop
  DW_CFA_nop
  DW_CFA_nop

00003730 000000000000003c 00003704 FDE cie=00000030 pc=000000000042c210..000000000042c675
  DW_CFA_advance_loc2: 420 to 000000000042c3b4
  DW_CFA_offset: r14 (r14) at cfa-24
  DW_CFA_advance_loc: 5 to 000000000042c3b9
  DW_CFA_offset: r13 (r13) at cfa-32
  DW_CFA_advance_loc: 5 to 000000000042c3be
  DW_CFA_offset: r12 (r12) at cfa-40
  DW_CFA_advance_loc: 5 to 000000000042c3c3
  DW_CFA_offset: r3 (rbx) at cfa-48
  DW_CFA_advance_loc2: 392 to 000000000042c54b
  DW_CFA_restore: r3 (rbx)
  DW_CFA_advance_loc: 5 to 000000000042c550
  DW_CFA_restore: r12 (r12)
  DW_CFA_advance_loc: 5 to 000000000042c555
  DW_CFA_restore: r13 (r13)
  DW_CFA_advance_loc: 5 to 000000000042c55a
  DW_CFA_restore: r14 (r14)
  DW_CFA_advance_loc: 56 to 000000000042c592
  DW_CFA_offset: r14 (r14) at cfa-24
  DW_CFA_advance_loc: 5 to 000000000042c597
  DW_CFA_offset: r13 (r13) at cfa-32
  DW_CFA_advance_loc: 5 to 000000000042c59c
  DW_CFA_offset: r12 (r12) at cfa-40
  DW_CFA_advance_loc1: 191 to 000000000042c65b
  DW_CFA_restore: r12 (r12)
  DW_CFA_advance_loc: 5 to 000000000042c660
  DW_CFA_restore: r13 (r13)
  DW_CFA_advance_loc: 5 to 000000000042c665
  DW_CFA_restore: r14 (r14)
  DW_CFA_nop
  DW_CFA_nop
  DW_CFA_nop
  DW_CFA_nop
  DW_CFA_nop
  DW_CFA_nop
  DW_CFA_nop

00003770 0000000000000014 00003744 FDE cie=00000030 pc=000000000042c680..000000000042c7ad
  DW_CFA_nop
  DW_CFA_nop
  DW_CFA_nop
  DW_CFA_nop
  DW_CFA_nop
  DW_CFA_nop
  DW_CFA_nop

00003788 000000000000001c 0000375c FDE cie=00000030 pc=000000000042c7b0..000000000042c8d6
  DW_CFA_advance_loc: 25 to 000000000042c7c9
  DW_CFA_def_cfa_offset: 16
  DW_CFA_offset: r3 (rbx) at cfa-16
  DW_CFA_advance_loc1: 97 to 000000000042c82a
  DW_CFA_remember_state
  DW_CFA_def_cfa_offset: 8
  DW_CFA_advance_loc: 6 to 000000000042c830
  DW_CFA_restore_state
  DW_CFA_nop
  DW_CFA_nop
  DW_CFA_nop

000037a8 0000000000000014 0000377c FDE cie=00000030 pc=000000000042c8e0..000000000042ca56
  DW_CFA_nop
  DW_CFA_nop
  DW_CFA_nop
  DW_CFA_nop
  DW_CFA_nop
  DW_CFA_nop
  DW_CFA_nop

000037c0 000000000000002c 00003794 FDE cie=00000030 pc=000000000042ca60..000000000042cbb6
  DW_CFA_advance_loc: 26 to 000000000042ca7a
  DW_CFA_def_cfa_offset: 16
  DW_CFA_offset: r12 (r12) at cfa-16
  DW_CFA_advance_loc: 1 to 000000000042ca7b
  DW_CFA_def_cfa_offset: 24
  DW_CFA_offset: r6 (rbp) at cfa-24
  DW_CFA_advance_loc: 8 to 000000000042ca83
  DW_CFA_def_cfa_offset: 32
  DW_CFA_offset: r3 (rbx) at cfa-32
  DW_CFA_advance_loc1: 96 to 000000000042cae3
  DW_CFA_remember_state
  DW_CFA_def_cfa_offset: 24
  DW_CFA_advance_loc: 1 to 000000000042cae4
  DW_CFA_def_cfa_offset: 16
  DW_CFA_advance_loc: 2 to 000000000042cae6
  DW_CFA_def_cfa_offset: 8
  DW_CFA_advance_loc: 10 to 000000000042caf0
  DW_CFA_restore_state
  DW_CFA_nop
  DW_CFA_nop
  DW_CFA_nop

000037f0 0000000000000014 000037c4 FDE cie=00000030 pc=000000000042cbc0..000000000042cdc4
  DW_CFA_nop
  DW_CFA_nop
  DW_CFA_nop
  DW_CFA_nop
  DW_CFA_nop
  DW_CFA_nop
  DW_CFA_nop

00003808 0000000000000014 000037dc FDE cie=00000030 pc=000000000042cdd0..000000000042cfda
  DW_CFA_nop
  DW_CFA_nop
  DW_CFA_nop
  DW_CFA_nop
  DW_CFA_nop
  DW_CFA_nop
  DW_CFA_nop

00003820 0000000000000014 000037f4 FDE cie=00000030 pc=000000000042cfe0..000000000042e239
  DW_CFA_nop
  DW_CFA_nop
  DW_CFA_nop
  DW_CFA_nop
  DW_CFA_nop
  DW_CFA_nop
  DW_CFA_nop

00003838 0000000000000014 0000380c FDE cie=00000030 pc=000000000042e240..000000000042e4e3
  DW_CFA_nop
  DW_CFA_nop
  DW_CFA_nop
  DW_CFA_nop
  DW_CFA_nop
  DW_CFA_nop
  DW_CFA_nop

00003850 0000000000000014 00003824 FDE cie=00000030 pc=000000000042e4f0..000000000042fb2e
  DW_CFA_nop
  DW_CFA_nop
  DW_CFA_nop
  DW_CFA_nop
  DW_CFA_nop
  DW_CFA_nop
  DW_CFA_nop

00003868 0000000000000014 0000383c FDE cie=00000030 pc=000000000042fb30..000000000042fb39
  DW_CFA_nop
  DW_CFA_nop
  DW_CFA_nop
  DW_CFA_nop
  DW_CFA_nop
  DW_CFA_nop
  DW_CFA_nop

00003880 0000000000000014 00003854 FDE cie=00000030 pc=000000000042fb40..00000000004326a7
  DW_CFA_nop
  DW_CFA_nop
  DW_CFA_nop
  DW_CFA_nop
  DW_CFA_nop
  DW_CFA_nop
  DW_CFA_nop

00003898 0000000000000014 0000386c FDE cie=00000030 pc=00000000004326b0..00000000004326b9
  DW_CFA_nop
  DW_CFA_nop
  DW_CFA_nop
  DW_CFA_nop
  DW_CFA_nop
  DW_CFA_nop
  DW_CFA_nop

000038b0 0000000000000014 00003884 FDE cie=00000030 pc=00000000004326c0..0000000000432b9b
  DW_CFA_nop
  DW_CFA_nop
  DW_CFA_nop
  DW_CFA_nop
  DW_CFA_nop
  DW_CFA_nop
  DW_CFA_nop

000038c8 0000000000000014 0000389c FDE cie=00000030 pc=0000000000432ba0..0000000000432ba9
  DW_CFA_nop
  DW_CFA_nop
  DW_CFA_nop
  DW_CFA_nop
  DW_CFA_nop
  DW_CFA_nop
  DW_CFA_nop

000038e0 0000000000000014 000038b4 FDE cie=00000030 pc=0000000000432bb0..00000000004356b6
  DW_CFA_nop
  DW_CFA_nop
  DW_CFA_nop
  DW_CFA_nop
  DW_CFA_nop
  DW_CFA_nop
  DW_CFA_nop

000038f8 0000000000000014 000038cc FDE cie=00000030 pc=00000000004356c0..00000000004356c9
  DW_CFA_nop
  DW_CFA_nop
  DW_CFA_nop
  DW_CFA_nop
  DW_CFA_nop
  DW_CFA_nop
  DW_CFA_nop

00003910 0000000000000014 000038e4 FDE cie=00000030 pc=00000000004356d0..0000000000435e08
  DW_CFA_nop
  DW_CFA_nop
  DW_CFA_nop
  DW_CFA_nop
  DW_CFA_nop
  DW_CFA_nop
  DW_CFA_nop

00003928 0000000000000014 000038fc FDE cie=00000030 pc=0000000000435e10..0000000000435e20
  DW_CFA_nop
  DW_CFA_nop
  DW_CFA_nop
  DW_CFA_nop
  DW_CFA_nop
  DW_CFA_nop
  DW_CFA_nop

00003940 0000000000000014 00003914 FDE cie=00000030 pc=0000000000435e20..0000000000437f56
  DW_CFA_nop
  DW_CFA_nop
  DW_CFA_nop
  DW_CFA_nop
  DW_CFA_nop
  DW_CFA_nop
  DW_CFA_nop

00003958 0000000000000014 0000392c FDE cie=00000030 pc=0000000000437f60..0000000000439702
  DW_CFA_nop
  DW_CFA_nop
  DW_CFA_nop
  DW_CFA_nop
  DW_CFA_nop
  DW_CFA_nop
  DW_CFA_nop

00003970 0000000000000014 00003944 FDE cie=00000030 pc=0000000000439710..000000000043af13
  DW_CFA_nop
  DW_CFA_nop
  DW_CFA_nop
  DW_CFA_nop
  DW_CFA_nop
  DW_CFA_nop
  DW_CFA_nop

00003988 0000000000000014 0000395c FDE cie=00000030 pc=000000000043af20..000000000043b543
  DW_CFA_nop
  DW_CFA_nop
  DW_CFA_nop
  DW_CFA_nop
  DW_CFA_nop
  DW_CFA_nop
  DW_CFA_nop

000039a0 0000000000000014 00003974 FDE cie=00000030 pc=000000000043b550..000000000043bbf7
  DW_CFA_nop
  DW_CFA_nop
  DW_CFA_nop
  DW_CFA_nop
  DW_CFA_nop
  DW_CFA_nop
  DW_CFA_nop

000039b8 0000000000000014 0000398c FDE cie=00000030 pc=000000000043bc00..000000000043bf15
  DW_CFA_nop
  DW_CFA_nop
  DW_CFA_nop
  DW_CFA_nop
  DW_CFA_nop
  DW_CFA_nop
  DW_CFA_nop

000039d0 0000000000000014 000039a4 FDE cie=00000030 pc=000000000043bf20..000000000043d683
  DW_CFA_nop
  DW_CFA_nop
  DW_CFA_nop
  DW_CFA_nop
  DW_CFA_nop
  DW_CFA_nop
  DW_CFA_nop

000039e8 0000000000000014 000039bc FDE cie=00000030 pc=000000000043d690..000000000043db23
  DW_CFA_nop
  DW_CFA_nop
  DW_CFA_nop
  DW_CFA_nop
  DW_CFA_nop
  DW_CFA_nop
  DW_CFA_nop

00003a00 0000000000000014 000039d4 FDE cie=00000030 pc=000000000043db30..000000000043dcc4
  DW_CFA_nop
  DW_CFA_nop
  DW_CFA_nop
  DW_CFA_nop
  DW_CFA_nop
  DW_CFA_nop
  DW_CFA_nop

00003a18 0000000000000014 000039ec FDE cie=00000030 pc=000000000043dcd0..000000000043df40
  DW_CFA_nop
  DW_CFA_nop
  DW_CFA_nop
  DW_CFA_nop
  DW_CFA_nop
  DW_CFA_nop
  DW_CFA_nop

00003a30 0000000000000074 00003a04 FDE cie=00000030 pc=000000000043df40..000000000043e20a
  DW_CFA_advance_loc: 17 to 000000000043df51
  DW_CFA_def_cfa_offset: 16
  DW_CFA_offset: r13 (r13) at cfa-16
  DW_CFA_advance_loc: 2 to 000000000043df53
  DW_CFA_def_cfa_offset: 24
  DW_CFA_offset: r12 (r12) at cfa-24
  DW_CFA_advance_loc: 1 to 000000000043df54
  DW_CFA_def_cfa_offset: 32
  DW_CFA_offset: r6 (rbp) at cfa-32
  DW_CFA_advance_loc: 1 to 000000000043df55
  DW_CFA_def_cfa_offset: 40
  DW_CFA_offset: r3 (rbx) at cfa-40
  DW_CFA_advance_loc: 21 to 000000000043df6a
  DW_CFA_def_cfa_offset: 48
  DW_CFA_advance_loc1: 205 to 000000000043e037
  DW_CFA_remember_state
  DW_CFA_def_cfa_offset: 40
  DW_CFA_advance_loc: 1 to 000000000043e038
  DW_CFA_restore: r3 (rbx)
  DW_CFA_def_cfa_offset: 32
  DW_CFA_advance_loc: 1 to 000000000043e039
  DW_CFA_restore: r6 (rbp)
  DW_CFA_def_cfa_offset: 24
  DW_CFA_advance_loc: 2 to 000000000043e03b
  DW_CFA_restore: r12 (r12)
  DW_CFA_def_cfa_offset: 16
  DW_CFA_advance_loc: 2 to 000000000043e03d
  DW_CFA_restore: r13 (r13)
  DW_CFA_def_cfa_offset: 8
  DW_CFA_advance_loc: 3 to 000000000043e040
  DW_CFA_restore_state
  DW_CFA_advance_loc2: 270 to 000000000043e14e
  DW_CFA_def_cfa_offset: 40
  DW_CFA_advance_loc: 6 to 000000000043e154
  DW_CFA_restore: r3 (rbx)
  DW_CFA_def_cfa_offset: 32
  DW_CFA_advance_loc: 5 to 000000000043e159
  DW_CFA_restore: r6 (rbp)
  DW_CFA_def_cfa_offset: 24
  DW_CFA_advance_loc: 2 to 000000000043e15b
  DW_CFA_restore: r12 (r12)
  DW_CFA_def_cfa_offset: 16
  DW_CFA_advance_loc: 2 to 000000000043e15d
  DW_CFA_restore: r13 (r13)
  DW_CFA_def_cfa_offset: 8
  DW_CFA_advance_loc: 4 to 000000000043e161
  DW_CFA_def_cfa_offset: 48
  DW_CFA_offset: r3 (rbx) at cfa-40
  DW_CFA_offset: r6 (rbp) at cfa-32
  DW_CFA_offset: r12 (r12) at cfa-24
  DW_CFA_offset: r13 (r13) at cfa-16
  DW_CFA_advance_loc: 39 to 000000000043e188
  DW_CFA_remember_state
  DW_CFA_def_cfa_offset: 40
  DW_CFA_advance_loc: 1 to 000000000043e189
  DW_CFA_restore: r3 (rbx)
  DW_CFA_def_cfa_offset: 32
  DW_CFA_advance_loc: 1 to 000000000043e18a
  DW_CFA_restore: r6 (rbp)
  DW_CFA_def_cfa_offset: 24
  DW_CFA_advance_loc: 2 to 000000000043e18c
  DW_CFA_restore: r12 (r12)
  DW_CFA_def_cfa_offset: 16
  DW_CFA_advance_loc: 2 to 000000000043e18e
  DW_CFA_restore: r13 (r13)
  DW_CFA_def_cfa_offset: 8
  DW_CFA_advance_loc: 1 to 000000000043e18f
  DW_CFA_restore_state
  DW_CFA_nop
  DW_CFA_nop
  DW_CFA_nop

00003aa8 0000000000000074 00003a7c FDE cie=00000030 pc=000000000043e210..000000000043e329
  DW_CFA_advance_loc: 11 to 000000000043e21b
  DW_CFA_def_cfa_offset: 16
  DW_CFA_offset: r15 (r15) at cfa-16
  DW_CFA_advance_loc: 2 to 000000000043e21d
  DW_CFA_def_cfa_offset: 24
  DW_CFA_offset: r14 (r14) at cfa-24
  DW_CFA_advance_loc: 8 to 000000000043e225
  DW_CFA_def_cfa_offset: 32
  DW_CFA_offset: r13 (r13) at cfa-32
  DW_CFA_advance_loc: 2 to 000000000043e227
  DW_CFA_def_cfa_offset: 40
  DW_CFA_offset: r12 (r12) at cfa-40
  DW_CFA_advance_loc: 7 to 000000000043e22e
  DW_CFA_def_cfa_offset: 48
  DW_CFA_offset: r6 (rbp) at cfa-48
  DW_CFA_advance_loc: 1 to 000000000043e22f
  DW_CFA_def_cfa_offset: 56
  DW_CFA_offset: r3 (rbx) at cfa-56
  DW_CFA_advance_loc: 6 to 000000000043e235
  DW_CFA_def_cfa_offset: 80
  DW_CFA_advance_loc1: 200 to 000000000043e2fd
  DW_CFA_def_cfa_offset: 56
  DW_CFA_advance_loc: 1 to 000000000043e2fe
  DW_CFA_restore: r3 (rbx)
  DW_CFA_def_cfa_offset: 48
  DW_CFA_advance_loc: 1 to 000000000043e2ff
  DW_CFA_restore: r6 (rbp)
  DW_CFA_def_cfa_offset: 40
  DW_CFA_advance_loc: 2 to 000000000043e301
  DW_CFA_restore: r12 (r12)
  DW_CFA_def_cfa_offset: 32
  DW_CFA_advance_loc: 2 to 000000000043e303
  DW_CFA_restore: r13 (r13)
  DW_CFA_def_cfa_offset: 24
  DW_CFA_advance_loc: 2 to 000000000043e305
  DW_CFA_restore: r14 (r14)
  DW_CFA_def_cfa_offset: 16
  DW_CFA_advance_loc: 2 to 000000000043e307
  DW_CFA_restore: r15 (r15)
  DW_CFA_def_cfa_offset: 8
  DW_CFA_advance_loc: 17 to 000000000043e318
  DW_CFA_def_cfa_offset: 80
  DW_CFA_offset: r3 (rbx) at cfa-56
  DW_CFA_offset: r6 (rbp) at cfa-48
  DW_CFA_offset: r12 (r12) at cfa-40
  DW_CFA_offset: r13 (r13) at cfa-32
  DW_CFA_offset: r14 (r14) at cfa-24
  DW_CFA_offset: r15 (r15) at cfa-16
  DW_CFA_advance_loc: 4 to 000000000043e31c
  DW_CFA_def_cfa_offset: 56
  DW_CFA_advance_loc: 3 to 000000000043e31f
  DW_CFA_restore: r3 (rbx)
  DW_CFA_def_cfa_offset: 48
  DW_CFA_advance_loc: 1 to 000000000043e320
  DW_CFA_restore: r6 (rbp)
  DW_CFA_def_cfa_offset: 40
  DW_CFA_advance_loc: 2 to 000000000043e322
  DW_CFA_restore: r12 (r12)
  DW_CFA_def_cfa_offset: 32
  DW_CFA_advance_loc: 2 to 000000000043e324
  DW_CFA_restore: r13 (r13)
  DW_CFA_def_cfa_offset: 24
  DW_CFA_advance_loc: 2 to 000000000043e326
  DW_CFA_restore: r14 (r14)
  DW_CFA_def_cfa_offset: 16
  DW_CFA_advance_loc: 2 to 000000000043e328
  DW_CFA_restore: r15 (r15)
  DW_CFA_def_cfa_offset: 8

00003b20 000000000000007c 00003af4 FDE cie=00000030 pc=000000000043e330..000000000043e4b9
  DW_CFA_advance_loc: 1 to 000000000043e331
  DW_CFA_def_cfa_offset: 16
  DW_CFA_offset: r3 (rbx) at cfa-16
  DW_CFA_advance_loc1: 82 to 000000000043e383
  DW_CFA_remember_state
  DW_CFA_def_cfa_offset: 8
  DW_CFA_advance_loc: 5 to 000000000043e388
  DW_CFA_restore_state
  DW_CFA_advance_loc: 19 to 000000000043e39b
  DW_CFA_remember_state
  DW_CFA_def_cfa_offset: 8
  DW_CFA_advance_loc: 5 to 000000000043e3a0
  DW_CFA_restore_state
  DW_CFA_advance_loc: 18 to 000000000043e3b2
  DW_CFA_remember_state
  DW_CFA_def_cfa_offset: 8
  DW_CFA_advance_loc: 6 to 000000000043e3b8
  DW_CFA_restore_state
  DW_CFA_advance_loc: 11 to 000000000043e3c3
  DW_CFA_remember_state
  DW_CFA_def_cfa_offset: 8
  DW_CFA_advance_loc: 5 to 000000000043e3c8
  DW_CFA_restore_state
  DW_CFA_advance_loc: 11 to 000000000043e3d3
  DW_CFA_remember_state
  DW_CFA_def_cfa_offset: 8
  DW_CFA_advance_loc: 5 to 000000000043e3d8
  DW_CFA_restore_state
  DW_CFA_advance_loc: 21 to 000000000043e3ed
  DW_CFA_remember_state
  DW_CFA_def_cfa_offset: 8
  DW_CFA_advance_loc: 11 to 000000000043e3f8
  DW_CFA_restore_state
  DW_CFA_advance_loc: 40 to 000000000043e420
  DW_CFA_remember_state
  DW_CFA_def_cfa_offset: 8
  DW_CFA_advance_loc: 16 to 000000000043e430
  DW_CFA_restore_state
  DW_CFA_advance_loc: 21 to 000000000043e445
  DW_CFA_remember_state
  DW_CFA_def_cfa_offset: 8
  DW_CFA_advance_loc: 1 to 000000000043e446
  DW_CFA_restore_state
  DW_CFA_advance_loc: 6 to 000000000043e44c
  DW_CFA_remember_state
  DW_CFA_def_cfa_offset: 8
  DW_CFA_advance_loc: 1 to 000000000043e44d
  DW_CFA_restore_state
  DW_CFA_advance_loc: 6 to 000000000043e453
  DW_CFA_remember_state
  DW_CFA_def_cfa_offset: 8
  DW_CFA_advance_loc: 1 to 000000000043e454
  DW_CFA_restore_state
  DW_CFA_advance_loc: 6 to 000000000043e45a
  DW_CFA_remember_state
  DW_CFA_def_cfa_offset: 8
  DW_CFA_advance_loc: 1 to 000000000043e45b
  DW_CFA_restore_state
  DW_CFA_advance_loc: 6 to 000000000043e461
  DW_CFA_remember_state
  DW_CFA_def_cfa_offset: 8
  DW_CFA_advance_loc: 1 to 000000000043e462
  DW_CFA_restore_state
  DW_CFA_advance_loc: 6 to 000000000043e468
  DW_CFA_remember_state
  DW_CFA_def_cfa_offset: 8
  DW_CFA_advance_loc: 1 to 000000000043e469
  DW_CFA_restore_state
  DW_CFA_advance_loc: 6 to 000000000043e46f
  DW_CFA_remember_state
  DW_CFA_def_cfa_offset: 8
  DW_CFA_advance_loc: 1 to 000000000043e470
  DW_CFA_restore_state
  DW_CFA_advance_loc: 20 to 000000000043e484
  DW_CFA_remember_state
  DW_CFA_def_cfa_offset: 8
  DW_CFA_advance_loc: 3 to 000000000043e487
  DW_CFA_restore_state
  DW_CFA_advance_loc: 4 to 000000000043e48b
  DW_CFA_remember_state
  DW_CFA_def_cfa_offset: 8
  DW_CFA_advance_loc: 1 to 000000000043e48c
  DW_CFA_restore_state
  DW_CFA_advance_loc: 17 to 000000000043e49d
  DW_CFA_remember_state
  DW_CFA_def_cfa_offset: 8
  DW_CFA_advance_loc: 3 to 000000000043e4a0
  DW_CFA_restore_state
  DW_CFA_nop
  DW_CFA_nop
  DW_CFA_nop

00003ba0 0000000000000014 00003b74 FDE cie=00000030 pc=000000000043e4c0..000000000043e4eb
  DW_CFA_nop
  DW_CFA_nop
  DW_CFA_nop
  DW_CFA_nop
  DW_CFA_nop
  DW_CFA_nop
  DW_CFA_nop

00003bb8 000000000000003c 00003b8c FDE cie=00000030 pc=00000000004005f0..000000000040088a
  DW_CFA_advance_loc: 8 to 00000000004005f8
  DW_CFA_def_cfa_offset: 16
  DW_CFA_offset: r12 (r12) at cfa-16
  DW_CFA_advance_loc: 1 to 00000000004005f9
  DW_CFA_def_cfa_offset: 24
  DW_CFA_offset: r6 (rbp) at cfa-24
  DW_CFA_advance_loc: 1 to 00000000004005fa
  DW_CFA_def_cfa_offset: 32
  DW_CFA_offset: r3 (rbx) at cfa-32
  DW_CFA_advance_loc: 15 to 0000000000400609
  DW_CFA_remember_state
  DW_CFA_def_cfa_offset: 24
  DW_CFA_advance_loc: 1 to 000000000040060a
  DW_CFA_def_cfa_offset: 16
  DW_CFA_advance_loc: 2 to 000000000040060c
  DW_CFA_def_cfa_offset: 8
  DW_CFA_advance_loc: 1 to 000000000040060d
  DW_CFA_restore_state
  DW_CFA_advance_loc1: 247 to 0000000000400704
  DW_CFA_remember_state
  DW_CFA_def_cfa_offset: 24
  DW_CFA_advance_loc: 8 to 000000000040070c
  DW_CFA_def_cfa_offset: 16
  DW_CFA_advance_loc: 2 to 000000000040070e
  DW_CFA_def_cfa_offset: 8
  DW_CFA_advance_loc: 1 to 000000000040070f
  DW_CFA_restore_state
  DW_CFA_nop
  DW_CFA_nop
  DW_CFA_nop
  DW_CFA_nop
  DW_CFA_nop
  DW_CFA_nop
  DW_CFA_nop

00003bf8 0000000000000014 00003bcc FDE cie=00000030 pc=000000000043e4f0..000000000043e52b
  DW_CFA_nop
  DW_CFA_nop
  DW_CFA_nop
  DW_CFA_nop
  DW_CFA_nop
  DW_CFA_nop
  DW_CFA_nop

00003c10 0000000000000014 00003be4 FDE cie=00000030 pc=000000000043e530..000000000043e539
  DW_CFA_nop
  DW_CFA_nop
  DW_CFA_nop
  DW_CFA_nop
  DW_CFA_nop
  DW_CFA_nop
  DW_CFA_nop

00003c28 000000000000001c 00003bfc FDE cie=00000030 pc=000000000043e540..000000000043e582
  DW_CFA_advance_loc: 1 to 000000000043e541
  DW_CFA_def_cfa_offset: 16
  DW_CFA_offset: r3 (rbx) at cfa-16
  DW_CFA_advance_loc: 54 to 000000000043e577
  DW_CFA_remember_state
  DW_CFA_def_cfa_offset: 8
  DW_CFA_advance_loc: 9 to 000000000043e580
  DW_CFA_restore_state
  DW_CFA_advance_loc: 1 to 000000000043e581
  DW_CFA_def_cfa_offset: 8
  DW_CFA_nop

00003c48 0000000000000034 00003c1c FDE cie=00000030 pc=000000000043e590..000000000043e5e8
  DW_CFA_advance_loc: 1 to 000000000043e591
  DW_CFA_def_cfa_offset: 16
  DW_CFA_offset: r3 (rbx) at cfa-16
  DW_CFA_advance_loc: 10 to 000000000043e59b
  DW_CFA_def_cfa_offset: 32
  DW_CFA_advance_loc: 41 to 000000000043e5c4
  DW_CFA_remember_state
  DW_CFA_def_cfa_offset: 16
  DW_CFA_advance_loc: 3 to 000000000043e5c7
  DW_CFA_def_cfa_offset: 8
  DW_CFA_advance_loc: 9 to 000000000043e5d0
  DW_CFA_restore_state
  DW_CFA_advance_loc: 12 to 000000000043e5dc
  DW_CFA_remember_state
  DW_CFA_def_cfa_offset: 16
  DW_CFA_advance_loc: 1 to 000000000043e5dd
  DW_CFA_def_cfa_offset: 8
  DW_CFA_advance_loc: 3 to 000000000043e5e0
  DW_CFA_restore_state
  DW_CFA_advance_loc: 4 to 000000000043e5e4
  DW_CFA_def_cfa_offset: 16
  DW_CFA_advance_loc: 3 to 000000000043e5e7
  DW_CFA_def_cfa_offset: 8
  DW_CFA_nop
  DW_CFA_nop
  DW_CFA_nop
  DW_CFA_nop
  DW_CFA_nop
  DW_CFA_nop
  DW_CFA_nop

00003c80 0000000000000024 00003c54 FDE cie=00000030 pc=000000000043e5f0..000000000043e836
  DW_CFA_advance_loc: 1 to 000000000043e5f1
  DW_CFA_def_cfa_offset: 16
  DW_CFA_offset: r6 (rbp) at cfa-16
  DW_CFA_advance_loc: 8 to 000000000043e5f9
  DW_CFA_def_cfa_register: r6 (rbp)
  DW_CFA_advance_loc: 5 to 000000000043e5fe
  DW_CFA_offset: r13 (r13) at cfa-24
  DW_CFA_offset: r12 (r12) at cfa-32
  DW_CFA_offset: r3 (rbx) at cfa-40
  DW_CFA_advance_loc: 53 to 000000000043e633
  DW_CFA_remember_state
  DW_CFA_def_cfa: r7 (rsp) ofs 8
  DW_CFA_advance_loc: 5 to 000000000043e638
  DW_CFA_restore_state
  DW_CFA_nop

00003ca8 000000000000002c 00003c7c FDE cie=00000030 pc=000000000043e840..000000000043e8bc
  DW_CFA_advance_loc: 1 to 000000000043e841
  DW_CFA_def_cfa_offset: 16
  DW_CFA_offset: r6 (rbp) at cfa-16
  DW_CFA_advance_loc: 1 to 000000000043e842
  DW_CFA_def_cfa_offset: 24
  DW_CFA_offset: r3 (rbx) at cfa-24
  DW_CFA_advance_loc: 7 to 000000000043e849
  DW_CFA_def_cfa_offset: 32
  DW_CFA_advance_loc1: 81 to 000000000043e89a
  DW_CFA_remember_state
  DW_CFA_def_cfa_offset: 24
  DW_CFA_advance_loc: 1 to 000000000043e89b
  DW_CFA_def_cfa_offset: 16
  DW_CFA_advance_loc: 1 to 000000000043e89c
  DW_CFA_def_cfa_offset: 8
  DW_CFA_advance_loc: 4 to 000000000043e8a0
  DW_CFA_restore_state
  DW_CFA_nop
  DW_CFA_nop
  DW_CFA_nop
  DW_CFA_nop
  DW_CFA_nop

00003cd8 0000000000000044 00003cac FDE cie=00000030 pc=000000000043e8c0..000000000043e9b2
  DW_CFA_advance_loc: 1 to 000000000043e8c1
  DW_CFA_def_cfa_offset: 16
  DW_CFA_offset: r6 (rbp) at cfa-16
  DW_CFA_advance_loc: 1 to 000000000043e8c2
  DW_CFA_def_cfa_offset: 24
  DW_CFA_offset: r3 (rbx) at cfa-24
  DW_CFA_advance_loc: 18 to 000000000043e8d4
  DW_CFA_def_cfa_offset: 48
  DW_CFA_advance_loc: 57 to 000000000043e90d
  DW_CFA_remember_state
  DW_CFA_def_cfa_offset: 24
  DW_CFA_advance_loc: 1 to 000000000043e90e
  DW_CFA_def_cfa_offset: 16
  DW_CFA_advance_loc: 1 to 000000000043e90f
  DW_CFA_def_cfa_offset: 8
  DW_CFA_advance_loc: 1 to 000000000043e910
  DW_CFA_restore_state
  DW_CFA_advance_loc1: 118 to 000000000043e986
  DW_CFA_remember_state
  DW_CFA_def_cfa_offset: 24
  DW_CFA_advance_loc: 1 to 000000000043e987
  DW_CFA_def_cfa_offset: 16
  DW_CFA_advance_loc: 1 to 000000000043e988
  DW_CFA_def_cfa_offset: 8
  DW_CFA_advance_loc: 8 to 000000000043e990
  DW_CFA_restore_state
  DW_CFA_advance_loc: 11 to 000000000043e99b
  DW_CFA_remember_state
  DW_CFA_def_cfa_offset: 24
  DW_CFA_advance_loc: 6 to 000000000043e9a1
  DW_CFA_def_cfa_offset: 16
  DW_CFA_advance_loc: 1 to 000000000043e9a2
  DW_CFA_def_cfa_offset: 8
  DW_CFA_advance_loc: 6 to 000000000043e9a8
  DW_CFA_restore_state
  DW_CFA_nop
  DW_CFA_nop
  DW_CFA_nop
  DW_CFA_nop
  DW_CFA_nop

00003d20 0000000000000014 00003cf4 FDE cie=00000030 pc=000000000043e9c0..000000000043ea18
  DW_CFA_nop
  DW_CFA_nop
  DW_CFA_nop
  DW_CFA_nop
  DW_CFA_nop
  DW_CFA_nop
  DW_CFA_nop

00003d38 0000000000000014 00003d0c FDE cie=00000030 pc=000000000043ea20..000000000043ea5c
  DW_CFA_nop
  DW_CFA_nop
  DW_CFA_nop
  DW_CFA_nop
  DW_CFA_nop
  DW_CFA_nop
  DW_CFA_nop

00003d50 000000000000002c 00003d24 FDE cie=00000030 pc=000000000043ea60..000000000043eb40
  DW_CFA_advance_loc: 1 to 000000000043ea61
  DW_CFA_def_cfa_offset: 16
  DW_CFA_offset: r6 (rbp) at cfa-16
  DW_CFA_advance_loc: 3 to 000000000043ea64
  DW_CFA_def_cfa_register: r6 (rbp)
  DW_CFA_advance_loc: 8 to 000000000043ea6c
  DW_CFA_offset: r15 (r15) at cfa-24
  DW_CFA_offset: r14 (r14) at cfa-32
  DW_CFA_offset: r13 (r13) at cfa-40
  DW_CFA_offset: r12 (r12) at cfa-48
  DW_CFA_advance_loc: 16 to 000000000043ea7c
  DW_CFA_offset: r3 (rbx) at cfa-56
  DW_CFA_advance_loc1: 169 to 000000000043eb25
  DW_CFA_remember_state
  DW_CFA_def_cfa: r7 (rsp) ofs 8
  DW_CFA_advance_loc: 11 to 000000000043eb30
  DW_CFA_restore_state
  DW_CFA_nop
  DW_CFA_nop
  DW_CFA_nop

00003d80 0000000000000034 00003d54 FDE cie=00000030 pc=000000000043eb40..000000000043f259
  DW_CFA_advance_loc: 1 to 000000000043eb41
  DW_CFA_def_cfa_offset: 16
  DW_CFA_offset: r6 (rbp) at cfa-16
  DW_CFA_advance_loc: 1 to 000000000043eb42
  DW_CFA_def_cfa_offset: 24
  DW_CFA_offset: r3 (rbx) at cfa-24
  DW_CFA_advance_loc: 12 to 000000000043eb4e
  DW_CFA_def_cfa_offset: 80
  DW_CFA_advance_loc2: 277 to 000000000043ec63
  DW_CFA_remember_state
  DW_CFA_def_cfa_offset: 24
  DW_CFA_advance_loc: 1 to 000000000043ec64
  DW_CFA_def_cfa_offset: 16
  DW_CFA_advance_loc: 1 to 000000000043ec65
  DW_CFA_def_cfa_offset: 8
  DW_CFA_advance_loc: 11 to 000000000043ec70
  DW_CFA_restore_state
  DW_CFA_advance_loc: 11 to 000000000043ec7b
  DW_CFA_remember_state
  DW_CFA_def_cfa_offset: 24
  DW_CFA_advance_loc: 1 to 000000000043ec7c
  DW_CFA_def_cfa_offset: 16
  DW_CFA_advance_loc: 1 to 000000000043ec7d
  DW_CFA_def_cfa_offset: 8
  DW_CFA_advance_loc: 3 to 000000000043ec80
  DW_CFA_restore_state

00003db8 0000000000000014 00003d8c FDE cie=00000030 pc=000000000043f260..000000000043f274
  DW_CFA_nop
  DW_CFA_nop
  DW_CFA_nop
  DW_CFA_nop
  DW_CFA_nop
  DW_CFA_nop
  DW_CFA_nop

00003dd0 0000000000000014 00003da4 FDE cie=00000030 pc=000000000043f280..000000000043f2a4
  DW_CFA_advance_loc: 4 to 000000000043f284
  DW_CFA_def_cfa_offset: 32
  DW_CFA_advance_loc: 31 to 000000000043f2a3
  DW_CFA_def_cfa_offset: 8
  DW_CFA_nop

00003de8 0000000000000014 00003dbc FDE cie=00000030 pc=000000000043f2b0..000000000043f2fc
  DW_CFA_nop
  DW_CFA_nop
  DW_CFA_nop
  DW_CFA_nop
  DW_CFA_nop
  DW_CFA_nop
  DW_CFA_nop

00003e00 0000000000000014 00003dd4 FDE cie=00000030 pc=000000000043f300..000000000043f34c
  DW_CFA_nop
  DW_CFA_nop
  DW_CFA_nop
  DW_CFA_nop
  DW_CFA_nop
  DW_CFA_nop
  DW_CFA_nop

00003e18 0000000000000014 00003dec FDE cie=00000030 pc=000000000043f350..000000000043f3a1
  DW_CFA_advance_loc: 33 to 000000000043f371
  DW_CFA_def_cfa_offset: 16
  DW_CFA_advance_loc: 35 to 000000000043f394
  DW_CFA_def_cfa_offset: 8
  DW_CFA_nop

00003e30 0000000000000014 00003e04 FDE cie=00000030 pc=000000000043f3b0..000000000043f401
  DW_CFA_advance_loc: 33 to 000000000043f3d1
  DW_CFA_def_cfa_offset: 16
  DW_CFA_advance_loc: 35 to 000000000043f3f4
  DW_CFA_def_cfa_offset: 8
  DW_CFA_nop

00003e48 0000000000000014 00003e1c FDE cie=00000030 pc=000000000043f410..000000000043f461
  DW_CFA_advance_loc: 33 to 000000000043f431
  DW_CFA_def_cfa_offset: 16
  DW_CFA_advance_loc: 35 to 000000000043f454
  DW_CFA_def_cfa_offset: 8
  DW_CFA_nop

00003e60 0000000000000014 00003e34 FDE cie=00000030 pc=000000000043f470..000000000043f4f2
  DW_CFA_nop
  DW_CFA_nop
  DW_CFA_nop
  DW_CFA_nop
  DW_CFA_nop
  DW_CFA_nop
  DW_CFA_nop

00003e78 000000000000002c 00003e4c FDE cie=00000030 pc=000000000043f500..000000000043f5fb
  DW_CFA_advance_loc: 1 to 000000000043f501
  DW_CFA_def_cfa_offset: 16
  DW_CFA_offset: r3 (rbx) at cfa-16
  DW_CFA_advance_loc: 4 to 000000000043f505
  DW_CFA_def_cfa_offset: 112
  DW_CFA_advance_loc1: 78 to 000000000043f553
  DW_CFA_remember_state
  DW_CFA_def_cfa_offset: 16
  DW_CFA_advance_loc: 1 to 000000000043f554
  DW_CFA_def_cfa_offset: 8
  DW_CFA_advance_loc: 4 to 000000000043f558
  DW_CFA_restore_state
  DW_CFA_advance_loc: 47 to 000000000043f587
  DW_CFA_remember_state
  DW_CFA_def_cfa_offset: 16
  DW_CFA_advance_loc: 1 to 000000000043f588
  DW_CFA_def_cfa_offset: 8
  DW_CFA_advance_loc: 8 to 000000000043f590
  DW_CFA_restore_state
  DW_CFA_nop
  DW_CFA_nop
  DW_CFA_nop
  DW_CFA_nop

00003ea8 000000000000004c 00003e7c FDE cie=00000030 pc=000000000043f600..000000000043fcfd
  DW_CFA_advance_loc: 2 to 000000000043f602
  DW_CFA_def_cfa_offset: 16
  DW_CFA_offset: r15 (r15) at cfa-16
  DW_CFA_advance_loc: 2 to 000000000043f604
  DW_CFA_def_cfa_offset: 24
  DW_CFA_offset: r14 (r14) at cfa-24
  DW_CFA_advance_loc: 5 to 000000000043f609
  DW_CFA_def_cfa_offset: 32
  DW_CFA_offset: r13 (r13) at cfa-32
  DW_CFA_advance_loc: 2 to 000000000043f60b
  DW_CFA_def_cfa_offset: 40
  DW_CFA_offset: r12 (r12) at cfa-40
  DW_CFA_advance_loc: 1 to 000000000043f60c
  DW_CFA_def_cfa_offset: 48
  DW_CFA_offset: r6 (rbp) at cfa-48
  DW_CFA_advance_loc: 1 to 000000000043f60d
  DW_CFA_def_cfa_offset: 56
  DW_CFA_offset: r3 (rbx) at cfa-56
  DW_CFA_advance_loc: 10 to 000000000043f617
  DW_CFA_def_cfa_offset: 304
  DW_CFA_advance_loc1: 82 to 000000000043f669
  DW_CFA_remember_state
  DW_CFA_def_cfa_offset: 56
  DW_CFA_advance_loc: 1 to 000000000043f66a
  DW_CFA_def_cfa_offset: 48
  DW_CFA_advance_loc: 1 to 000000000043f66b
  DW_CFA_def_cfa_offset: 40
  DW_CFA_advance_loc: 2 to 000000000043f66d
  DW_CFA_def_cfa_offset: 32
  DW_CFA_advance_loc: 2 to 000000000043f66f
  DW_CFA_def_cfa_offset: 24
  DW_CFA_advance_loc: 2 to 000000000043f671
  DW_CFA_def_cfa_offset: 16
  DW_CFA_advance_loc: 2 to 000000000043f673
  DW_CFA_def_cfa_offset: 8
  DW_CFA_advance_loc: 5 to 000000000043f678
  DW_CFA_restore_state
  DW_CFA_nop
  DW_CFA_nop
  DW_CFA_nop
  DW_CFA_nop

00003ef8 0000000000000014 00003ecc FDE cie=00000030 pc=000000000043fd00..000000000043fd14
  DW_CFA_nop
  DW_CFA_nop
  DW_CFA_nop
  DW_CFA_nop
  DW_CFA_nop
  DW_CFA_nop
  DW_CFA_nop

00003f10 0000000000000034 00003ee4 FDE cie=00000030 pc=000000000043fd20..000000000043fdbe
  DW_CFA_advance_loc: 1 to 000000000043fd21
  DW_CFA_def_cfa_offset: 16
  DW_CFA_offset: r6 (rbp) at cfa-16
  DW_CFA_advance_loc: 1 to 000000000043fd22
  DW_CFA_def_cfa_offset: 24
  DW_CFA_offset: r3 (rbx) at cfa-24
  DW_CFA_advance_loc: 7 to 000000000043fd29
  DW_CFA_def_cfa_offset: 32
  DW_CFA_advance_loc1: 68 to 000000000043fd6d
  DW_CFA_remember_state
  DW_CFA_def_cfa_offset: 24
  DW_CFA_advance_loc: 4 to 000000000043fd71
  DW_CFA_def_cfa_offset: 16
  DW_CFA_advance_loc: 1 to 000000000043fd72
  DW_CFA_def_cfa_offset: 8
  DW_CFA_advance_loc: 6 to 000000000043fd78
  DW_CFA_restore_state
  DW_CFA_advance_loc: 41 to 000000000043fda1
  DW_CFA_remember_state
  DW_CFA_def_cfa_offset: 24
  DW_CFA_advance_loc: 4 to 000000000043fda5
  DW_CFA_def_cfa_offset: 16
  DW_CFA_advance_loc: 1 to 000000000043fda6
  DW_CFA_def_cfa_offset: 8
  DW_CFA_advance_loc: 10 to 000000000043fdb0
  DW_CFA_restore_state
  DW_CFA_nop

00003f48 0000000000000014 00003f1c FDE cie=00000030 pc=000000000043fdc0..000000000043fde8
  DW_CFA_advance_loc: 15 to 000000000043fdcf
  DW_CFA_def_cfa_offset: 16
  DW_CFA_nop
  DW_CFA_nop
  DW_CFA_nop
  DW_CFA_nop

00003f60 0000000000000014 00003f34 FDE cie=00000030 pc=000000000043fdf0..000000000043fe13
  DW_CFA_advance_loc: 4 to 000000000043fdf4
  DW_CFA_def_cfa_offset: 32
  DW_CFA_advance_loc: 28 to 000000000043fe10
  DW_CFA_def_cfa_offset: 8
  DW_CFA_nop

00003f78 0000000000000044 00003f4c FDE cie=00000030 pc=000000000043fe20..000000000043fed6
  DW_CFA_advance_loc: 5 to 000000000043fe25
  DW_CFA_def_cfa_offset: 16
  DW_CFA_offset: r15 (r15) at cfa-16
  DW_CFA_advance_loc: 5 to 000000000043fe2a
  DW_CFA_def_cfa_offset: 24
  DW_CFA_offset: r14 (r14) at cfa-24
  DW_CFA_advance_loc: 5 to 000000000043fe2f
  DW_CFA_def_cfa_offset: 32
  DW_CFA_offset: r13 (r13) at cfa-32
  DW_CFA_advance_loc: 5 to 000000000043fe34
  DW_CFA_def_cfa_offset: 40
  DW_CFA_offset: r12 (r12) at cfa-40
  DW_CFA_advance_loc: 4 to 000000000043fe38
  DW_CFA_def_cfa_offset: 48
  DW_CFA_offset: r6 (rbp) at cfa-48
  DW_CFA_advance_loc: 1 to 000000000043fe39
  DW_CFA_def_cfa_offset: 56
  DW_CFA_offset: r3 (rbx) at cfa-56
  DW_CFA_advance_loc: 42 to 000000000043fe63
  DW_CFA_remember_state
  DW_CFA_def_cfa_offset: 48
  DW_CFA_advance_loc: 1 to 000000000043fe64
  DW_CFA_def_cfa_offset: 40
  DW_CFA_advance_loc: 2 to 000000000043fe66
  DW_CFA_def_cfa_offset: 32
  DW_CFA_advance_loc: 2 to 000000000043fe68
  DW_CFA_def_cfa_offset: 24
  DW_CFA_advance_loc: 2 to 000000000043fe6a
  DW_CFA_def_cfa_offset: 16
  DW_CFA_advance_loc: 2 to 000000000043fe6c
  DW_CFA_def_cfa_offset: 8
  DW_CFA_advance_loc: 4 to 000000000043fe70
  DW_CFA_restore_state
  DW_CFA_nop
  DW_CFA_nop
  DW_CFA_nop
  DW_CFA_nop

00003fc0 0000000000000014 00003f94 FDE cie=00000030 pc=000000000043fee0..000000000043fef4
  DW_CFA_nop
  DW_CFA_nop
  DW_CFA_nop
  DW_CFA_nop
  DW_CFA_nop
  DW_CFA_nop
  DW_CFA_nop

00003fd8 0000000000000014 00003fac FDE cie=00000030 pc=000000000043ff00..000000000043ff14
  DW_CFA_nop
  DW_CFA_nop
  DW_CFA_nop
  DW_CFA_nop
  DW_CFA_nop
  DW_CFA_nop
  DW_CFA_nop

00003ff0 0000000000000014 00003fc4 FDE cie=00000030 pc=000000000043ff20..000000000043ff34
  DW_CFA_nop
  DW_CFA_nop
  DW_CFA_nop
  DW_CFA_nop
  DW_CFA_nop
  DW_CFA_nop
  DW_CFA_nop

00004008 0000000000000034 00003fdc FDE cie=00000030 pc=000000000043ff40..000000000043ffc2
  DW_CFA_advance_loc: 2 to 000000000043ff42
  DW_CFA_def_cfa_offset: 16
  DW_CFA_offset: r12 (r12) at cfa-16
  DW_CFA_advance_loc: 1 to 000000000043ff43
  DW_CFA_def_cfa_offset: 24
  DW_CFA_offset: r6 (rbp) at cfa-24
  DW_CFA_advance_loc: 4 to 000000000043ff47
  DW_CFA_def_cfa_offset: 32
  DW_CFA_offset: r3 (rbx) at cfa-32
  DW_CFA_advance_loc1: 87 to 000000000043ff9e
  DW_CFA_remember_state
  DW_CFA_def_cfa_offset: 24
  DW_CFA_advance_loc: 1 to 000000000043ff9f
  DW_CFA_def_cfa_offset: 16
  DW_CFA_advance_loc: 2 to 000000000043ffa1
  DW_CFA_def_cfa_offset: 8
  DW_CFA_advance_loc: 15 to 000000000043ffb0
  DW_CFA_restore_state
  DW_CFA_advance_loc: 8 to 000000000043ffb8
  DW_CFA_def_cfa_offset: 24
  DW_CFA_advance_loc: 1 to 000000000043ffb9
  DW_CFA_def_cfa_offset: 16
  DW_CFA_advance_loc: 2 to 000000000043ffbb
  DW_CFA_def_cfa_offset: 8
  DW_CFA_nop
  DW_CFA_nop

00004040 000000000000004c 00004014 FDE cie=00000030 pc=000000000043ffd0..00000000004404cb
  DW_CFA_advance_loc: 2 to 000000000043ffd2
  DW_CFA_def_cfa_offset: 16
  DW_CFA_offset: r15 (r15) at cfa-16
  DW_CFA_advance_loc: 2 to 000000000043ffd4
  DW_CFA_def_cfa_offset: 24
  DW_CFA_offset: r14 (r14) at cfa-24
  DW_CFA_advance_loc: 2 to 000000000043ffd6
  DW_CFA_def_cfa_offset: 32
  DW_CFA_offset: r13 (r13) at cfa-32
  DW_CFA_advance_loc: 2 to 000000000043ffd8
  DW_CFA_def_cfa_offset: 40
  DW_CFA_offset: r12 (r12) at cfa-40
  DW_CFA_advance_loc: 4 to 000000000043ffdc
  DW_CFA_def_cfa_offset: 48
  DW_CFA_offset: r6 (rbp) at cfa-48
  DW_CFA_advance_loc: 1 to 000000000043ffdd
  DW_CFA_def_cfa_offset: 56
  DW_CFA_offset: r3 (rbx) at cfa-56
  DW_CFA_advance_loc: 7 to 000000000043ffe4
  DW_CFA_def_cfa_offset: 80
  DW_CFA_advance_loc2: 1237 to 00000000004404b9
  DW_CFA_def_cfa_offset: 56
  DW_CFA_advance_loc: 4 to 00000000004404bd
  DW_CFA_def_cfa_offset: 48
  DW_CFA_advance_loc: 1 to 00000000004404be
  DW_CFA_def_cfa_offset: 40
  DW_CFA_advance_loc: 2 to 00000000004404c0
  DW_CFA_def_cfa_offset: 32
  DW_CFA_advance_loc: 2 to 00000000004404c2
  DW_CFA_def_cfa_offset: 24
  DW_CFA_advance_loc: 2 to 00000000004404c4
  DW_CFA_def_cfa_offset: 16
  DW_CFA_advance_loc: 2 to 00000000004404c6
  DW_CFA_def_cfa_offset: 8
  DW_CFA_nop
  DW_CFA_nop
  DW_CFA_nop
  DW_CFA_nop
  DW_CFA_nop
  DW_CFA_nop
  DW_CFA_nop

00004090 000000000000007c 00004064 FDE cie=00000030 pc=00000000004404d0..0000000000440823
  DW_CFA_advance_loc: 2 to 00000000004404d2
  DW_CFA_def_cfa_offset: 16
  DW_CFA_offset: r15 (r15) at cfa-16
  DW_CFA_advance_loc: 2 to 00000000004404d4
  DW_CFA_def_cfa_offset: 24
  DW_CFA_offset: r14 (r14) at cfa-24
  DW_CFA_advance_loc: 2 to 00000000004404d6
  DW_CFA_def_cfa_offset: 32
  DW_CFA_offset: r13 (r13) at cfa-32
  DW_CFA_advance_loc: 2 to 00000000004404d8
  DW_CFA_def_cfa_offset: 40
  DW_CFA_offset: r12 (r12) at cfa-40
  DW_CFA_advance_loc: 1 to 00000000004404d9
  DW_CFA_def_cfa_offset: 48
  DW_CFA_offset: r6 (rbp) at cfa-48
  DW_CFA_advance_loc: 1 to 00000000004404da
  DW_CFA_def_cfa_offset: 56
  DW_CFA_offset: r3 (rbx) at cfa-56
  DW_CFA_advance_loc: 4 to 00000000004404de
  DW_CFA_def_cfa_offset: 96
  DW_CFA_advance_loc2: 549 to 0000000000440703
  DW_CFA_remember_state
  DW_CFA_def_cfa_offset: 56
  DW_CFA_advance_loc: 1 to 0000000000440704
  DW_CFA_def_cfa_offset: 48
  DW_CFA_advance_loc: 1 to 0000000000440705
  DW_CFA_def_cfa_offset: 40
  DW_CFA_advance_loc: 2 to 0000000000440707
  DW_CFA_def_cfa_offset: 32
  DW_CFA_advance_loc: 2 to 0000000000440709
  DW_CFA_def_cfa_offset: 24
  DW_CFA_advance_loc: 2 to 000000000044070b
  DW_CFA_def_cfa_offset: 16
  DW_CFA_advance_loc: 2 to 000000000044070d
  DW_CFA_def_cfa_offset: 8
  DW_CFA_advance_loc: 3 to 0000000000440710
  DW_CFA_restore_state
  DW_CFA_advance_loc1: 131 to 0000000000440793
  DW_CFA_remember_state
  DW_CFA_def_cfa_offset: 56
  DW_CFA_advance_loc: 1 to 0000000000440794
  DW_CFA_def_cfa_offset: 48
  DW_CFA_advance_loc: 1 to 0000000000440795
  DW_CFA_def_cfa_offset: 40
  DW_CFA_advance_loc: 2 to 0000000000440797
  DW_CFA_def_cfa_offset: 32
  DW_CFA_advance_loc: 2 to 0000000000440799
  DW_CFA_def_cfa_offset: 24
  DW_CFA_advance_loc: 2 to 000000000044079b
  DW_CFA_def_cfa_offset: 16
  DW_CFA_advance_loc: 2 to 000000000044079d
  DW_CFA_def_cfa_offset: 8
  DW_CFA_advance_loc: 3 to 00000000004407a0
  DW_CFA_restore_state
  DW_CFA_advance_loc: 4 to 00000000004407a4
  DW_CFA_remember_state
  DW_CFA_def_cfa_offset: 56
  DW_CFA_advance_loc: 4 to 00000000004407a8
  DW_CFA_def_cfa_offset: 48
  DW_CFA_advance_loc: 1 to 00000000004407a9
  DW_CFA_def_cfa_offset: 40
  DW_CFA_advance_loc: 2 to 00000000004407ab
  DW_CFA_def_cfa_offset: 32
  DW_CFA_advance_loc: 2 to 00000000004407ad
  DW_CFA_def_cfa_offset: 24
  DW_CFA_advance_loc: 2 to 00000000004407af
  DW_CFA_def_cfa_offset: 16
  DW_CFA_advance_loc: 2 to 00000000004407b1
  DW_CFA_def_cfa_offset: 8
  DW_CFA_advance_loc: 1 to 00000000004407b2
  DW_CFA_restore_state
  DW_CFA_nop
  DW_CFA_nop
  DW_CFA_nop

00004110 000000000000003c 000040e4 FDE cie=00000030 pc=0000000000440830..0000000000440883
  DW_CFA_advance_loc: 7 to 0000000000440837
  DW_CFA_def_cfa_offset: 16
  DW_CFA_offset: r12 (r12) at cfa-16
  DW_CFA_advance_loc: 4 to 000000000044083b
  DW_CFA_def_cfa_offset: 24
  DW_CFA_offset: r6 (rbp) at cfa-24
  DW_CFA_advance_loc: 4 to 000000000044083f
  DW_CFA_def_cfa_offset: 32
  DW_CFA_offset: r3 (rbx) at cfa-32
  DW_CFA_advance_loc: 44 to 000000000044086b
  DW_CFA_remember_state
  DW_CFA_restore: r3 (rbx)
  DW_CFA_def_cfa_offset: 24
  DW_CFA_advance_loc: 3 to 000000000044086e
  DW_CFA_restore: r6 (rbp)
  DW_CFA_def_cfa_offset: 16
  DW_CFA_advance_loc: 2 to 0000000000440870
  DW_CFA_restore: r12 (r12)
  DW_CFA_def_cfa_offset: 8
  DW_CFA_advance_loc: 8 to 0000000000440878
  DW_CFA_restore_state
  DW_CFA_advance_loc: 4 to 000000000044087c
  DW_CFA_restore: r3 (rbx)
  DW_CFA_def_cfa_offset: 24
  DW_CFA_advance_loc: 1 to 000000000044087d
  DW_CFA_restore: r6 (rbp)
  DW_CFA_def_cfa_offset: 16
  DW_CFA_advance_loc: 2 to 000000000044087f
  DW_CFA_restore: r12 (r12)
  DW_CFA_def_cfa_offset: 8
  DW_CFA_nop
  DW_CFA_nop
  DW_CFA_nop
  DW_CFA_nop
  DW_CFA_nop

00004150 0000000000000034 00004124 FDE cie=00000030 pc=0000000000440890..0000000000440cd0
  DW_CFA_advance_loc: 1 to 0000000000440891
  DW_CFA_def_cfa_offset: 16
  DW_CFA_offset: r6 (rbp) at cfa-16
  DW_CFA_advance_loc: 3 to 0000000000440894
  DW_CFA_def_cfa_register: r6 (rbp)
  DW_CFA_advance_loc: 13 to 00000000004408a1
  DW_CFA_offset: r15 (r15) at cfa-24
  DW_CFA_offset: r14 (r14) at cfa-32
  DW_CFA_offset: r13 (r13) at cfa-40
  DW_CFA_offset: r12 (r12) at cfa-48
  DW_CFA_offset: r3 (rbx) at cfa-56
  DW_CFA_advance_loc1: 165 to 0000000000440946
  DW_CFA_remember_state
  DW_CFA_def_cfa: r7 (rsp) ofs 8
  DW_CFA_advance_loc: 10 to 0000000000440950
  DW_CFA_restore_state
  DW_CFA_advance_loc2: 482 to 0000000000440b32
  DW_CFA_remember_state
  DW_CFA_def_cfa: r7 (rsp) ofs 8
  DW_CFA_advance_loc: 6 to 0000000000440b38
  DW_CFA_restore_state
  DW_CFA_nop
  DW_CFA_nop
  DW_CFA_nop

00004188 0000000000000064 0000415c FDE cie=00000030 pc=0000000000440cd0..0000000000441b62
  DW_CFA_advance_loc: 2 to 0000000000440cd2
  DW_CFA_def_cfa_offset: 16
  DW_CFA_offset: r15 (r15) at cfa-16
  DW_CFA_advance_loc: 2 to 0000000000440cd4
  DW_CFA_def_cfa_offset: 24
  DW_CFA_offset: r14 (r14) at cfa-24
  DW_CFA_advance_loc: 2 to 0000000000440cd6
  DW_CFA_def_cfa_offset: 32
  DW_CFA_offset: r13 (r13) at cfa-32
  DW_CFA_advance_loc: 2 to 0000000000440cd8
  DW_CFA_def_cfa_offset: 40
  DW_CFA_offset: r12 (r12) at cfa-40
  DW_CFA_advance_loc: 1 to 0000000000440cd9
  DW_CFA_def_cfa_offset: 48
  DW_CFA_offset: r6 (rbp) at cfa-48
  DW_CFA_advance_loc: 1 to 0000000000440cda
  DW_CFA_def_cfa_offset: 56
  DW_CFA_offset: r3 (rbx) at cfa-56
  DW_CFA_advance_loc: 4 to 0000000000440cde
  DW_CFA_def_cfa_offset: 64
  DW_CFA_advance_loc2: 2699 to 0000000000441769
  DW_CFA_remember_state
  DW_CFA_def_cfa_offset: 56
  DW_CFA_advance_loc: 1 to 000000000044176a
  DW_CFA_def_cfa_offset: 48
  DW_CFA_advance_loc: 1 to 000000000044176b
  DW_CFA_def_cfa_offset: 40
  DW_CFA_advance_loc: 2 to 000000000044176d
  DW_CFA_def_cfa_offset: 32
  DW_CFA_advance_loc: 2 to 000000000044176f
  DW_CFA_def_cfa_offset: 24
  DW_CFA_advance_loc: 2 to 0000000000441771
  DW_CFA_def_cfa_offset: 16
  DW_CFA_advance_loc: 2 to 0000000000441773
  DW_CFA_def_cfa_offset: 8
  DW_CFA_advance_loc: 5 to 0000000000441778
  DW_CFA_restore_state
  DW_CFA_advance_loc: 4 to 000000000044177c
  DW_CFA_remember_state
  DW_CFA_def_cfa_offset: 56
  DW_CFA_advance_loc: 1 to 000000000044177d
  DW_CFA_def_cfa_offset: 48
  DW_CFA_advance_loc: 1 to 000000000044177e
  DW_CFA_def_cfa_offset: 40
  DW_CFA_advance_loc: 2 to 0000000000441780
  DW_CFA_def_cfa_offset: 32
  DW_CFA_advance_loc: 2 to 0000000000441782
  DW_CFA_def_cfa_offset: 24
  DW_CFA_advance_loc: 2 to 0000000000441784
  DW_CFA_def_cfa_offset: 16
  DW_CFA_advance_loc: 2 to 0000000000441786
  DW_CFA_def_cfa_offset: 8
  DW_CFA_advance_loc: 10 to 0000000000441790
  DW_CFA_restore_state
  DW_CFA_nop
  DW_CFA_nop
  DW_CFA_nop
  DW_CFA_nop

000041f0 000000000000004c 000041c4 FDE cie=00000030 pc=0000000000441b70..000000000044205a
  DW_CFA_advance_loc: 11 to 0000000000441b7b
  DW_CFA_def_cfa_offset: 16
  DW_CFA_offset: r15 (r15) at cfa-16
  DW_CFA_advance_loc: 2 to 0000000000441b7d
  DW_CFA_def_cfa_offset: 24
  DW_CFA_offset: r14 (r14) at cfa-24
  DW_CFA_advance_loc: 2 to 0000000000441b7f
  DW_CFA_def_cfa_offset: 32
  DW_CFA_offset: r13 (r13) at cfa-32
  DW_CFA_advance_loc: 2 to 0000000000441b81
  DW_CFA_def_cfa_offset: 40
  DW_CFA_offset: r12 (r12) at cfa-40
  DW_CFA_advance_loc: 1 to 0000000000441b82
  DW_CFA_def_cfa_offset: 48
  DW_CFA_offset: r6 (rbp) at cfa-48
  DW_CFA_advance_loc: 1 to 0000000000441b83
  DW_CFA_def_cfa_offset: 56
  DW_CFA_offset: r3 (rbx) at cfa-56
  DW_CFA_advance_loc: 10 to 0000000000441b8d
  DW_CFA_def_cfa_offset: 64
  DW_CFA_advance_loc2: 1206 to 0000000000442043
  DW_CFA_def_cfa_offset: 56
  DW_CFA_advance_loc: 4 to 0000000000442047
  DW_CFA_restore: r3 (rbx)
  DW_CFA_def_cfa_offset: 48
  DW_CFA_advance_loc: 1 to 0000000000442048
  DW_CFA_restore: r6 (rbp)
  DW_CFA_def_cfa_offset: 40
  DW_CFA_advance_loc: 2 to 000000000044204a
  DW_CFA_restore: r12 (r12)
  DW_CFA_def_cfa_offset: 32
  DW_CFA_advance_loc: 2 to 000000000044204c
  DW_CFA_restore: r13 (r13)
  DW_CFA_def_cfa_offset: 24
  DW_CFA_advance_loc: 2 to 000000000044204e
  DW_CFA_restore: r14 (r14)
  DW_CFA_def_cfa_offset: 16
  DW_CFA_advance_loc: 2 to 0000000000442050
  DW_CFA_restore: r15 (r15)
  DW_CFA_def_cfa_offset: 8
  DW_CFA_nop

00004240 000000000000004c 00004214 FDE cie=00000030 pc=0000000000442060..000000000044226c
  DW_CFA_advance_loc: 2 to 0000000000442062
  DW_CFA_def_cfa_offset: 16
  DW_CFA_offset: r15 (r15) at cfa-16
  DW_CFA_advance_loc: 2 to 0000000000442064
  DW_CFA_def_cfa_offset: 24
  DW_CFA_offset: r14 (r14) at cfa-24
  DW_CFA_advance_loc: 5 to 0000000000442069
  DW_CFA_def_cfa_offset: 32
  DW_CFA_offset: r13 (r13) at cfa-32
  DW_CFA_advance_loc: 2 to 000000000044206b
  DW_CFA_def_cfa_offset: 40
  DW_CFA_offset: r12 (r12) at cfa-40
  DW_CFA_advance_loc: 4 to 000000000044206f
  DW_CFA_def_cfa_offset: 48
  DW_CFA_offset: r6 (rbp) at cfa-48
  DW_CFA_advance_loc: 1 to 0000000000442070
  DW_CFA_def_cfa_offset: 56
  DW_CFA_offset: r3 (rbx) at cfa-56
  DW_CFA_advance_loc: 7 to 0000000000442077
  DW_CFA_def_cfa_offset: 80
  DW_CFA_advance_loc1: 72 to 00000000004420bf
  DW_CFA_remember_state
  DW_CFA_def_cfa_offset: 56
  DW_CFA_advance_loc: 1 to 00000000004420c0
  DW_CFA_def_cfa_offset: 48
  DW_CFA_advance_loc: 1 to 00000000004420c1
  DW_CFA_def_cfa_offset: 40
  DW_CFA_advance_loc: 2 to 00000000004420c3
  DW_CFA_def_cfa_offset: 32
  DW_CFA_advance_loc: 2 to 00000000004420c5
  DW_CFA_def_cfa_offset: 24
  DW_CFA_advance_loc: 2 to 00000000004420c7
  DW_CFA_def_cfa_offset: 16
  DW_CFA_advance_loc: 2 to 00000000004420c9
  DW_CFA_def_cfa_offset: 8
  DW_CFA_advance_loc: 7 to 00000000004420d0
  DW_CFA_restore_state
  DW_CFA_nop
  DW_CFA_nop
  DW_CFA_nop
  DW_CFA_nop
  DW_CFA_nop

00004290 0000000000000034 00004264 FDE cie=00000030 pc=0000000000442270..0000000000442569
  DW_CFA_advance_loc: 1 to 0000000000442271
  DW_CFA_def_cfa_offset: 16
  DW_CFA_offset: r6 (rbp) at cfa-16
  DW_CFA_advance_loc: 5 to 0000000000442276
  DW_CFA_def_cfa_register: r6 (rbp)
  DW_CFA_advance_loc: 13 to 0000000000442283
  DW_CFA_offset: r15 (r15) at cfa-24
  DW_CFA_offset: r14 (r14) at cfa-32
  DW_CFA_offset: r13 (r13) at cfa-40
  DW_CFA_offset: r12 (r12) at cfa-48
  DW_CFA_offset: r3 (rbx) at cfa-56
  DW_CFA_advance_loc2: 321 to 00000000004423c4
  DW_CFA_remember_state
  DW_CFA_def_cfa: r7 (rsp) ofs 8
  DW_CFA_advance_loc: 1 to 00000000004423c5
  DW_CFA_restore_state
  DW_CFA_advance_loc2: 281 to 00000000004424de
  DW_CFA_remember_state
  DW_CFA_def_cfa: r7 (rsp) ofs 8
  DW_CFA_advance_loc: 1 to 00000000004424df
  DW_CFA_restore_state
  DW_CFA_nop
  DW_CFA_nop

000042c8 0000000000000034 0000429c FDE cie=00000030 pc=0000000000442570..000000000044260b
  DW_CFA_advance_loc: 2 to 0000000000442572
  DW_CFA_def_cfa_offset: 16
  DW_CFA_offset: r12 (r12) at cfa-16
  DW_CFA_advance_loc: 1 to 0000000000442573
  DW_CFA_def_cfa_offset: 24
  DW_CFA_offset: r6 (rbp) at cfa-24
  DW_CFA_advance_loc: 6 to 0000000000442579
  DW_CFA_def_cfa_offset: 32
  DW_CFA_offset: r3 (rbx) at cfa-32
  DW_CFA_advance_loc: 4 to 000000000044257d
  DW_CFA_def_cfa_offset: 48
  DW_CFA_advance_loc1: 130 to 00000000004425ff
  DW_CFA_remember_state
  DW_CFA_def_cfa_offset: 32
  DW_CFA_advance_loc: 1 to 0000000000442600
  DW_CFA_def_cfa_offset: 24
  DW_CFA_advance_loc: 1 to 0000000000442601
  DW_CFA_def_cfa_offset: 16
  DW_CFA_advance_loc: 2 to 0000000000442603
  DW_CFA_def_cfa_offset: 8
  DW_CFA_advance_loc: 1 to 0000000000442604
  DW_CFA_restore_state
  DW_CFA_nop
  DW_CFA_nop
  DW_CFA_nop
  DW_CFA_nop
  DW_CFA_nop

00004300 000000000000002c 000042d4 FDE cie=00000030 pc=0000000000442610..0000000000442673
  DW_CFA_advance_loc: 1 to 0000000000442611
  DW_CFA_def_cfa_offset: 16
  DW_CFA_offset: r6 (rbp) at cfa-16
  DW_CFA_advance_loc: 1 to 0000000000442612
  DW_CFA_def_cfa_offset: 24
  DW_CFA_offset: r3 (rbx) at cfa-24
  DW_CFA_advance_loc: 4 to 0000000000442616
  DW_CFA_def_cfa_offset: 144
  DW_CFA_advance_loc1: 90 to 0000000000442670
  DW_CFA_def_cfa_offset: 24
  DW_CFA_advance_loc: 1 to 0000000000442671
  DW_CFA_def_cfa_offset: 16
  DW_CFA_advance_loc: 1 to 0000000000442672
  DW_CFA_def_cfa_offset: 8
  DW_CFA_nop
  DW_CFA_nop
  DW_CFA_nop
  DW_CFA_nop
  DW_CFA_nop
  DW_CFA_nop
  DW_CFA_nop

00004330 000000000000002c 00004304 FDE cie=00000030 pc=0000000000442680..00000000004426e3
  DW_CFA_advance_loc: 1 to 0000000000442681
  DW_CFA_def_cfa_offset: 16
  DW_CFA_offset: r6 (rbp) at cfa-16
  DW_CFA_advance_loc: 1 to 0000000000442682
  DW_CFA_def_cfa_offset: 24
  DW_CFA_offset: r3 (rbx) at cfa-24
  DW_CFA_advance_loc: 4 to 0000000000442686
  DW_CFA_def_cfa_offset: 144
  DW_CFA_advance_loc1: 90 to 00000000004426e0
  DW_CFA_def_cfa_offset: 24
  DW_CFA_advance_loc: 1 to 00000000004426e1
  DW_CFA_def_cfa_offset: 16
  DW_CFA_advance_loc: 1 to 00000000004426e2
  DW_CFA_def_cfa_offset: 8
  DW_CFA_nop
  DW_CFA_nop
  DW_CFA_nop
  DW_CFA_nop
  DW_CFA_nop
  DW_CFA_nop
  DW_CFA_nop

00004360 0000000000000014 00004334 FDE cie=00000030 pc=00000000004426f0..0000000000442701
  DW_CFA_nop
  DW_CFA_nop
  DW_CFA_nop
  DW_CFA_nop
  DW_CFA_nop
  DW_CFA_nop
  DW_CFA_nop

00004378 000000000000002c 0000434c FDE cie=00000030 pc=0000000000442710..0000000000442757
  DW_CFA_advance_loc: 6 to 0000000000442716
  DW_CFA_def_cfa_offset: 16
  DW_CFA_offset: r6 (rbp) at cfa-16
  DW_CFA_advance_loc: 1 to 0000000000442717
  DW_CFA_def_cfa_offset: 24
  DW_CFA_offset: r3 (rbx) at cfa-24
  DW_CFA_advance_loc: 4 to 000000000044271b
  DW_CFA_def_cfa_offset: 32
  DW_CFA_advance_loc: 56 to 0000000000442753
  DW_CFA_def_cfa_offset: 24
  DW_CFA_advance_loc: 1 to 0000000000442754
  DW_CFA_restore: r3 (rbx)
  DW_CFA_def_cfa_offset: 16
  DW_CFA_advance_loc: 1 to 0000000000442755
  DW_CFA_restore: r6 (rbp)
  DW_CFA_def_cfa_offset: 8
  DW_CFA_nop
  DW_CFA_nop
  DW_CFA_nop
  DW_CFA_nop
  DW_CFA_nop
  DW_CFA_nop
  DW_CFA_nop

000043a8 0000000000000014 0000437c FDE cie=00000030 pc=0000000000442760..0000000000442774
  DW_CFA_nop
  DW_CFA_nop
  DW_CFA_nop
  DW_CFA_nop
  DW_CFA_nop
  DW_CFA_nop
  DW_CFA_nop

000043c0 0000000000000014 00004394 FDE cie=00000030 pc=0000000000442780..0000000000442797
  DW_CFA_nop
  DW_CFA_nop
  DW_CFA_nop
  DW_CFA_nop
  DW_CFA_nop
  DW_CFA_nop
  DW_CFA_nop

000043d8 0000000000000014 000043ac FDE cie=00000030 pc=00000000004427a0..00000000004427b4
  DW_CFA_nop
  DW_CFA_nop
  DW_CFA_nop
  DW_CFA_nop
  DW_CFA_nop
  DW_CFA_nop
  DW_CFA_nop

000043f0 0000000000000014 000043c4 FDE cie=00000030 pc=00000000004427c0..0000000000442800
  DW_CFA_nop
  DW_CFA_nop
  DW_CFA_nop
  DW_CFA_nop
  DW_CFA_nop
  DW_CFA_nop
  DW_CFA_nop

00004408 0000000000000024 000043dc FDE cie=00000030 pc=0000000000442800..0000000000442828
  DW_CFA_advance_loc: 2 to 0000000000442802
  DW_CFA_def_cfa_offset: 16
  DW_CFA_advance_loc: 1 to 0000000000442803
  DW_CFA_def_cfa_offset: 24
  DW_CFA_offset: r10 (r10) at cfa-16
  DW_CFA_offset: r1 (rdx) at cfa-24
  DW_CFA_advance_loc: 34 to 0000000000442825
  DW_CFA_def_cfa_offset: 16
  DW_CFA_restore: r1 (rdx)
  DW_CFA_advance_loc: 2 to 0000000000442827
  DW_CFA_def_cfa_offset: 8
  DW_CFA_restore: r10 (r10)
  DW_CFA_nop
  DW_CFA_nop
  DW_CFA_nop
  DW_CFA_nop
  DW_CFA_nop

00004430 0000000000000024 00004404 FDE cie=00000030 pc=0000000000442830..000000000044284c
  DW_CFA_advance_loc: 1 to 0000000000442831
  DW_CFA_def_cfa_offset: 16
  DW_CFA_advance_loc: 1 to 0000000000442832
  DW_CFA_def_cfa_offset: 24
  DW_CFA_offset: r4 (rsi) at cfa-16
  DW_CFA_offset: r1 (rdx) at cfa-24
  DW_CFA_advance_loc: 24 to 000000000044284a
  DW_CFA_def_cfa_offset: 16
  DW_CFA_restore: r1 (rdx)
  DW_CFA_advance_loc: 1 to 000000000044284b
  DW_CFA_def_cfa_offset: 8
  DW_CFA_restore: r4 (rsi)
  DW_CFA_nop
  DW_CFA_nop
  DW_CFA_nop
  DW_CFA_nop
  DW_CFA_nop

00004458 0000000000000014 0000442c FDE cie=00000030 pc=0000000000442850..00000000004428a6
  DW_CFA_advance_loc: 48 to 0000000000442880
  DW_CFA_def_cfa_offset: 16
  DW_CFA_nop
  DW_CFA_nop
  DW_CFA_nop
  DW_CFA_nop

00004470 0000000000000014 00004444 FDE cie=00000030 pc=00000000004428b0..0000000000442909
  DW_CFA_nop
  DW_CFA_nop
  DW_CFA_nop
  DW_CFA_nop
  DW_CFA_nop
  DW_CFA_nop
  DW_CFA_nop

00004488 000000000000002c 0000445c FDE cie=00000030 pc=0000000000442910..0000000000442996
  DW_CFA_advance_loc: 1 to 0000000000442911
  DW_CFA_def_cfa_offset: 16
  DW_CFA_offset: r6 (rbp) at cfa-16
  DW_CFA_advance_loc: 3 to 0000000000442914
  DW_CFA_def_cfa_register: r6 (rbp)
  DW_CFA_advance_loc: 5 to 0000000000442919
  DW_CFA_offset: r13 (r13) at cfa-24
  DW_CFA_offset: r12 (r12) at cfa-32
  DW_CFA_offset: r3 (rbx) at cfa-40
  DW_CFA_advance_loc1: 94 to 0000000000442977
  DW_CFA_remember_state
  DW_CFA_def_cfa: r7 (rsp) ofs 8
  DW_CFA_advance_loc: 9 to 0000000000442980
  DW_CFA_restore_state
  DW_CFA_advance_loc: 21 to 0000000000442995
  DW_CFA_def_cfa: r7 (rsp) ofs 8
  DW_CFA_nop
  DW_CFA_nop
  DW_CFA_nop
  DW_CFA_nop

000044b8 0000000000000024 0000448c FDE cie=00000030 pc=00000000004429a0..00000000004429f9
  DW_CFA_advance_loc: 1 to 00000000004429a1
  DW_CFA_def_cfa_offset: 16
  DW_CFA_offset: r6 (rbp) at cfa-16
  DW_CFA_advance_loc: 3 to 00000000004429a4
  DW_CFA_def_cfa_register: r6 (rbp)
  DW_CFA_advance_loc1: 69 to 00000000004429e9
  DW_CFA_remember_state
  DW_CFA_def_cfa: r7 (rsp) ofs 8
  DW_CFA_advance_loc: 7 to 00000000004429f0
  DW_CFA_restore_state
  DW_CFA_advance_loc: 8 to 00000000004429f8
  DW_CFA_def_cfa: r7 (rsp) ofs 8
  DW_CFA_nop
  DW_CFA_nop
  DW_CFA_nop

000044e0 000000000000005c 000044b4 FDE cie=00000030 pc=0000000000442a00..0000000000442cd4
  DW_CFA_advance_loc: 10 to 0000000000442a0a
  DW_CFA_def_cfa_offset: 16
  DW_CFA_offset: r15 (r15) at cfa-16
  DW_CFA_advance_loc: 2 to 0000000000442a0c
  DW_CFA_def_cfa_offset: 24
  DW_CFA_offset: r14 (r14) at cfa-24
  DW_CFA_advance_loc: 5 to 0000000000442a11
  DW_CFA_def_cfa_offset: 32
  DW_CFA_offset: r13 (r13) at cfa-32
  DW_CFA_advance_loc: 2 to 0000000000442a13
  DW_CFA_def_cfa_offset: 40
  DW_CFA_offset: r12 (r12) at cfa-40
  DW_CFA_advance_loc: 4 to 0000000000442a17
  DW_CFA_def_cfa_offset: 48
  DW_CFA_offset: r6 (rbp) at cfa-48
  DW_CFA_advance_loc: 1 to 0000000000442a18
  DW_CFA_def_cfa_offset: 56
  DW_CFA_offset: r3 (rbx) at cfa-56
  DW_CFA_advance_loc: 15 to 0000000000442a27
  DW_CFA_def_cfa_offset: 336
  DW_CFA_advance_loc2: 544 to 0000000000442c47
  DW_CFA_def_cfa_offset: 56
  DW_CFA_advance_loc: 1 to 0000000000442c48
  DW_CFA_restore: r3 (rbx)
  DW_CFA_def_cfa_offset: 48
  DW_CFA_advance_loc: 1 to 0000000000442c49
  DW_CFA_restore: r6 (rbp)
  DW_CFA_def_cfa_offset: 40
  DW_CFA_advance_loc: 2 to 0000000000442c4b
  DW_CFA_restore: r12 (r12)
  DW_CFA_def_cfa_offset: 32
  DW_CFA_advance_loc: 2 to 0000000000442c4d
  DW_CFA_restore: r13 (r13)
  DW_CFA_def_cfa_offset: 24
  DW_CFA_advance_loc: 2 to 0000000000442c4f
  DW_CFA_restore: r14 (r14)
  DW_CFA_def_cfa_offset: 16
  DW_CFA_advance_loc: 2 to 0000000000442c51
  DW_CFA_restore: r15 (r15)
  DW_CFA_def_cfa_offset: 8
  DW_CFA_advance_loc: 7 to 0000000000442c58
  DW_CFA_def_cfa_offset: 336
  DW_CFA_offset: r3 (rbx) at cfa-56
  DW_CFA_offset: r6 (rbp) at cfa-48
  DW_CFA_offset: r12 (r12) at cfa-40
  DW_CFA_offset: r13 (r13) at cfa-32
  DW_CFA_offset: r14 (r14) at cfa-24
  DW_CFA_offset: r15 (r15) at cfa-16

00004540 0000000000000014 00004514 FDE cie=00000030 pc=0000000000442ce0..0000000000442cee
  DW_CFA_advance_loc: 4 to 0000000000442ce4
  DW_CFA_def_cfa_offset: 16
  DW_CFA_nop
  DW_CFA_nop
  DW_CFA_nop
  DW_CFA_nop

00004558 000000000000001c 0000452c FDE cie=00000030 pc=0000000000442cf0..0000000000442d44
  DW_CFA_advance_loc: 2 to 0000000000442cf2
  DW_CFA_def_cfa_offset: 16
  DW_CFA_offset: r12 (r12) at cfa-16
  DW_CFA_advance_loc: 1 to 0000000000442cf3
  DW_CFA_def_cfa_offset: 24
  DW_CFA_offset: r6 (rbp) at cfa-24
  DW_CFA_advance_loc: 4 to 0000000000442cf7
  DW_CFA_def_cfa_offset: 32
  DW_CFA_offset: r3 (rbx) at cfa-32

00004578 0000000000000014 0000454c FDE cie=00000030 pc=0000000000442d50..0000000000442d52
  DW_CFA_nop
  DW_CFA_nop
  DW_CFA_nop
  DW_CFA_nop
  DW_CFA_nop
  DW_CFA_nop
  DW_CFA_nop

00004590 0000000000000014 00004564 FDE cie=00000030 pc=0000000000442d60..0000000000442dcc
  DW_CFA_nop
  DW_CFA_nop
  DW_CFA_nop
  DW_CFA_nop
  DW_CFA_nop
  DW_CFA_nop
  DW_CFA_nop

000045a8 0000000000000054 0000457c FDE cie=00000030 pc=0000000000442dd0..0000000000443105
  DW_CFA_advance_loc: 28 to 0000000000442dec
  DW_CFA_def_cfa_offset: 16
  DW_CFA_offset: r15 (r15) at cfa-16
  DW_CFA_advance_loc: 5 to 0000000000442df1
  DW_CFA_def_cfa_offset: 24
  DW_CFA_offset: r14 (r14) at cfa-24
  DW_CFA_advance_loc: 12 to 0000000000442dfd
  DW_CFA_def_cfa_offset: 32
  DW_CFA_offset: r13 (r13) at cfa-32
  DW_CFA_advance_loc: 2 to 0000000000442dff
  DW_CFA_def_cfa_offset: 40
  DW_CFA_offset: r12 (r12) at cfa-40
  DW_CFA_advance_loc: 4 to 0000000000442e03
  DW_CFA_def_cfa_offset: 48
  DW_CFA_offset: r6 (rbp) at cfa-48
  DW_CFA_advance_loc: 1 to 0000000000442e04
  DW_CFA_def_cfa_offset: 56
  DW_CFA_offset: r3 (rbx) at cfa-56
  DW_CFA_advance_loc2: 439 to 0000000000442fbb
  DW_CFA_restore: r3 (rbx)
  DW_CFA_def_cfa_offset: 48
  DW_CFA_advance_loc: 1 to 0000000000442fbc
  DW_CFA_restore: r6 (rbp)
  DW_CFA_def_cfa_offset: 40
  DW_CFA_advance_loc: 2 to 0000000000442fbe
  DW_CFA_restore: r12 (r12)
  DW_CFA_def_cfa_offset: 32
  DW_CFA_advance_loc: 2 to 0000000000442fc0
  DW_CFA_restore: r13 (r13)
  DW_CFA_def_cfa_offset: 24
  DW_CFA_advance_loc: 2 to 0000000000442fc2
  DW_CFA_restore: r14 (r14)
  DW_CFA_def_cfa_offset: 16
  DW_CFA_advance_loc: 2 to 0000000000442fc4
  DW_CFA_restore: r15 (r15)
  DW_CFA_def_cfa_offset: 8
  DW_CFA_advance_loc: 12 to 0000000000442fd0
  DW_CFA_def_cfa_offset: 56
  DW_CFA_offset: r3 (rbx) at cfa-56
  DW_CFA_offset: r6 (rbp) at cfa-48
  DW_CFA_offset: r12 (r12) at cfa-40
  DW_CFA_offset: r13 (r13) at cfa-32
  DW_CFA_offset: r14 (r14) at cfa-24
  DW_CFA_offset: r15 (r15) at cfa-16

00004600 000000000000004c 000045d4 FDE cie=00000030 pc=0000000000443110..0000000000443e4c
  DW_CFA_advance_loc: 2 to 0000000000443112
  DW_CFA_def_cfa_offset: 16
  DW_CFA_offset: r13 (r13) at cfa-16
  DW_CFA_advance_loc: 2 to 0000000000443114
  DW_CFA_def_cfa_offset: 24
  DW_CFA_offset: r12 (r12) at cfa-24
  DW_CFA_advance_loc: 1 to 0000000000443115
  DW_CFA_def_cfa_offset: 32
  DW_CFA_offset: r6 (rbp) at cfa-32
  DW_CFA_advance_loc: 1 to 0000000000443116
  DW_CFA_def_cfa_offset: 40
  DW_CFA_offset: r3 (rbx) at cfa-40
  DW_CFA_advance_loc: 4 to 000000000044311a
  DW_CFA_def_cfa_offset: 64
  DW_CFA_advance_loc2: 1879 to 0000000000443871
  DW_CFA_remember_state
  DW_CFA_def_cfa_offset: 40
  DW_CFA_advance_loc: 1 to 0000000000443872
  DW_CFA_def_cfa_offset: 32
  DW_CFA_advance_loc: 1 to 0000000000443873
  DW_CFA_def_cfa_offset: 24
  DW_CFA_advance_loc: 2 to 0000000000443875
  DW_CFA_def_cfa_offset: 16
  DW_CFA_advance_loc: 2 to 0000000000443877
  DW_CFA_def_cfa_offset: 8
  DW_CFA_advance_loc: 9 to 0000000000443880
  DW_CFA_restore_state
  DW_CFA_advance_loc2: 469 to 0000000000443a55
  DW_CFA_remember_state
  DW_CFA_def_cfa_offset: 40
  DW_CFA_advance_loc: 1 to 0000000000443a56
  DW_CFA_def_cfa_offset: 32
  DW_CFA_advance_loc: 1 to 0000000000443a57
  DW_CFA_def_cfa_offset: 24
  DW_CFA_advance_loc: 2 to 0000000000443a59
  DW_CFA_def_cfa_offset: 16
  DW_CFA_advance_loc: 2 to 0000000000443a5b
  DW_CFA_def_cfa_offset: 8
  DW_CFA_advance_loc: 5 to 0000000000443a60
  DW_CFA_restore_state

00004650 000000000000004c 00004624 FDE cie=00000030 pc=0000000000443e50..0000000000444114
  DW_CFA_advance_loc: 2 to 0000000000443e52
  DW_CFA_def_cfa_offset: 16
  DW_CFA_offset: r15 (r15) at cfa-16
  DW_CFA_advance_loc: 2 to 0000000000443e54
  DW_CFA_def_cfa_offset: 24
  DW_CFA_offset: r14 (r14) at cfa-24
  DW_CFA_advance_loc: 7 to 0000000000443e5b
  DW_CFA_def_cfa_offset: 32
  DW_CFA_offset: r13 (r13) at cfa-32
  DW_CFA_advance_loc: 2 to 0000000000443e5d
  DW_CFA_def_cfa_offset: 40
  DW_CFA_offset: r12 (r12) at cfa-40
  DW_CFA_advance_loc: 4 to 0000000000443e61
  DW_CFA_def_cfa_offset: 48
  DW_CFA_offset: r6 (rbp) at cfa-48
  DW_CFA_advance_loc: 1 to 0000000000443e62
  DW_CFA_def_cfa_offset: 56
  DW_CFA_offset: r3 (rbx) at cfa-56
  DW_CFA_advance_loc: 10 to 0000000000443e6c
  DW_CFA_def_cfa_offset: 80
  DW_CFA_advance_loc2: 418 to 000000000044400e
  DW_CFA_remember_state
  DW_CFA_def_cfa_offset: 56
  DW_CFA_advance_loc: 3 to 0000000000444011
  DW_CFA_def_cfa_offset: 48
  DW_CFA_advance_loc: 1 to 0000000000444012
  DW_CFA_def_cfa_offset: 40
  DW_CFA_advance_loc: 2 to 0000000000444014
  DW_CFA_def_cfa_offset: 32
  DW_CFA_advance_loc: 2 to 0000000000444016
  DW_CFA_def_cfa_offset: 24
  DW_CFA_advance_loc: 2 to 0000000000444018
  DW_CFA_def_cfa_offset: 16
  DW_CFA_advance_loc: 2 to 000000000044401a
  DW_CFA_def_cfa_offset: 8
  DW_CFA_advance_loc: 1 to 000000000044401b
  DW_CFA_restore_state
  DW_CFA_nop
  DW_CFA_nop
  DW_CFA_nop
  DW_CFA_nop

000046a0 0000000000000014 00004674 FDE cie=00000030 pc=0000000000444120..0000000000444173
  DW_CFA_nop
  DW_CFA_nop
  DW_CFA_nop
  DW_CFA_nop
  DW_CFA_nop
  DW_CFA_nop
  DW_CFA_nop

000046b8 000000000000001c 0000468c FDE cie=00000030 pc=0000000000444180..00000000004441c5
  DW_CFA_advance_loc: 17 to 0000000000444191
  DW_CFA_def_cfa_offset: 16
  DW_CFA_offset: r3 (rbx) at cfa-16
  DW_CFA_advance_loc: 28 to 00000000004441ad
  DW_CFA_remember_state
  DW_CFA_restore: r3 (rbx)
  DW_CFA_def_cfa_offset: 8
  DW_CFA_advance_loc: 3 to 00000000004441b0
  DW_CFA_restore_state
  DW_CFA_nop
  DW_CFA_nop
  DW_CFA_nop

000046d8 0000000000000034 000046ac FDE cie=00000030 pc=00000000004441d0..00000000004442d5
  DW_CFA_advance_loc: 1 to 00000000004441d1
  DW_CFA_def_cfa_offset: 16
  DW_CFA_offset: r6 (rbp) at cfa-16
  DW_CFA_advance_loc: 1 to 00000000004441d2
  DW_CFA_def_cfa_offset: 24
  DW_CFA_offset: r3 (rbx) at cfa-24
  DW_CFA_advance_loc: 7 to 00000000004441d9
  DW_CFA_def_cfa_offset: 496
  DW_CFA_advance_loc1: 125 to 0000000000444256
  DW_CFA_remember_state
  DW_CFA_def_cfa_offset: 24
  DW_CFA_advance_loc: 1 to 0000000000444257
  DW_CFA_def_cfa_offset: 16
  DW_CFA_advance_loc: 1 to 0000000000444258
  DW_CFA_def_cfa_offset: 8
  DW_CFA_advance_loc: 1 to 0000000000444259
  DW_CFA_restore_state
  DW_CFA_advance_loc: 18 to 000000000044426b
  DW_CFA_remember_state
  DW_CFA_def_cfa_offset: 24
  DW_CFA_advance_loc: 9 to 0000000000444274
  DW_CFA_def_cfa_offset: 16
  DW_CFA_advance_loc: 1 to 0000000000444275
  DW_CFA_def_cfa_offset: 8
  DW_CFA_advance_loc: 11 to 0000000000444280
  DW_CFA_restore_state

00004710 000000000000002c 000046e4 FDE cie=00000030 pc=00000000004442e0..0000000000444361
  DW_CFA_advance_loc: 7 to 00000000004442e7
  DW_CFA_def_cfa_offset: 16
  DW_CFA_offset: r12 (r12) at cfa-16
  DW_CFA_advance_loc: 7 to 00000000004442ee
  DW_CFA_def_cfa_offset: 24
  DW_CFA_offset: r6 (rbp) at cfa-24
  DW_CFA_advance_loc: 4 to 00000000004442f2
  DW_CFA_def_cfa_offset: 32
  DW_CFA_offset: r3 (rbx) at cfa-32
  DW_CFA_advance_loc1: 68 to 0000000000444336
  DW_CFA_remember_state
  DW_CFA_def_cfa_offset: 24
  DW_CFA_advance_loc: 1 to 0000000000444337
  DW_CFA_def_cfa_offset: 16
  DW_CFA_advance_loc: 2 to 0000000000444339
  DW_CFA_def_cfa_offset: 8
  DW_CFA_advance_loc: 7 to 0000000000444340
  DW_CFA_restore_state
  DW_CFA_nop
  DW_CFA_nop
  DW_CFA_nop

00004740 0000000000000014 00004714 FDE cie=00000030 pc=0000000000444370..0000000000444379
  DW_CFA_advance_loc: 4 to 0000000000444374
  DW_CFA_def_cfa_offset: 16
  DW_CFA_nop
  DW_CFA_nop
  DW_CFA_nop
  DW_CFA_nop

00004758 0000000000000014 0000472c FDE cie=00000030 pc=0000000000444380..0000000000444390
  DW_CFA_nop
  DW_CFA_nop
  DW_CFA_nop
  DW_CFA_nop
  DW_CFA_nop
  DW_CFA_nop
  DW_CFA_nop

00004770 000000000000002c 00004744 FDE cie=00000030 pc=0000000000444390..000000000044489d
  DW_CFA_advance_loc: 1 to 0000000000444391
  DW_CFA_def_cfa_offset: 16
  DW_CFA_offset: r6 (rbp) at cfa-16
  DW_CFA_advance_loc: 3 to 0000000000444394
  DW_CFA_def_cfa_register: r6 (rbp)
  DW_CFA_advance_loc: 8 to 000000000044439c
  DW_CFA_offset: r15 (r15) at cfa-24
  DW_CFA_offset: r14 (r14) at cfa-32
  DW_CFA_offset: r13 (r13) at cfa-40
  DW_CFA_offset: r12 (r12) at cfa-48
  DW_CFA_advance_loc: 9 to 00000000004443a5
  DW_CFA_offset: r3 (rbx) at cfa-56
  DW_CFA_advance_loc2: 365 to 0000000000444512
  DW_CFA_remember_state
  DW_CFA_def_cfa: r7 (rsp) ofs 8
  DW_CFA_advance_loc: 6 to 0000000000444518
  DW_CFA_restore_state
  DW_CFA_nop
  DW_CFA_nop

000047a0 0000000000000074 00004774 FDE cie=00000030 pc=00000000004448a0..0000000000444ab0
  DW_CFA_advance_loc: 12 to 00000000004448ac
  DW_CFA_def_cfa_offset: 16
  DW_CFA_offset: r15 (r15) at cfa-16
  DW_CFA_advance_loc: 2 to 00000000004448ae
  DW_CFA_def_cfa_offset: 24
  DW_CFA_offset: r14 (r14) at cfa-24
  DW_CFA_advance_loc: 5 to 00000000004448b3
  DW_CFA_def_cfa_offset: 32
  DW_CFA_offset: r13 (r13) at cfa-32
  DW_CFA_advance_loc: 2 to 00000000004448b5
  DW_CFA_def_cfa_offset: 40
  DW_CFA_offset: r12 (r12) at cfa-40
  DW_CFA_advance_loc: 4 to 00000000004448b9
  DW_CFA_def_cfa_offset: 48
  DW_CFA_offset: r6 (rbp) at cfa-48
  DW_CFA_advance_loc: 1 to 00000000004448ba
  DW_CFA_def_cfa_offset: 56
  DW_CFA_offset: r3 (rbx) at cfa-56
  DW_CFA_advance_loc: 10 to 00000000004448c4
  DW_CFA_def_cfa_offset: 96
  DW_CFA_advance_loc1: 201 to 000000000044498d
  DW_CFA_def_cfa_offset: 104
  DW_CFA_advance_loc: 5 to 0000000000444992
  DW_CFA_def_cfa_offset: 112
  DW_CFA_advance_loc: 17 to 00000000004449a3
  DW_CFA_def_cfa_offset: 104
  DW_CFA_advance_loc: 1 to 00000000004449a4
  DW_CFA_def_cfa_offset: 96
  DW_CFA_advance_loc: 44 to 00000000004449d0
  DW_CFA_def_cfa_offset: 56
  DW_CFA_advance_loc: 3 to 00000000004449d3
  DW_CFA_restore: r3 (rbx)
  DW_CFA_def_cfa_offset: 48
  DW_CFA_advance_loc: 1 to 00000000004449d4
  DW_CFA_restore: r6 (rbp)
  DW_CFA_def_cfa_offset: 40
  DW_CFA_advance_loc: 2 to 00000000004449d6
  DW_CFA_restore: r12 (r12)
  DW_CFA_def_cfa_offset: 32
  DW_CFA_advance_loc: 2 to 00000000004449d8
  DW_CFA_restore: r13 (r13)
  DW_CFA_def_cfa_offset: 24
  DW_CFA_advance_loc: 2 to 00000000004449da
  DW_CFA_restore: r14 (r14)
  DW_CFA_def_cfa_offset: 16
  DW_CFA_advance_loc: 2 to 00000000004449dc
  DW_CFA_restore: r15 (r15)
  DW_CFA_def_cfa_offset: 8
  DW_CFA_advance_loc: 20 to 00000000004449f0
  DW_CFA_def_cfa_offset: 96
  DW_CFA_offset: r3 (rbx) at cfa-56
  DW_CFA_offset: r6 (rbp) at cfa-48
  DW_CFA_offset: r12 (r12) at cfa-40
  DW_CFA_offset: r13 (r13) at cfa-32
  DW_CFA_offset: r14 (r14) at cfa-24
  DW_CFA_offset: r15 (r15) at cfa-16
  DW_CFA_advance_loc: 42 to 0000000000444a1a
  DW_CFA_def_cfa_offset: 104
  DW_CFA_advance_loc: 15 to 0000000000444a29
  DW_CFA_def_cfa_offset: 112
  DW_CFA_advance_loc: 5 to 0000000000444a2e
  DW_CFA_def_cfa_offset: 104
  DW_CFA_advance_loc: 1 to 0000000000444a2f
  DW_CFA_def_cfa_offset: 96
  DW_CFA_nop
  DW_CFA_nop
  DW_CFA_nop

00004818 000000000000003c 000047ec FDE cie=00000030 pc=0000000000444ab0..0000000000444b12
  DW_CFA_advance_loc: 2 to 0000000000444ab2
  DW_CFA_def_cfa_offset: 16
  DW_CFA_offset: r13 (r13) at cfa-16
  DW_CFA_advance_loc: 2 to 0000000000444ab4
  DW_CFA_def_cfa_offset: 24
  DW_CFA_offset: r12 (r12) at cfa-24
  DW_CFA_advance_loc: 1 to 0000000000444ab5
  DW_CFA_def_cfa_offset: 32
  DW_CFA_offset: r6 (rbp) at cfa-32
  DW_CFA_advance_loc: 1 to 0000000000444ab6
  DW_CFA_def_cfa_offset: 40
  DW_CFA_offset: r3 (rbx) at cfa-40
  DW_CFA_advance_loc: 11 to 0000000000444ac1
  DW_CFA_def_cfa_offset: 48
  DW_CFA_advance_loc: 33 to 0000000000444ae2
  DW_CFA_remember_state
  DW_CFA_def_cfa_offset: 40
  DW_CFA_advance_loc: 7 to 0000000000444ae9
  DW_CFA_def_cfa_offset: 32
  DW_CFA_advance_loc: 1 to 0000000000444aea
  DW_CFA_def_cfa_offset: 24
  DW_CFA_advance_loc: 2 to 0000000000444aec
  DW_CFA_def_cfa_offset: 16
  DW_CFA_advance_loc: 2 to 0000000000444aee
  DW_CFA_def_cfa_offset: 8
  DW_CFA_advance_loc: 10 to 0000000000444af8
  DW_CFA_restore_state
  DW_CFA_nop
  DW_CFA_nop
  DW_CFA_nop
  DW_CFA_nop
  DW_CFA_nop
  DW_CFA_nop

00004858 0000000000000014 0000482c FDE cie=00000030 pc=0000000000444b20..0000000000444b2b
  DW_CFA_nop
  DW_CFA_nop
  DW_CFA_nop
  DW_CFA_nop
  DW_CFA_nop
  DW_CFA_nop
  DW_CFA_nop

00004870 000000000000003c 00004844 FDE cie=00000030 pc=000000000049eca0..000000000049ed75
  DW_CFA_advance_loc: 2 to 000000000049eca2
  DW_CFA_def_cfa_offset: 16
  DW_CFA_offset: r13 (r13) at cfa-16
  DW_CFA_advance_loc: 2 to 000000000049eca4
  DW_CFA_def_cfa_offset: 24
  DW_CFA_offset: r12 (r12) at cfa-24
  DW_CFA_advance_loc: 4 to 000000000049eca8
  DW_CFA_def_cfa_offset: 32
  DW_CFA_offset: r6 (rbp) at cfa-32
  DW_CFA_advance_loc: 1 to 000000000049eca9
  DW_CFA_def_cfa_offset: 40
  DW_CFA_offset: r3 (rbx) at cfa-40
  DW_CFA_advance_loc: 4 to 000000000049ecad
  DW_CFA_def_cfa_offset: 48
  DW_CFA_advance_loc1: 161 to 000000000049ed4e
  DW_CFA_remember_state
  DW_CFA_def_cfa_offset: 40
  DW_CFA_advance_loc: 4 to 000000000049ed52
  DW_CFA_def_cfa_offset: 32
  DW_CFA_advance_loc: 1 to 000000000049ed53
  DW_CFA_def_cfa_offset: 24
  DW_CFA_advance_loc: 2 to 000000000049ed55
  DW_CFA_def_cfa_offset: 16
  DW_CFA_advance_loc: 2 to 000000000049ed57
  DW_CFA_def_cfa_offset: 8
  DW_CFA_advance_loc: 5 to 000000000049ed5c
  DW_CFA_restore_state
  DW_CFA_nop
  DW_CFA_nop
  DW_CFA_nop
  DW_CFA_nop
  DW_CFA_nop

000048b0 0000000000000034 00004884 FDE cie=00000030 pc=0000000000444b30..0000000000444b67
  DW_CFA_advance_loc: 1 to 0000000000444b31
  DW_CFA_def_cfa_offset: 16
  DW_CFA_offset: r6 (rbp) at cfa-16
  DW_CFA_advance_loc: 1 to 0000000000444b32
  DW_CFA_def_cfa_offset: 24
  DW_CFA_offset: r3 (rbx) at cfa-24
  DW_CFA_advance_loc: 10 to 0000000000444b3c
  DW_CFA_def_cfa_offset: 32
  DW_CFA_advance_loc: 27 to 0000000000444b57
  DW_CFA_remember_state
  DW_CFA_def_cfa_offset: 24
  DW_CFA_advance_loc: 1 to 0000000000444b58
  DW_CFA_def_cfa_offset: 16
  DW_CFA_advance_loc: 1 to 0000000000444b59
  DW_CFA_def_cfa_offset: 8
  DW_CFA_advance_loc: 7 to 0000000000444b60
  DW_CFA_restore_state
  DW_CFA_advance_loc: 4 to 0000000000444b64
  DW_CFA_def_cfa_offset: 24
  DW_CFA_advance_loc: 1 to 0000000000444b65
  DW_CFA_def_cfa_offset: 16
  DW_CFA_advance_loc: 1 to 0000000000444b66
  DW_CFA_def_cfa_offset: 8
  DW_CFA_nop
  DW_CFA_nop
  DW_CFA_nop
  DW_CFA_nop
  DW_CFA_nop

000048e8 0000000000000014 000048bc FDE cie=00000030 pc=00000000004004ed..0000000000400507
  DW_CFA_advance_loc: 1 to 00000000004004ee
  DW_CFA_def_cfa_offset: 16
  DW_CFA_nop
  DW_CFA_nop
  DW_CFA_nop
  DW_CFA_nop

00004900 000000000000004c 000048d4 FDE cie=00000030 pc=000000000049ed80..000000000049f5ab
  DW_CFA_advance_loc: 2 to 000000000049ed82
  DW_CFA_def_cfa_offset: 16
  DW_CFA_offset: r15 (r15) at cfa-16
  DW_CFA_advance_loc: 2 to 000000000049ed84
  DW_CFA_def_cfa_offset: 24
  DW_CFA_offset: r14 (r14) at cfa-24
  DW_CFA_advance_loc: 2 to 000000000049ed86
  DW_CFA_def_cfa_offset: 32
  DW_CFA_offset: r13 (r13) at cfa-32
  DW_CFA_advance_loc: 2 to 000000000049ed88
  DW_CFA_def_cfa_offset: 40
  DW_CFA_offset: r12 (r12) at cfa-40
  DW_CFA_advance_loc: 1 to 000000000049ed89
  DW_CFA_def_cfa_offset: 48
  DW_CFA_offset: r6 (rbp) at cfa-48
  DW_CFA_advance_loc: 1 to 000000000049ed8a
  DW_CFA_def_cfa_offset: 56
  DW_CFA_offset: r3 (rbx) at cfa-56
  DW_CFA_advance_loc: 7 to 000000000049ed91
  DW_CFA_def_cfa_offset: 64
  DW_CFA_advance_loc2: 776 to 000000000049f099
  DW_CFA_remember_state
  DW_CFA_def_cfa_offset: 56
  DW_CFA_advance_loc: 1 to 000000000049f09a
  DW_CFA_def_cfa_offset: 48
  DW_CFA_advance_loc: 1 to 000000000049f09b
  DW_CFA_def_cfa_offset: 40
  DW_CFA_advance_loc: 2 to 000000000049f09d
  DW_CFA_def_cfa_offset: 32
  DW_CFA_advance_loc: 2 to 000000000049f09f
  DW_CFA_def_cfa_offset: 24
  DW_CFA_advance_loc: 2 to 000000000049f0a1
  DW_CFA_def_cfa_offset: 16
  DW_CFA_advance_loc: 2 to 000000000049f0a3
  DW_CFA_def_cfa_offset: 8
  DW_CFA_advance_loc: 5 to 000000000049f0a8
  DW_CFA_restore_state
  DW_CFA_nop
  DW_CFA_nop
  DW_CFA_nop
  DW_CFA_nop

00004950 0000000000000064 00004924 FDE cie=00000030 pc=000000000049f5b0..000000000049fecf
  DW_CFA_advance_loc: 2 to 000000000049f5b2
  DW_CFA_def_cfa_offset: 16
  DW_CFA_offset: r15 (r15) at cfa-16
  DW_CFA_advance_loc: 2 to 000000000049f5b4
  DW_CFA_def_cfa_offset: 24
  DW_CFA_offset: r14 (r14) at cfa-24
  DW_CFA_advance_loc: 2 to 000000000049f5b6
  DW_CFA_def_cfa_offset: 32
  DW_CFA_offset: r13 (r13) at cfa-32
  DW_CFA_advance_loc: 2 to 000000000049f5b8
  DW_CFA_def_cfa_offset: 40
  DW_CFA_offset: r12 (r12) at cfa-40
  DW_CFA_advance_loc: 1 to 000000000049f5b9
  DW_CFA_def_cfa_offset: 48
  DW_CFA_offset: r6 (rbp) at cfa-48
  DW_CFA_advance_loc: 1 to 000000000049f5ba
  DW_CFA_def_cfa_offset: 56
  DW_CFA_offset: r3 (rbx) at cfa-56
  DW_CFA_advance_loc: 4 to 000000000049f5be
  DW_CFA_def_cfa_offset: 64
  DW_CFA_advance_loc2: 523 to 000000000049f7c9
  DW_CFA_remember_state
  DW_CFA_def_cfa_offset: 56
  DW_CFA_advance_loc: 6 to 000000000049f7cf
  DW_CFA_def_cfa_offset: 48
  DW_CFA_advance_loc: 1 to 000000000049f7d0
  DW_CFA_def_cfa_offset: 40
  DW_CFA_advance_loc: 2 to 000000000049f7d2
  DW_CFA_def_cfa_offset: 32
  DW_CFA_advance_loc: 2 to 000000000049f7d4
  DW_CFA_def_cfa_offset: 24
  DW_CFA_advance_loc: 2 to 000000000049f7d6
  DW_CFA_def_cfa_offset: 16
  DW_CFA_advance_loc: 2 to 000000000049f7d8
  DW_CFA_def_cfa_offset: 8
  DW_CFA_advance_loc: 8 to 000000000049f7e0
  DW_CFA_restore_state
  DW_CFA_advance_loc2: 1764 to 000000000049fec4
  DW_CFA_def_cfa_offset: 56
  DW_CFA_advance_loc: 1 to 000000000049fec5
  DW_CFA_def_cfa_offset: 48
  DW_CFA_advance_loc: 1 to 000000000049fec6
  DW_CFA_def_cfa_offset: 40
  DW_CFA_advance_loc: 2 to 000000000049fec8
  DW_CFA_def_cfa_offset: 32
  DW_CFA_advance_loc: 2 to 000000000049feca
  DW_CFA_def_cfa_offset: 24
  DW_CFA_advance_loc: 2 to 000000000049fecc
  DW_CFA_def_cfa_offset: 16
  DW_CFA_advance_loc: 2 to 000000000049fece
  DW_CFA_def_cfa_offset: 8
  DW_CFA_nop
  DW_CFA_nop
  DW_CFA_nop
  DW_CFA_nop
  DW_CFA_nop

000049b8 000000000000002c 0000498c FDE cie=00000030 pc=0000000000444b70..00000000004456c6
  DW_CFA_advance_loc: 1 to 0000000000444b71
  DW_CFA_def_cfa_offset: 16
  DW_CFA_offset: r6 (rbp) at cfa-16
  DW_CFA_advance_loc: 6 to 0000000000444b77
  DW_CFA_def_cfa_register: r6 (rbp)
  DW_CFA_advance_loc: 16 to 0000000000444b87
  DW_CFA_offset: r15 (r15) at cfa-24
  DW_CFA_offset: r14 (r14) at cfa-32
  DW_CFA_offset: r13 (r13) at cfa-40
  DW_CFA_offset: r12 (r12) at cfa-48
  DW_CFA_offset: r3 (rbx) at cfa-56
  DW_CFA_advance_loc2: 2387 to 00000000004454da
  DW_CFA_remember_state
  DW_CFA_def_cfa: r7 (rsp) ofs 8
  DW_CFA_advance_loc: 1 to 00000000004454db
  DW_CFA_restore_state
  DW_CFA_nop
  DW_CFA_nop
  DW_CFA_nop

000049e8 0000000000000014 000049bc FDE cie=00000030 pc=00000000004456d0..00000000004456d8
  DW_CFA_nop
  DW_CFA_nop
  DW_CFA_nop
  DW_CFA_nop
  DW_CFA_nop
  DW_CFA_nop
  DW_CFA_nop

00004a00 0000000000000014 000049d4 FDE cie=00000030 pc=00000000004456e0..00000000004456e8
  DW_CFA_nop
  DW_CFA_nop
  DW_CFA_nop
  DW_CFA_nop
  DW_CFA_nop
  DW_CFA_nop
  DW_CFA_nop

00004a18 000000000000002c 000049ec FDE cie=00000030 pc=00000000004456f0..000000000044574c
  DW_CFA_advance_loc: 1 to 00000000004456f1
  DW_CFA_def_cfa_offset: 16
  DW_CFA_offset: r6 (rbp) at cfa-16
  DW_CFA_advance_loc: 1 to 00000000004456f2
  DW_CFA_def_cfa_offset: 24
  DW_CFA_offset: r3 (rbx) at cfa-24
  DW_CFA_advance_loc: 7 to 00000000004456f9
  DW_CFA_def_cfa_offset: 32
  DW_CFA_advance_loc1: 68 to 000000000044573d
  DW_CFA_remember_state
  DW_CFA_def_cfa_offset: 24
  DW_CFA_advance_loc: 1 to 000000000044573e
  DW_CFA_def_cfa_offset: 16
  DW_CFA_advance_loc: 1 to 000000000044573f
  DW_CFA_def_cfa_offset: 8
  DW_CFA_advance_loc: 1 to 0000000000445740
  DW_CFA_restore_state
  DW_CFA_nop
  DW_CFA_nop
  DW_CFA_nop
  DW_CFA_nop
  DW_CFA_nop

00004a48 0000000000000044 00004a1c FDE cie=00000030 pc=0000000000445750..000000000044583d
  DW_CFA_advance_loc: 2 to 0000000000445752
  DW_CFA_def_cfa_offset: 16
  DW_CFA_offset: r12 (r12) at cfa-16
  DW_CFA_advance_loc: 1 to 0000000000445753
  DW_CFA_def_cfa_offset: 24
  DW_CFA_offset: r6 (rbp) at cfa-24
  DW_CFA_advance_loc: 6 to 0000000000445759
  DW_CFA_def_cfa_offset: 32
  DW_CFA_offset: r3 (rbx) at cfa-32
  DW_CFA_advance_loc: 10 to 0000000000445763
  DW_CFA_def_cfa_offset: 64
  DW_CFA_advance_loc: 49 to 0000000000445794
  DW_CFA_remember_state
  DW_CFA_def_cfa_offset: 32
  DW_CFA_advance_loc: 1 to 0000000000445795
  DW_CFA_def_cfa_offset: 24
  DW_CFA_advance_loc: 1 to 0000000000445796
  DW_CFA_def_cfa_offset: 16
  DW_CFA_advance_loc: 2 to 0000000000445798
  DW_CFA_def_cfa_offset: 8
  DW_CFA_advance_loc: 8 to 00000000004457a0
  DW_CFA_restore_state
  DW_CFA_advance_loc1: 100 to 0000000000445804
  DW_CFA_remember_state
  DW_CFA_def_cfa_offset: 32
  DW_CFA_advance_loc: 1 to 0000000000445805
  DW_CFA_def_cfa_offset: 24
  DW_CFA_advance_loc: 1 to 0000000000445806
  DW_CFA_def_cfa_offset: 16
  DW_CFA_advance_loc: 2 to 0000000000445808
  DW_CFA_def_cfa_offset: 8
  DW_CFA_advance_loc: 8 to 0000000000445810
  DW_CFA_restore_state
  DW_CFA_nop
  DW_CFA_nop
  DW_CFA_nop
  DW_CFA_nop
  DW_CFA_nop
  DW_CFA_nop

00004a90 000000000000008c 00004a64 FDE cie=00000030 pc=0000000000445840..0000000000445b18
  DW_CFA_advance_loc: 2 to 0000000000445842
  DW_CFA_def_cfa_offset: 16
  DW_CFA_offset: r15 (r15) at cfa-16
  DW_CFA_advance_loc: 2 to 0000000000445844
  DW_CFA_def_cfa_offset: 24
  DW_CFA_offset: r14 (r14) at cfa-24
  DW_CFA_advance_loc: 7 to 000000000044584b
  DW_CFA_def_cfa_offset: 32
  DW_CFA_offset: r13 (r13) at cfa-32
  DW_CFA_advance_loc: 2 to 000000000044584d
  DW_CFA_def_cfa_offset: 40
  DW_CFA_offset: r12 (r12) at cfa-40
  DW_CFA_advance_loc: 4 to 0000000000445851
  DW_CFA_def_cfa_offset: 48
  DW_CFA_offset: r6 (rbp) at cfa-48
  DW_CFA_advance_loc: 1 to 0000000000445852
  DW_CFA_def_cfa_offset: 56
  DW_CFA_offset: r3 (rbx) at cfa-56
  DW_CFA_advance_loc: 16 to 0000000000445862
  DW_CFA_def_cfa_offset: 96
  DW_CFA_advance_loc1: 72 to 00000000004458aa
  DW_CFA_def_cfa_offset: 224
  DW_CFA_advance_loc: 12 to 00000000004458b6
  DW_CFA_def_cfa_offset: 96
  DW_CFA_advance_loc1: 69 to 00000000004458fb
  DW_CFA_def_cfa_offset: 224
  DW_CFA_advance_loc: 12 to 0000000000445907
  DW_CFA_def_cfa_offset: 96
  DW_CFA_advance_loc: 6 to 000000000044590d
  DW_CFA_remember_state
  DW_CFA_def_cfa_offset: 56
  DW_CFA_advance_loc: 1 to 000000000044590e
  DW_CFA_def_cfa_offset: 48
  DW_CFA_advance_loc: 1 to 000000000044590f
  DW_CFA_def_cfa_offset: 40
  DW_CFA_advance_loc: 2 to 0000000000445911
  DW_CFA_def_cfa_offset: 32
  DW_CFA_advance_loc: 2 to 0000000000445913
  DW_CFA_def_cfa_offset: 24
  DW_CFA_advance_loc: 2 to 0000000000445915
  DW_CFA_def_cfa_offset: 16
  DW_CFA_advance_loc: 2 to 0000000000445917
  DW_CFA_def_cfa_offset: 8
  DW_CFA_advance_loc: 9 to 0000000000445920
  DW_CFA_restore_state
  DW_CFA_advance_loc2: 272 to 0000000000445a30
  DW_CFA_def_cfa_offset: 224
  DW_CFA_advance_loc: 12 to 0000000000445a3c
  DW_CFA_def_cfa_offset: 96
  DW_CFA_advance_loc: 24 to 0000000000445a54
  DW_CFA_remember_state
  DW_CFA_def_cfa_offset: 56
  DW_CFA_advance_loc: 1 to 0000000000445a55
  DW_CFA_def_cfa_offset: 48
  DW_CFA_advance_loc: 1 to 0000000000445a56
  DW_CFA_def_cfa_offset: 40
  DW_CFA_advance_loc: 2 to 0000000000445a58
  DW_CFA_def_cfa_offset: 32
  DW_CFA_advance_loc: 2 to 0000000000445a5a
  DW_CFA_def_cfa_offset: 24
  DW_CFA_advance_loc: 2 to 0000000000445a5c
  DW_CFA_def_cfa_offset: 16
  DW_CFA_advance_loc: 2 to 0000000000445a5e
  DW_CFA_def_cfa_offset: 8
  DW_CFA_advance_loc: 2 to 0000000000445a60
  DW_CFA_restore_state
  DW_CFA_advance_loc1: 74 to 0000000000445aaa
  DW_CFA_def_cfa_offset: 224
  DW_CFA_advance_loc: 12 to 0000000000445ab6
  DW_CFA_def_cfa_offset: 96
  DW_CFA_advance_loc: 52 to 0000000000445aea
  DW_CFA_def_cfa_offset: 224
  DW_CFA_advance_loc: 12 to 0000000000445af6
  DW_CFA_def_cfa_offset: 96
  DW_CFA_nop
  DW_CFA_nop
  DW_CFA_nop
  DW_CFA_nop
  DW_CFA_nop
  DW_CFA_nop

00004b20 0000000000000044 00004af4 FDE cie=00000030 pc=0000000000445b20..0000000000445c2c
  DW_CFA_advance_loc: 2 to 0000000000445b22
  DW_CFA_def_cfa_offset: 16
  DW_CFA_offset: r14 (r14) at cfa-16
  DW_CFA_advance_loc: 4 to 0000000000445b26
  DW_CFA_def_cfa_offset: 24
  DW_CFA_offset: r13 (r13) at cfa-24
  DW_CFA_advance_loc: 5 to 0000000000445b2b
  DW_CFA_def_cfa_offset: 32
  DW_CFA_offset: r12 (r12) at cfa-32
  DW_CFA_advance_loc: 4 to 0000000000445b2f
  DW_CFA_def_cfa_offset: 40
  DW_CFA_offset: r6 (rbp) at cfa-40
  DW_CFA_advance_loc: 6 to 0000000000445b35
  DW_CFA_def_cfa_offset: 48
  DW_CFA_offset: r3 (rbx) at cfa-48
  DW_CFA_advance_loc: 44 to 0000000000445b61
  DW_CFA_def_cfa_offset: 176
  DW_CFA_advance_loc: 12 to 0000000000445b6d
  DW_CFA_def_cfa_offset: 48
  DW_CFA_advance_loc1: 168 to 0000000000445c15
  DW_CFA_def_cfa_offset: 176
  DW_CFA_advance_loc: 12 to 0000000000445c21
  DW_CFA_def_cfa_offset: 48
  DW_CFA_advance_loc: 3 to 0000000000445c24
  DW_CFA_def_cfa_offset: 40
  DW_CFA_advance_loc: 1 to 0000000000445c25
  DW_CFA_def_cfa_offset: 32
  DW_CFA_advance_loc: 2 to 0000000000445c27
  DW_CFA_def_cfa_offset: 24
  DW_CFA_advance_loc: 2 to 0000000000445c29
  DW_CFA_def_cfa_offset: 16
  DW_CFA_advance_loc: 2 to 0000000000445c2b
  DW_CFA_def_cfa_offset: 8

00004b68 0000000000000014 00004b3c FDE cie=00000030 pc=000000000049fed0..000000000049fef2
  DW_CFA_nop
  DW_CFA_nop
  DW_CFA_nop
  DW_CFA_nop
  DW_CFA_nop
  DW_CFA_nop
  DW_CFA_nop

00004b80 000000000000005c 00004b54 FDE cie=00000030 pc=0000000000445c30..0000000000445d0a
  DW_CFA_advance_loc: 2 to 0000000000445c32
  DW_CFA_def_cfa_offset: 16
  DW_CFA_offset: r14 (r14) at cfa-16
  DW_CFA_advance_loc: 2 to 0000000000445c34
  DW_CFA_def_cfa_offset: 24
  DW_CFA_offset: r13 (r13) at cfa-24
  DW_CFA_advance_loc: 5 to 0000000000445c39
  DW_CFA_def_cfa_offset: 32
  DW_CFA_offset: r12 (r12) at cfa-32
  DW_CFA_advance_loc: 4 to 0000000000445c3d
  DW_CFA_def_cfa_offset: 40
  DW_CFA_offset: r6 (rbp) at cfa-40
  DW_CFA_advance_loc: 6 to 0000000000445c43
  DW_CFA_def_cfa_offset: 48
  DW_CFA_offset: r3 (rbx) at cfa-48
  DW_CFA_advance_loc: 52 to 0000000000445c77
  DW_CFA_remember_state
  DW_CFA_def_cfa_offset: 40
  DW_CFA_advance_loc: 1 to 0000000000445c78
  DW_CFA_def_cfa_offset: 32
  DW_CFA_advance_loc: 2 to 0000000000445c7a
  DW_CFA_def_cfa_offset: 24
  DW_CFA_advance_loc: 2 to 0000000000445c7c
  DW_CFA_def_cfa_offset: 16
  DW_CFA_advance_loc: 2 to 0000000000445c7e
  DW_CFA_def_cfa_offset: 8
  DW_CFA_advance_loc: 2 to 0000000000445c80
  DW_CFA_restore_state
  DW_CFA_advance_loc1: 66 to 0000000000445cc2
  DW_CFA_remember_state
  DW_CFA_def_cfa_offset: 40
  DW_CFA_advance_loc: 4 to 0000000000445cc6
  DW_CFA_def_cfa_offset: 32
  DW_CFA_advance_loc: 2 to 0000000000445cc8
  DW_CFA_def_cfa_offset: 24
  DW_CFA_advance_loc: 2 to 0000000000445cca
  DW_CFA_def_cfa_offset: 16
  DW_CFA_advance_loc: 2 to 0000000000445ccc
  DW_CFA_def_cfa_offset: 8
  DW_CFA_advance_loc: 5 to 0000000000445cd1
  DW_CFA_restore_state
  DW_CFA_advance_loc: 45 to 0000000000445cfe
  DW_CFA_def_cfa_offset: 40
  DW_CFA_advance_loc: 1 to 0000000000445cff
  DW_CFA_def_cfa_offset: 32
  DW_CFA_advance_loc: 2 to 0000000000445d01
  DW_CFA_def_cfa_offset: 24
  DW_CFA_advance_loc: 2 to 0000000000445d03
  DW_CFA_def_cfa_offset: 16
  DW_CFA_advance_loc: 2 to 0000000000445d05
  DW_CFA_def_cfa_offset: 8
  DW_CFA_nop
  DW_CFA_nop

00004be0 000000000000002c 00004bb4 FDE cie=00000030 pc=0000000000445d10..0000000000446064
  DW_CFA_advance_loc: 1 to 0000000000445d11
  DW_CFA_def_cfa_offset: 16
  DW_CFA_offset: r6 (rbp) at cfa-16
  DW_CFA_advance_loc: 3 to 0000000000445d14
  DW_CFA_def_cfa_register: r6 (rbp)
  DW_CFA_advance_loc: 8 to 0000000000445d1c
  DW_CFA_offset: r15 (r15) at cfa-24
  DW_CFA_offset: r14 (r14) at cfa-32
  DW_CFA_offset: r13 (r13) at cfa-40
  DW_CFA_offset: r12 (r12) at cfa-48
  DW_CFA_advance_loc: 7 to 0000000000445d23
  DW_CFA_offset: r3 (rbx) at cfa-56
  DW_CFA_advance_loc1: 111 to 0000000000445d92
  DW_CFA_remember_state
  DW_CFA_def_cfa: r7 (rsp) ofs 8
  DW_CFA_advance_loc: 6 to 0000000000445d98
  DW_CFA_restore_state
  DW_CFA_nop
  DW_CFA_nop
  DW_CFA_nop

00004c10 000000000000003c 00004be4 FDE cie=00000030 pc=0000000000446070..0000000000446454
  DW_CFA_advance_loc: 1 to 0000000000446071
  DW_CFA_def_cfa_offset: 16
  DW_CFA_offset: r6 (rbp) at cfa-16
  DW_CFA_advance_loc: 10 to 000000000044607b
  DW_CFA_def_cfa_register: r6 (rbp)
  DW_CFA_advance_loc: 13 to 0000000000446088
  DW_CFA_offset: r15 (r15) at cfa-24
  DW_CFA_offset: r14 (r14) at cfa-32
  DW_CFA_offset: r13 (r13) at cfa-40
  DW_CFA_offset: r12 (r12) at cfa-48
  DW_CFA_offset: r3 (rbx) at cfa-56
  DW_CFA_advance_loc: 44 to 00000000004460b4
  DW_CFA_def_cfa_offset: 144
  DW_CFA_advance_loc: 12 to 00000000004460c0
  DW_CFA_def_cfa_offset: 16
  DW_CFA_advance_loc: 52 to 00000000004460f4
  DW_CFA_def_cfa_offset: 144
  DW_CFA_advance_loc: 12 to 0000000000446100
  DW_CFA_def_cfa_offset: 16
  DW_CFA_advance_loc: 14 to 000000000044610e
  DW_CFA_remember_state
  DW_CFA_def_cfa: r7 (rsp) ofs 8
  DW_CFA_advance_loc: 1 to 000000000044610f
  DW_CFA_restore_state
  DW_CFA_nop
  DW_CFA_nop
  DW_CFA_nop
  DW_CFA_nop
  DW_CFA_nop
  DW_CFA_nop
  DW_CFA_nop

00004c50 000000000000002c 00004c24 FDE cie=00000030 pc=0000000000446460..0000000000446966
  DW_CFA_advance_loc: 1 to 0000000000446461
  DW_CFA_def_cfa_offset: 16
  DW_CFA_offset: r6 (rbp) at cfa-16
  DW_CFA_advance_loc: 3 to 0000000000446464
  DW_CFA_def_cfa_register: r6 (rbp)
  DW_CFA_advance_loc: 13 to 0000000000446471
  DW_CFA_offset: r15 (r15) at cfa-24
  DW_CFA_offset: r14 (r14) at cfa-32
  DW_CFA_offset: r13 (r13) at cfa-40
  DW_CFA_offset: r12 (r12) at cfa-48
  DW_CFA_offset: r3 (rbx) at cfa-56
  DW_CFA_advance_loc2: 693 to 0000000000446726
  DW_CFA_remember_state
  DW_CFA_def_cfa: r7 (rsp) ofs 8
  DW_CFA_advance_loc: 10 to 0000000000446730
  DW_CFA_restore_state
  DW_CFA_nop
  DW_CFA_nop
  DW_CFA_nop

00004c80 000000000000001c 00004c54 FDE cie=00000030 pc=0000000000446970..0000000000446baa
  DW_CFA_advance_loc2: 262 to 0000000000446a76
  DW_CFA_def_cfa_offset: 16
  DW_CFA_advance_loc: 26 to 0000000000446a90
  DW_CFA_def_cfa_offset: 8
  DW_CFA_nop
  DW_CFA_nop
  DW_CFA_nop
  DW_CFA_nop
  DW_CFA_nop
  DW_CFA_nop
  DW_CFA_nop

00004ca0 0000000000000014 00004c74 FDE cie=00000030 pc=0000000000446bb0..0000000000446bc0
  DW_CFA_nop
  DW_CFA_nop
  DW_CFA_nop
  DW_CFA_nop
  DW_CFA_nop
  DW_CFA_nop
  DW_CFA_nop

00004cb8 00000000000000cc 00004c8c FDE cie=00000030 pc=0000000000446bc0..0000000000446fbf
  DW_CFA_advance_loc: 2 to 0000000000446bc2
  DW_CFA_def_cfa_offset: 16
  DW_CFA_offset: r15 (r15) at cfa-16
  DW_CFA_advance_loc: 2 to 0000000000446bc4
  DW_CFA_def_cfa_offset: 24
  DW_CFA_offset: r14 (r14) at cfa-24
  DW_CFA_advance_loc: 6 to 0000000000446bca
  DW_CFA_def_cfa_offset: 32
  DW_CFA_offset: r13 (r13) at cfa-32
  DW_CFA_advance_loc: 2 to 0000000000446bcc
  DW_CFA_def_cfa_offset: 40
  DW_CFA_offset: r12 (r12) at cfa-40
  DW_CFA_advance_loc: 4 to 0000000000446bd0
  DW_CFA_def_cfa_offset: 48
  DW_CFA_offset: r6 (rbp) at cfa-48
  DW_CFA_advance_loc: 1 to 0000000000446bd1
  DW_CFA_def_cfa_offset: 56
  DW_CFA_offset: r3 (rbx) at cfa-56
  DW_CFA_advance_loc: 16 to 0000000000446be1
  DW_CFA_def_cfa_offset: 128
  DW_CFA_advance_loc1: 101 to 0000000000446c46
  DW_CFA_remember_state
  DW_CFA_def_cfa_offset: 56
  DW_CFA_advance_loc: 1 to 0000000000446c47
  DW_CFA_def_cfa_offset: 48
  DW_CFA_advance_loc: 1 to 0000000000446c48
  DW_CFA_def_cfa_offset: 40
  DW_CFA_advance_loc: 2 to 0000000000446c4a
  DW_CFA_def_cfa_offset: 32
  DW_CFA_advance_loc: 2 to 0000000000446c4c
  DW_CFA_def_cfa_offset: 24
  DW_CFA_advance_loc: 2 to 0000000000446c4e
  DW_CFA_def_cfa_offset: 16
  DW_CFA_advance_loc: 2 to 0000000000446c50
  DW_CFA_def_cfa_offset: 8
  DW_CFA_advance_loc: 1 to 0000000000446c51
  DW_CFA_restore_state
  DW_CFA_advance_loc2: 469 to 0000000000446e26
  DW_CFA_remember_state
  DW_CFA_def_cfa_offset: 56
  DW_CFA_advance_loc: 1 to 0000000000446e27
  DW_CFA_def_cfa_offset: 48
  DW_CFA_advance_loc: 1 to 0000000000446e28
  DW_CFA_def_cfa_offset: 40
  DW_CFA_advance_loc: 2 to 0000000000446e2a
  DW_CFA_def_cfa_offset: 32
  DW_CFA_advance_loc: 2 to 0000000000446e2c
  DW_CFA_def_cfa_offset: 24
  DW_CFA_advance_loc: 2 to 0000000000446e2e
  DW_CFA_def_cfa_offset: 16
  DW_CFA_advance_loc: 2 to 0000000000446e30
  DW_CFA_def_cfa_offset: 8
  DW_CFA_advance_loc: 8 to 0000000000446e38
  DW_CFA_restore_state
  DW_CFA_advance_loc: 40 to 0000000000446e60
  DW_CFA_def_cfa_offset: 136
  DW_CFA_advance_loc: 2 to 0000000000446e62
  DW_CFA_def_cfa_offset: 144
  DW_CFA_advance_loc: 24 to 0000000000446e7a
  DW_CFA_def_cfa_offset: 136
  DW_CFA_advance_loc: 4 to 0000000000446e7e
  DW_CFA_def_cfa_offset: 128
  DW_CFA_advance_loc1: 73 to 0000000000446ec7
  DW_CFA_remember_state
  DW_CFA_def_cfa_offset: 56
  DW_CFA_advance_loc: 3 to 0000000000446eca
  DW_CFA_def_cfa_offset: 48
  DW_CFA_advance_loc: 1 to 0000000000446ecb
  DW_CFA_def_cfa_offset: 40
  DW_CFA_advance_loc: 2 to 0000000000446ecd
  DW_CFA_def_cfa_offset: 32
  DW_CFA_advance_loc: 2 to 0000000000446ecf
  DW_CFA_def_cfa_offset: 24
  DW_CFA_advance_loc: 2 to 0000000000446ed1
  DW_CFA_def_cfa_offset: 16
  DW_CFA_advance_loc: 2 to 0000000000446ed3
  DW_CFA_def_cfa_offset: 8
  DW_CFA_advance_loc: 1 to 0000000000446ed4
  DW_CFA_restore_state
  DW_CFA_advance_loc: 51 to 0000000000446f07
  DW_CFA_def_cfa_offset: 136
  DW_CFA_advance_loc: 2 to 0000000000446f09
  DW_CFA_def_cfa_offset: 144
  DW_CFA_advance_loc: 20 to 0000000000446f1d
  DW_CFA_def_cfa_offset: 136
  DW_CFA_advance_loc: 2 to 0000000000446f1f
  DW_CFA_def_cfa_offset: 128
  DW_CFA_advance_loc: 4 to 0000000000446f23
  DW_CFA_remember_state
  DW_CFA_def_cfa_offset: 56
  DW_CFA_advance_loc: 1 to 0000000000446f24
  DW_CFA_def_cfa_offset: 48
  DW_CFA_advance_loc: 1 to 0000000000446f25
  DW_CFA_def_cfa_offset: 40
  DW_CFA_advance_loc: 2 to 0000000000446f27
  DW_CFA_def_cfa_offset: 32
  DW_CFA_advance_loc: 2 to 0000000000446f29
  DW_CFA_def_cfa_offset: 24
  DW_CFA_advance_loc: 2 to 0000000000446f2b
  DW_CFA_def_cfa_offset: 16
  DW_CFA_advance_loc: 2 to 0000000000446f2d
  DW_CFA_def_cfa_offset: 8
  DW_CFA_advance_loc: 1 to 0000000000446f2e
  DW_CFA_restore_state
  DW_CFA_advance_loc: 12 to 0000000000446f3a
  DW_CFA_remember_state
  DW_CFA_def_cfa_offset: 56
  DW_CFA_advance_loc: 3 to 0000000000446f3d
  DW_CFA_def_cfa_offset: 48
  DW_CFA_advance_loc: 1 to 0000000000446f3e
  DW_CFA_def_cfa_offset: 40
  DW_CFA_advance_loc: 2 to 0000000000446f40
  DW_CFA_def_cfa_offset: 32
  DW_CFA_advance_loc: 2 to 0000000000446f42
  DW_CFA_def_cfa_offset: 24
  DW_CFA_advance_loc: 2 to 0000000000446f44
  DW_CFA_def_cfa_offset: 16
  DW_CFA_advance_loc: 2 to 0000000000446f46
  DW_CFA_def_cfa_offset: 8
  DW_CFA_advance_loc: 1 to 0000000000446f47
  DW_CFA_restore_state
  DW_CFA_nop

00004d88 0000000000000084 00004d5c FDE cie=00000030 pc=0000000000446fc0..0000000000447513
  DW_CFA_advance_loc: 2 to 0000000000446fc2
  DW_CFA_def_cfa_offset: 16
  DW_CFA_offset: r15 (r15) at cfa-16
  DW_CFA_advance_loc: 2 to 0000000000446fc4
  DW_CFA_def_cfa_offset: 24
  DW_CFA_offset: r14 (r14) at cfa-24
  DW_CFA_advance_loc: 6 to 0000000000446fca
  DW_CFA_def_cfa_offset: 32
  DW_CFA_offset: r13 (r13) at cfa-32
  DW_CFA_advance_loc: 2 to 0000000000446fcc
  DW_CFA_def_cfa_offset: 40
  DW_CFA_offset: r12 (r12) at cfa-40
  DW_CFA_advance_loc: 4 to 0000000000446fd0
  DW_CFA_def_cfa_offset: 48
  DW_CFA_offset: r6 (rbp) at cfa-48
  DW_CFA_advance_loc: 1 to 0000000000446fd1
  DW_CFA_def_cfa_offset: 56
  DW_CFA_offset: r3 (rbx) at cfa-56
  DW_CFA_advance_loc: 16 to 0000000000446fe1
  DW_CFA_def_cfa_offset: 128
  DW_CFA_advance_loc1: 94 to 000000000044703f
  DW_CFA_remember_state
  DW_CFA_def_cfa_offset: 56
  DW_CFA_advance_loc: 1 to 0000000000447040
  DW_CFA_def_cfa_offset: 48
  DW_CFA_advance_loc: 1 to 0000000000447041
  DW_CFA_def_cfa_offset: 40
  DW_CFA_advance_loc: 2 to 0000000000447043
  DW_CFA_def_cfa_offset: 32
  DW_CFA_advance_loc: 2 to 0000000000447045
  DW_CFA_def_cfa_offset: 24
  DW_CFA_advance_loc: 2 to 0000000000447047
  DW_CFA_def_cfa_offset: 16
  DW_CFA_advance_loc: 2 to 0000000000447049
  DW_CFA_def_cfa_offset: 8
  DW_CFA_advance_loc: 7 to 0000000000447050
  DW_CFA_restore_state
  DW_CFA_advance_loc: 26 to 000000000044706a
  DW_CFA_def_cfa_offset: 136
  DW_CFA_advance_loc: 1 to 000000000044706b
  DW_CFA_def_cfa_offset: 144
  DW_CFA_advance_loc: 15 to 000000000044707a
  DW_CFA_def_cfa_offset: 136
  DW_CFA_advance_loc: 2 to 000000000044707c
  DW_CFA_def_cfa_offset: 128
  DW_CFA_advance_loc: 4 to 0000000000447080
  DW_CFA_remember_state
  DW_CFA_def_cfa_offset: 56
  DW_CFA_advance_loc: 1 to 0000000000447081
  DW_CFA_def_cfa_offset: 48
  DW_CFA_advance_loc: 1 to 0000000000447082
  DW_CFA_def_cfa_offset: 40
  DW_CFA_advance_loc: 2 to 0000000000447084
  DW_CFA_def_cfa_offset: 32
  DW_CFA_advance_loc: 2 to 0000000000447086
  DW_CFA_def_cfa_offset: 24
  DW_CFA_advance_loc: 2 to 0000000000447088
  DW_CFA_def_cfa_offset: 16
  DW_CFA_advance_loc: 2 to 000000000044708a
  DW_CFA_def_cfa_offset: 8
  DW_CFA_advance_loc: 6 to 0000000000447090
  DW_CFA_restore_state
  DW_CFA_advance_loc2: 704 to 0000000000447350
  DW_CFA_def_cfa_offset: 136
  DW_CFA_advance_loc: 2 to 0000000000447352
  DW_CFA_def_cfa_offset: 144
  DW_CFA_advance_loc: 31 to 0000000000447371
  DW_CFA_def_cfa_offset: 136
  DW_CFA_advance_loc: 4 to 0000000000447375
  DW_CFA_def_cfa_offset: 128
  DW_CFA_nop
  DW_CFA_nop

00004e10 00000000000000cc 00004de4 FDE cie=00000030 pc=0000000000447520..000000000044795c
  DW_CFA_advance_loc: 2 to 0000000000447522
  DW_CFA_def_cfa_offset: 16
  DW_CFA_offset: r15 (r15) at cfa-16
  DW_CFA_advance_loc: 2 to 0000000000447524
  DW_CFA_def_cfa_offset: 24
  DW_CFA_offset: r14 (r14) at cfa-24
  DW_CFA_advance_loc: 6 to 000000000044752a
  DW_CFA_def_cfa_offset: 32
  DW_CFA_offset: r13 (r13) at cfa-32
  DW_CFA_advance_loc: 2 to 000000000044752c
  DW_CFA_def_cfa_offset: 40
  DW_CFA_offset: r12 (r12) at cfa-40
  DW_CFA_advance_loc: 4 to 0000000000447530
  DW_CFA_def_cfa_offset: 48
  DW_CFA_offset: r6 (rbp) at cfa-48
  DW_CFA_advance_loc: 1 to 0000000000447531
  DW_CFA_def_cfa_offset: 56
  DW_CFA_offset: r3 (rbx) at cfa-56
  DW_CFA_advance_loc: 10 to 000000000044753b
  DW_CFA_def_cfa_offset: 128
  DW_CFA_advance_loc1: 126 to 00000000004475b9
  DW_CFA_remember_state
  DW_CFA_def_cfa_offset: 56
  DW_CFA_advance_loc: 1 to 00000000004475ba
  DW_CFA_def_cfa_offset: 48
  DW_CFA_advance_loc: 1 to 00000000004475bb
  DW_CFA_def_cfa_offset: 40
  DW_CFA_advance_loc: 2 to 00000000004475bd
  DW_CFA_def_cfa_offset: 32
  DW_CFA_advance_loc: 2 to 00000000004475bf
  DW_CFA_def_cfa_offset: 24
  DW_CFA_advance_loc: 2 to 00000000004475c1
  DW_CFA_def_cfa_offset: 16
  DW_CFA_advance_loc: 2 to 00000000004475c3
  DW_CFA_def_cfa_offset: 8
  DW_CFA_advance_loc: 5 to 00000000004475c8
  DW_CFA_restore_state
  DW_CFA_advance_loc2: 475 to 00000000004477a3
  DW_CFA_remember_state
  DW_CFA_def_cfa_offset: 56
  DW_CFA_advance_loc: 1 to 00000000004477a4
  DW_CFA_def_cfa_offset: 48
  DW_CFA_advance_loc: 1 to 00000000004477a5
  DW_CFA_def_cfa_offset: 40
  DW_CFA_advance_loc: 2 to 00000000004477a7
  DW_CFA_def_cfa_offset: 32
  DW_CFA_advance_loc: 2 to 00000000004477a9
  DW_CFA_def_cfa_offset: 24
  DW_CFA_advance_loc: 2 to 00000000004477ab
  DW_CFA_def_cfa_offset: 16
  DW_CFA_advance_loc: 2 to 00000000004477ad
  DW_CFA_def_cfa_offset: 8
  DW_CFA_advance_loc: 3 to 00000000004477b0
  DW_CFA_restore_state
  DW_CFA_advance_loc: 35 to 00000000004477d3
  DW_CFA_def_cfa_offset: 136
  DW_CFA_advance_loc: 2 to 00000000004477d5
  DW_CFA_def_cfa_offset: 144
  DW_CFA_advance_loc: 27 to 00000000004477f0
  DW_CFA_def_cfa_offset: 136
  DW_CFA_advance_loc: 1 to 00000000004477f1
  DW_CFA_def_cfa_offset: 128
  DW_CFA_advance_loc1: 76 to 000000000044783d
  DW_CFA_remember_state
  DW_CFA_def_cfa_offset: 56
  DW_CFA_advance_loc: 3 to 0000000000447840
  DW_CFA_def_cfa_offset: 48
  DW_CFA_advance_loc: 1 to 0000000000447841
  DW_CFA_def_cfa_offset: 40
  DW_CFA_advance_loc: 2 to 0000000000447843
  DW_CFA_def_cfa_offset: 32
  DW_CFA_advance_loc: 2 to 0000000000447845
  DW_CFA_def_cfa_offset: 24
  DW_CFA_advance_loc: 2 to 0000000000447847
  DW_CFA_def_cfa_offset: 16
  DW_CFA_advance_loc: 2 to 0000000000447849
  DW_CFA_def_cfa_offset: 8
  DW_CFA_advance_loc: 7 to 0000000000447850
  DW_CFA_restore_state
  DW_CFA_advance_loc: 60 to 000000000044788c
  DW_CFA_def_cfa_offset: 136
  DW_CFA_advance_loc: 2 to 000000000044788e
  DW_CFA_def_cfa_offset: 144
  DW_CFA_advance_loc: 19 to 00000000004478a1
  DW_CFA_def_cfa_offset: 136
  DW_CFA_advance_loc: 2 to 00000000004478a3
  DW_CFA_def_cfa_offset: 128
  DW_CFA_advance_loc: 4 to 00000000004478a7
  DW_CFA_remember_state
  DW_CFA_def_cfa_offset: 56
  DW_CFA_advance_loc: 1 to 00000000004478a8
  DW_CFA_def_cfa_offset: 48
  DW_CFA_advance_loc: 1 to 00000000004478a9
  DW_CFA_def_cfa_offset: 40
  DW_CFA_advance_loc: 2 to 00000000004478ab
  DW_CFA_def_cfa_offset: 32
  DW_CFA_advance_loc: 2 to 00000000004478ad
  DW_CFA_def_cfa_offset: 24
  DW_CFA_advance_loc: 2 to 00000000004478af
  DW_CFA_def_cfa_offset: 16
  DW_CFA_advance_loc: 2 to 00000000004478b1
  DW_CFA_def_cfa_offset: 8
  DW_CFA_advance_loc: 7 to 00000000004478b8
  DW_CFA_restore_state
  DW_CFA_advance_loc: 12 to 00000000004478c4
  DW_CFA_remember_state
  DW_CFA_def_cfa_offset: 56
  DW_CFA_advance_loc: 3 to 00000000004478c7
  DW_CFA_def_cfa_offset: 48
  DW_CFA_advance_loc: 1 to 00000000004478c8
  DW_CFA_def_cfa_offset: 40
  DW_CFA_advance_loc: 2 to 00000000004478ca
  DW_CFA_def_cfa_offset: 32
  DW_CFA_advance_loc: 2 to 00000000004478cc
  DW_CFA_def_cfa_offset: 24
  DW_CFA_advance_loc: 2 to 00000000004478ce
  DW_CFA_def_cfa_offset: 16
  DW_CFA_advance_loc: 2 to 00000000004478d0
  DW_CFA_def_cfa_offset: 8
  DW_CFA_advance_loc: 8 to 00000000004478d8
  DW_CFA_restore_state
  DW_CFA_nop

00004ee0 0000000000000084 00004eb4 FDE cie=00000030 pc=0000000000447960..0000000000447e9d
  DW_CFA_advance_loc: 2 to 0000000000447962
  DW_CFA_def_cfa_offset: 16
  DW_CFA_offset: r15 (r15) at cfa-16
  DW_CFA_advance_loc: 2 to 0000000000447964
  DW_CFA_def_cfa_offset: 24
  DW_CFA_offset: r14 (r14) at cfa-24
  DW_CFA_advance_loc: 6 to 000000000044796a
  DW_CFA_def_cfa_offset: 32
  DW_CFA_offset: r13 (r13) at cfa-32
  DW_CFA_advance_loc: 2 to 000000000044796c
  DW_CFA_def_cfa_offset: 40
  DW_CFA_offset: r12 (r12) at cfa-40
  DW_CFA_advance_loc: 4 to 0000000000447970
  DW_CFA_def_cfa_offset: 48
  DW_CFA_offset: r6 (rbp) at cfa-48
  DW_CFA_advance_loc: 1 to 0000000000447971
  DW_CFA_def_cfa_offset: 56
  DW_CFA_offset: r3 (rbx) at cfa-56
  DW_CFA_advance_loc: 16 to 0000000000447981
  DW_CFA_def_cfa_offset: 128
  DW_CFA_advance_loc1: 94 to 00000000004479df
  DW_CFA_remember_state
  DW_CFA_def_cfa_offset: 56
  DW_CFA_advance_loc: 1 to 00000000004479e0
  DW_CFA_def_cfa_offset: 48
  DW_CFA_advance_loc: 1 to 00000000004479e1
  DW_CFA_def_cfa_offset: 40
  DW_CFA_advance_loc: 2 to 00000000004479e3
  DW_CFA_def_cfa_offset: 32
  DW_CFA_advance_loc: 2 to 00000000004479e5
  DW_CFA_def_cfa_offset: 24
  DW_CFA_advance_loc: 2 to 00000000004479e7
  DW_CFA_def_cfa_offset: 16
  DW_CFA_advance_loc: 2 to 00000000004479e9
  DW_CFA_def_cfa_offset: 8
  DW_CFA_advance_loc: 7 to 00000000004479f0
  DW_CFA_restore_state
  DW_CFA_advance_loc: 26 to 0000000000447a0a
  DW_CFA_def_cfa_offset: 136
  DW_CFA_advance_loc: 1 to 0000000000447a0b
  DW_CFA_def_cfa_offset: 144
  DW_CFA_advance_loc: 15 to 0000000000447a1a
  DW_CFA_def_cfa_offset: 136
  DW_CFA_advance_loc: 2 to 0000000000447a1c
  DW_CFA_def_cfa_offset: 128
  DW_CFA_advance_loc: 4 to 0000000000447a20
  DW_CFA_remember_state
  DW_CFA_def_cfa_offset: 56
  DW_CFA_advance_loc: 1 to 0000000000447a21
  DW_CFA_def_cfa_offset: 48
  DW_CFA_advance_loc: 1 to 0000000000447a22
  DW_CFA_def_cfa_offset: 40
  DW_CFA_advance_loc: 2 to 0000000000447a24
  DW_CFA_def_cfa_offset: 32
  DW_CFA_advance_loc: 2 to 0000000000447a26
  DW_CFA_def_cfa_offset: 24
  DW_CFA_advance_loc: 2 to 0000000000447a28
  DW_CFA_def_cfa_offset: 16
  DW_CFA_advance_loc: 2 to 0000000000447a2a
  DW_CFA_def_cfa_offset: 8
  DW_CFA_advance_loc: 6 to 0000000000447a30
  DW_CFA_restore_state
  DW_CFA_advance_loc2: 646 to 0000000000447cb6
  DW_CFA_def_cfa_offset: 136
  DW_CFA_advance_loc: 2 to 0000000000447cb8
  DW_CFA_def_cfa_offset: 144
  DW_CFA_advance_loc: 28 to 0000000000447cd4
  DW_CFA_def_cfa_offset: 136
  DW_CFA_advance_loc: 4 to 0000000000447cd8
  DW_CFA_def_cfa_offset: 128
  DW_CFA_nop
  DW_CFA_nop

00004f68 000000000000006c 00004f3c FDE cie=00000030 pc=0000000000447ea0..00000000004481fd
  DW_CFA_advance_loc: 2 to 0000000000447ea2
  DW_CFA_def_cfa_offset: 16
  DW_CFA_offset: r15 (r15) at cfa-16
  DW_CFA_advance_loc: 2 to 0000000000447ea4
  DW_CFA_def_cfa_offset: 24
  DW_CFA_offset: r14 (r14) at cfa-24
  DW_CFA_advance_loc: 6 to 0000000000447eaa
  DW_CFA_def_cfa_offset: 32
  DW_CFA_offset: r13 (r13) at cfa-32
  DW_CFA_advance_loc: 2 to 0000000000447eac
  DW_CFA_def_cfa_offset: 40
  DW_CFA_offset: r12 (r12) at cfa-40
  DW_CFA_advance_loc: 4 to 0000000000447eb0
  DW_CFA_def_cfa_offset: 48
  DW_CFA_offset: r6 (rbp) at cfa-48
  DW_CFA_advance_loc: 1 to 0000000000447eb1
  DW_CFA_def_cfa_offset: 56
  DW_CFA_offset: r3 (rbx) at cfa-56
  DW_CFA_advance_loc: 16 to 0000000000447ec1
  DW_CFA_def_cfa_offset: 128
  DW_CFA_advance_loc1: 97 to 0000000000447f22
  DW_CFA_remember_state
  DW_CFA_def_cfa_offset: 56
  DW_CFA_advance_loc: 4 to 0000000000447f26
  DW_CFA_def_cfa_offset: 48
  DW_CFA_advance_loc: 1 to 0000000000447f27
  DW_CFA_def_cfa_offset: 40
  DW_CFA_advance_loc: 2 to 0000000000447f29
  DW_CFA_def_cfa_offset: 32
  DW_CFA_advance_loc: 2 to 0000000000447f2b
  DW_CFA_def_cfa_offset: 24
  DW_CFA_advance_loc: 2 to 0000000000447f2d
  DW_CFA_def_cfa_offset: 16
  DW_CFA_advance_loc: 2 to 0000000000447f2f
  DW_CFA_def_cfa_offset: 8
  DW_CFA_advance_loc: 1 to 0000000000447f30
  DW_CFA_restore_state
  DW_CFA_advance_loc: 23 to 0000000000447f47
  DW_CFA_def_cfa_offset: 136
  DW_CFA_advance_loc: 1 to 0000000000447f48
  DW_CFA_def_cfa_offset: 144
  DW_CFA_advance_loc: 19 to 0000000000447f5b
  DW_CFA_def_cfa_offset: 136
  DW_CFA_advance_loc: 4 to 0000000000447f5f
  DW_CFA_def_cfa_offset: 128
  DW_CFA_advance_loc2: 317 to 000000000044809c
  DW_CFA_def_cfa_offset: 136
  DW_CFA_advance_loc: 2 to 000000000044809e
  DW_CFA_def_cfa_offset: 144
  DW_CFA_advance_loc: 28 to 00000000004480ba
  DW_CFA_def_cfa_offset: 136
  DW_CFA_advance_loc: 4 to 00000000004480be
  DW_CFA_def_cfa_offset: 128
  DW_CFA_nop
  DW_CFA_nop

00004fd8 00000000000000ac 00004fac FDE cie=00000030 pc=0000000000448200..00000000004489af
  DW_CFA_advance_loc: 2 to 0000000000448202
  DW_CFA_def_cfa_offset: 16
  DW_CFA_offset: r15 (r15) at cfa-16
  DW_CFA_advance_loc: 2 to 0000000000448204
  DW_CFA_def_cfa_offset: 24
  DW_CFA_offset: r14 (r14) at cfa-24
  DW_CFA_advance_loc: 5 to 0000000000448209
  DW_CFA_def_cfa_offset: 32
  DW_CFA_offset: r13 (r13) at cfa-32
  DW_CFA_advance_loc: 2 to 000000000044820b
  DW_CFA_def_cfa_offset: 40
  DW_CFA_offset: r12 (r12) at cfa-40
  DW_CFA_advance_loc: 4 to 000000000044820f
  DW_CFA_def_cfa_offset: 48
  DW_CFA_offset: r6 (rbp) at cfa-48
  DW_CFA_advance_loc: 1 to 0000000000448210
  DW_CFA_def_cfa_offset: 56
  DW_CFA_offset: r3 (rbx) at cfa-56
  DW_CFA_advance_loc: 13 to 000000000044821d
  DW_CFA_def_cfa_offset: 176
  DW_CFA_advance_loc1: 133 to 00000000004482a2
  DW_CFA_remember_state
  DW_CFA_def_cfa_offset: 56
  DW_CFA_advance_loc: 1 to 00000000004482a3
  DW_CFA_def_cfa_offset: 48
  DW_CFA_advance_loc: 1 to 00000000004482a4
  DW_CFA_def_cfa_offset: 40
  DW_CFA_advance_loc: 2 to 00000000004482a6
  DW_CFA_def_cfa_offset: 32
  DW_CFA_advance_loc: 2 to 00000000004482a8
  DW_CFA_def_cfa_offset: 24
  DW_CFA_advance_loc: 2 to 00000000004482aa
  DW_CFA_def_cfa_offset: 16
  DW_CFA_advance_loc: 2 to 00000000004482ac
  DW_CFA_def_cfa_offset: 8
  DW_CFA_advance_loc: 4 to 00000000004482b0
  DW_CFA_restore_state
  DW_CFA_advance_loc: 28 to 00000000004482cc
  DW_CFA_def_cfa_offset: 184
  DW_CFA_advance_loc: 1 to 00000000004482cd
  DW_CFA_def_cfa_offset: 192
  DW_CFA_advance_loc: 19 to 00000000004482e0
  DW_CFA_def_cfa_offset: 184
  DW_CFA_advance_loc: 2 to 00000000004482e2
  DW_CFA_def_cfa_offset: 176
  DW_CFA_advance_loc: 4 to 00000000004482e6
  DW_CFA_remember_state
  DW_CFA_def_cfa_offset: 56
  DW_CFA_advance_loc: 1 to 00000000004482e7
  DW_CFA_def_cfa_offset: 48
  DW_CFA_advance_loc: 1 to 00000000004482e8
  DW_CFA_def_cfa_offset: 40
  DW_CFA_advance_loc: 2 to 00000000004482ea
  DW_CFA_def_cfa_offset: 32
  DW_CFA_advance_loc: 2 to 00000000004482ec
  DW_CFA_def_cfa_offset: 24
  DW_CFA_advance_loc: 2 to 00000000004482ee
  DW_CFA_def_cfa_offset: 16
  DW_CFA_advance_loc: 2 to 00000000004482f0
  DW_CFA_def_cfa_offset: 8
  DW_CFA_advance_loc: 8 to 00000000004482f8
  DW_CFA_restore_state
  DW_CFA_advance_loc2: 356 to 000000000044845c
  DW_CFA_def_cfa_offset: 184
  DW_CFA_advance_loc: 8 to 0000000000448464
  DW_CFA_def_cfa_offset: 192
  DW_CFA_advance_loc: 37 to 0000000000448489
  DW_CFA_def_cfa_offset: 184
  DW_CFA_advance_loc: 6 to 000000000044848f
  DW_CFA_def_cfa_offset: 176
  DW_CFA_advance_loc1: 111 to 00000000004484fe
  DW_CFA_def_cfa_offset: 184
  DW_CFA_advance_loc: 2 to 0000000000448500
  DW_CFA_def_cfa_offset: 192
  DW_CFA_advance_loc: 24 to 0000000000448518
  DW_CFA_def_cfa_offset: 184
  DW_CFA_advance_loc: 4 to 000000000044851c
  DW_CFA_def_cfa_offset: 176
  DW_CFA_advance_loc2: 753 to 000000000044880d
  DW_CFA_def_cfa_offset: 184
  DW_CFA_advance_loc: 12 to 0000000000448819
  DW_CFA_def_cfa_offset: 192
  DW_CFA_advance_loc: 25 to 0000000000448832
  DW_CFA_def_cfa_offset: 184
  DW_CFA_advance_loc: 5 to 0000000000448837
  DW_CFA_def_cfa_offset: 176
  DW_CFA_nop
  DW_CFA_nop
  DW_CFA_nop
  DW_CFA_nop
  DW_CFA_nop
  DW_CFA_nop
  DW_CFA_nop

00005088 00000000000000a4 0000505c FDE cie=00000030 pc=00000000004489b0..000000000044963b
  DW_CFA_advance_loc: 2 to 00000000004489b2
  DW_CFA_def_cfa_offset: 16
  DW_CFA_offset: r15 (r15) at cfa-16
  DW_CFA_advance_loc: 2 to 00000000004489b4
  DW_CFA_def_cfa_offset: 24
  DW_CFA_offset: r14 (r14) at cfa-24
  DW_CFA_advance_loc: 5 to 00000000004489b9
  DW_CFA_def_cfa_offset: 32
  DW_CFA_offset: r13 (r13) at cfa-32
  DW_CFA_advance_loc: 2 to 00000000004489bb
  DW_CFA_def_cfa_offset: 40
  DW_CFA_offset: r12 (r12) at cfa-40
  DW_CFA_advance_loc: 4 to 00000000004489bf
  DW_CFA_def_cfa_offset: 48
  DW_CFA_offset: r6 (rbp) at cfa-48
  DW_CFA_advance_loc: 1 to 00000000004489c0
  DW_CFA_def_cfa_offset: 56
  DW_CFA_offset: r3 (rbx) at cfa-56
  DW_CFA_advance_loc: 10 to 00000000004489ca
  DW_CFA_def_cfa_offset: 208
  DW_CFA_advance_loc1: 147 to 0000000000448a5d
  DW_CFA_remember_state
  DW_CFA_def_cfa_offset: 56
  DW_CFA_advance_loc: 1 to 0000000000448a5e
  DW_CFA_def_cfa_offset: 48
  DW_CFA_advance_loc: 1 to 0000000000448a5f
  DW_CFA_def_cfa_offset: 40
  DW_CFA_advance_loc: 2 to 0000000000448a61
  DW_CFA_def_cfa_offset: 32
  DW_CFA_advance_loc: 2 to 0000000000448a63
  DW_CFA_def_cfa_offset: 24
  DW_CFA_advance_loc: 2 to 0000000000448a65
  DW_CFA_def_cfa_offset: 16
  DW_CFA_advance_loc: 2 to 0000000000448a67
  DW_CFA_def_cfa_offset: 8
  DW_CFA_advance_loc: 9 to 0000000000448a70
  DW_CFA_restore_state
  DW_CFA_advance_loc: 28 to 0000000000448a8c
  DW_CFA_def_cfa_offset: 216
  DW_CFA_advance_loc: 1 to 0000000000448a8d
  DW_CFA_def_cfa_offset: 224
  DW_CFA_advance_loc: 19 to 0000000000448aa0
  DW_CFA_def_cfa_offset: 216
  DW_CFA_advance_loc: 1 to 0000000000448aa1
  DW_CFA_def_cfa_offset: 208
  DW_CFA_advance_loc2: 760 to 0000000000448d99
  DW_CFA_def_cfa_offset: 216
  DW_CFA_advance_loc: 7 to 0000000000448da0
  DW_CFA_def_cfa_offset: 224
  DW_CFA_advance_loc: 42 to 0000000000448dca
  DW_CFA_def_cfa_offset: 216
  DW_CFA_advance_loc: 6 to 0000000000448dd0
  DW_CFA_def_cfa_offset: 208
  DW_CFA_advance_loc1: 90 to 0000000000448e2a
  DW_CFA_def_cfa_offset: 216
  DW_CFA_advance_loc: 2 to 0000000000448e2c
  DW_CFA_def_cfa_offset: 224
  DW_CFA_advance_loc: 38 to 0000000000448e52
  DW_CFA_def_cfa_offset: 216
  DW_CFA_advance_loc: 1 to 0000000000448e53
  DW_CFA_def_cfa_offset: 208
  DW_CFA_advance_loc2: 565 to 0000000000449088
  DW_CFA_def_cfa_offset: 216
  DW_CFA_advance_loc: 7 to 000000000044908f
  DW_CFA_def_cfa_offset: 224
  DW_CFA_advance_loc: 38 to 00000000004490b5
  DW_CFA_def_cfa_offset: 216
  DW_CFA_advance_loc: 4 to 00000000004490b9
  DW_CFA_def_cfa_offset: 208
  DW_CFA_advance_loc2: 982 to 000000000044948f
  DW_CFA_def_cfa_offset: 216
  DW_CFA_advance_loc: 4 to 0000000000449493
  DW_CFA_def_cfa_offset: 224
  DW_CFA_advance_loc: 38 to 00000000004494b9
  DW_CFA_def_cfa_offset: 216
  DW_CFA_advance_loc: 4 to 00000000004494bd
  DW_CFA_def_cfa_offset: 208
  DW_CFA_nop
  DW_CFA_nop
  DW_CFA_nop
  DW_CFA_nop
  DW_CFA_nop

00005130 0000000000000084 00005104 FDE cie=00000030 pc=0000000000449640..000000000044a775
  DW_CFA_advance_loc: 2 to 0000000000449642
  DW_CFA_def_cfa_offset: 16
  DW_CFA_offset: r15 (r15) at cfa-16
  DW_CFA_advance_loc: 2 to 0000000000449644
  DW_CFA_def_cfa_offset: 24
  DW_CFA_offset: r14 (r14) at cfa-24
  DW_CFA_advance_loc: 6 to 000000000044964a
  DW_CFA_def_cfa_offset: 32
  DW_CFA_offset: r13 (r13) at cfa-32
  DW_CFA_advance_loc: 2 to 000000000044964c
  DW_CFA_def_cfa_offset: 40
  DW_CFA_offset: r12 (r12) at cfa-40
  DW_CFA_advance_loc: 4 to 0000000000449650
  DW_CFA_def_cfa_offset: 48
  DW_CFA_offset: r6 (rbp) at cfa-48
  DW_CFA_advance_loc: 1 to 0000000000449651
  DW_CFA_def_cfa_offset: 56
  DW_CFA_offset: r3 (rbx) at cfa-56
  DW_CFA_advance_loc: 10 to 000000000044965b
  DW_CFA_def_cfa_offset: 160
  DW_CFA_advance_loc1: 129 to 00000000004496dc
  DW_CFA_remember_state
  DW_CFA_def_cfa_offset: 56
  DW_CFA_advance_loc: 1 to 00000000004496dd
  DW_CFA_def_cfa_offset: 48
  DW_CFA_advance_loc: 1 to 00000000004496de
  DW_CFA_def_cfa_offset: 40
  DW_CFA_advance_loc: 2 to 00000000004496e0
  DW_CFA_def_cfa_offset: 32
  DW_CFA_advance_loc: 2 to 00000000004496e2
  DW_CFA_def_cfa_offset: 24
  DW_CFA_advance_loc: 2 to 00000000004496e4
  DW_CFA_def_cfa_offset: 16
  DW_CFA_advance_loc: 2 to 00000000004496e6
  DW_CFA_def_cfa_offset: 8
  DW_CFA_advance_loc: 10 to 00000000004496f0
  DW_CFA_restore_state
  DW_CFA_advance_loc: 28 to 000000000044970c
  DW_CFA_def_cfa_offset: 168
  DW_CFA_advance_loc: 1 to 000000000044970d
  DW_CFA_def_cfa_offset: 176
  DW_CFA_advance_loc: 19 to 0000000000449720
  DW_CFA_def_cfa_offset: 168
  DW_CFA_advance_loc: 2 to 0000000000449722
  DW_CFA_def_cfa_offset: 160
  DW_CFA_advance_loc: 4 to 0000000000449726
  DW_CFA_remember_state
  DW_CFA_def_cfa_offset: 56
  DW_CFA_advance_loc: 1 to 0000000000449727
  DW_CFA_def_cfa_offset: 48
  DW_CFA_advance_loc: 1 to 0000000000449728
  DW_CFA_def_cfa_offset: 40
  DW_CFA_advance_loc: 2 to 000000000044972a
  DW_CFA_def_cfa_offset: 32
  DW_CFA_advance_loc: 2 to 000000000044972c
  DW_CFA_def_cfa_offset: 24
  DW_CFA_advance_loc: 2 to 000000000044972e
  DW_CFA_def_cfa_offset: 16
  DW_CFA_advance_loc: 2 to 0000000000449730
  DW_CFA_def_cfa_offset: 8
  DW_CFA_advance_loc: 1 to 0000000000449731
  DW_CFA_restore_state
  DW_CFA_advance_loc2: 1045 to 0000000000449b46
  DW_CFA_def_cfa_offset: 168
  DW_CFA_advance_loc: 2 to 0000000000449b48
  DW_CFA_def_cfa_offset: 176
  DW_CFA_advance_loc: 28 to 0000000000449b64
  DW_CFA_def_cfa_offset: 168
  DW_CFA_advance_loc: 7 to 0000000000449b6b
  DW_CFA_def_cfa_offset: 160
  DW_CFA_nop
  DW_CFA_nop

000051b8 0000000000000084 0000518c FDE cie=00000030 pc=000000000044a780..000000000044adba
  DW_CFA_advance_loc: 2 to 000000000044a782
  DW_CFA_def_cfa_offset: 16
  DW_CFA_offset: r15 (r15) at cfa-16
  DW_CFA_advance_loc: 2 to 000000000044a784
  DW_CFA_def_cfa_offset: 24
  DW_CFA_offset: r14 (r14) at cfa-24
  DW_CFA_advance_loc: 6 to 000000000044a78a
  DW_CFA_def_cfa_offset: 32
  DW_CFA_offset: r13 (r13) at cfa-32
  DW_CFA_advance_loc: 2 to 000000000044a78c
  DW_CFA_def_cfa_offset: 40
  DW_CFA_offset: r12 (r12) at cfa-40
  DW_CFA_advance_loc: 4 to 000000000044a790
  DW_CFA_def_cfa_offset: 48
  DW_CFA_offset: r6 (rbp) at cfa-48
  DW_CFA_advance_loc: 1 to 000000000044a791
  DW_CFA_def_cfa_offset: 56
  DW_CFA_offset: r3 (rbx) at cfa-56
  DW_CFA_advance_loc: 16 to 000000000044a7a1
  DW_CFA_def_cfa_offset: 144
  DW_CFA_advance_loc1: 97 to 000000000044a802
  DW_CFA_remember_state
  DW_CFA_def_cfa_offset: 56
  DW_CFA_advance_loc: 1 to 000000000044a803
  DW_CFA_def_cfa_offset: 48
  DW_CFA_advance_loc: 1 to 000000000044a804
  DW_CFA_def_cfa_offset: 40
  DW_CFA_advance_loc: 2 to 000000000044a806
  DW_CFA_def_cfa_offset: 32
  DW_CFA_advance_loc: 2 to 000000000044a808
  DW_CFA_def_cfa_offset: 24
  DW_CFA_advance_loc: 2 to 000000000044a80a
  DW_CFA_def_cfa_offset: 16
  DW_CFA_advance_loc: 2 to 000000000044a80c
  DW_CFA_def_cfa_offset: 8
  DW_CFA_advance_loc: 4 to 000000000044a810
  DW_CFA_restore_state
  DW_CFA_advance_loc: 23 to 000000000044a827
  DW_CFA_def_cfa_offset: 152
  DW_CFA_advance_loc: 2 to 000000000044a829
  DW_CFA_def_cfa_offset: 160
  DW_CFA_advance_loc: 19 to 000000000044a83c
  DW_CFA_def_cfa_offset: 152
  DW_CFA_advance_loc: 2 to 000000000044a83e
  DW_CFA_def_cfa_offset: 144
  DW_CFA_advance_loc: 4 to 000000000044a842
  DW_CFA_remember_state
  DW_CFA_def_cfa_offset: 56
  DW_CFA_advance_loc: 1 to 000000000044a843
  DW_CFA_def_cfa_offset: 48
  DW_CFA_advance_loc: 1 to 000000000044a844
  DW_CFA_def_cfa_offset: 40
  DW_CFA_advance_loc: 2 to 000000000044a846
  DW_CFA_def_cfa_offset: 32
  DW_CFA_advance_loc: 2 to 000000000044a848
  DW_CFA_def_cfa_offset: 24
  DW_CFA_advance_loc: 2 to 000000000044a84a
  DW_CFA_def_cfa_offset: 16
  DW_CFA_advance_loc: 2 to 000000000044a84c
  DW_CFA_def_cfa_offset: 8
  DW_CFA_advance_loc: 4 to 000000000044a850
  DW_CFA_restore_state
  DW_CFA_advance_loc2: 514 to 000000000044aa52
  DW_CFA_def_cfa_offset: 152
  DW_CFA_advance_loc: 2 to 000000000044aa54
  DW_CFA_def_cfa_offset: 160
  DW_CFA_advance_loc: 28 to 000000000044aa70
  DW_CFA_def_cfa_offset: 152
  DW_CFA_advance_loc: 4 to 000000000044aa74
  DW_CFA_def_cfa_offset: 144
  DW_CFA_nop
  DW_CFA_nop

00005240 00000000000000ac 00005214 FDE cie=00000030 pc=000000000044adc0..000000000044b5d1
  DW_CFA_advance_loc: 2 to 000000000044adc2
  DW_CFA_def_cfa_offset: 16
  DW_CFA_offset: r15 (r15) at cfa-16
  DW_CFA_advance_loc: 2 to 000000000044adc4
  DW_CFA_def_cfa_offset: 24
  DW_CFA_offset: r14 (r14) at cfa-24
  DW_CFA_advance_loc: 6 to 000000000044adca
  DW_CFA_def_cfa_offset: 32
  DW_CFA_offset: r13 (r13) at cfa-32
  DW_CFA_advance_loc: 2 to 000000000044adcc
  DW_CFA_def_cfa_offset: 40
  DW_CFA_offset: r12 (r12) at cfa-40
  DW_CFA_advance_loc: 4 to 000000000044add0
  DW_CFA_def_cfa_offset: 48
  DW_CFA_offset: r6 (rbp) at cfa-48
  DW_CFA_advance_loc: 1 to 000000000044add1
  DW_CFA_def_cfa_offset: 56
  DW_CFA_offset: r3 (rbx) at cfa-56
  DW_CFA_advance_loc: 13 to 000000000044adde
  DW_CFA_def_cfa_offset: 176
  DW_CFA_advance_loc1: 124 to 000000000044ae5a
  DW_CFA_remember_state
  DW_CFA_def_cfa_offset: 56
  DW_CFA_advance_loc: 1 to 000000000044ae5b
  DW_CFA_def_cfa_offset: 48
  DW_CFA_advance_loc: 1 to 000000000044ae5c
  DW_CFA_def_cfa_offset: 40
  DW_CFA_advance_loc: 2 to 000000000044ae5e
  DW_CFA_def_cfa_offset: 32
  DW_CFA_advance_loc: 2 to 000000000044ae60
  DW_CFA_def_cfa_offset: 24
  DW_CFA_advance_loc: 2 to 000000000044ae62
  DW_CFA_def_cfa_offset: 16
  DW_CFA_advance_loc: 2 to 000000000044ae64
  DW_CFA_def_cfa_offset: 8
  DW_CFA_advance_loc: 4 to 000000000044ae68
  DW_CFA_restore_state
  DW_CFA_advance_loc: 28 to 000000000044ae84
  DW_CFA_def_cfa_offset: 184
  DW_CFA_advance_loc: 1 to 000000000044ae85
  DW_CFA_def_cfa_offset: 192
  DW_CFA_advance_loc: 19 to 000000000044ae98
  DW_CFA_def_cfa_offset: 184
  DW_CFA_advance_loc: 2 to 000000000044ae9a
  DW_CFA_def_cfa_offset: 176
  DW_CFA_advance_loc: 4 to 000000000044ae9e
  DW_CFA_remember_state
  DW_CFA_def_cfa_offset: 56
  DW_CFA_advance_loc: 1 to 000000000044ae9f
  DW_CFA_def_cfa_offset: 48
  DW_CFA_advance_loc: 1 to 000000000044aea0
  DW_CFA_def_cfa_offset: 40
  DW_CFA_advance_loc: 2 to 000000000044aea2
  DW_CFA_def_cfa_offset: 32
  DW_CFA_advance_loc: 2 to 000000000044aea4
  DW_CFA_def_cfa_offset: 24
  DW_CFA_advance_loc: 2 to 000000000044aea6
  DW_CFA_def_cfa_offset: 16
  DW_CFA_advance_loc: 2 to 000000000044aea8
  DW_CFA_def_cfa_offset: 8
  DW_CFA_advance_loc: 8 to 000000000044aeb0
  DW_CFA_restore_state
  DW_CFA_advance_loc2: 441 to 000000000044b069
  DW_CFA_def_cfa_offset: 184
  DW_CFA_advance_loc: 5 to 000000000044b06e
  DW_CFA_def_cfa_offset: 192
  DW_CFA_advance_loc: 35 to 000000000044b091
  DW_CFA_def_cfa_offset: 184
  DW_CFA_advance_loc: 5 to 000000000044b096
  DW_CFA_def_cfa_offset: 176
  DW_CFA_advance_loc1: 82 to 000000000044b0e8
  DW_CFA_def_cfa_offset: 184
  DW_CFA_advance_loc: 2 to 000000000044b0ea
  DW_CFA_def_cfa_offset: 192
  DW_CFA_advance_loc: 24 to 000000000044b102
  DW_CFA_def_cfa_offset: 184
  DW_CFA_advance_loc: 4 to 000000000044b106
  DW_CFA_def_cfa_offset: 176
  DW_CFA_advance_loc2: 804 to 000000000044b42a
  DW_CFA_def_cfa_offset: 184
  DW_CFA_advance_loc: 7 to 000000000044b431
  DW_CFA_def_cfa_offset: 192
  DW_CFA_advance_loc: 22 to 000000000044b447
  DW_CFA_def_cfa_offset: 184
  DW_CFA_advance_loc: 5 to 000000000044b44c
  DW_CFA_def_cfa_offset: 176
  DW_CFA_nop
  DW_CFA_nop
  DW_CFA_nop
  DW_CFA_nop
  DW_CFA_nop
  DW_CFA_nop
  DW_CFA_nop

000052f0 0000000000000084 000052c4 FDE cie=00000030 pc=000000000044b5e0..000000000044bc15
  DW_CFA_advance_loc: 2 to 000000000044b5e2
  DW_CFA_def_cfa_offset: 16
  DW_CFA_offset: r15 (r15) at cfa-16
  DW_CFA_advance_loc: 2 to 000000000044b5e4
  DW_CFA_def_cfa_offset: 24
  DW_CFA_offset: r14 (r14) at cfa-24
  DW_CFA_advance_loc: 6 to 000000000044b5ea
  DW_CFA_def_cfa_offset: 32
  DW_CFA_offset: r13 (r13) at cfa-32
  DW_CFA_advance_loc: 2 to 000000000044b5ec
  DW_CFA_def_cfa_offset: 40
  DW_CFA_offset: r12 (r12) at cfa-40
  DW_CFA_advance_loc: 4 to 000000000044b5f0
  DW_CFA_def_cfa_offset: 48
  DW_CFA_offset: r6 (rbp) at cfa-48
  DW_CFA_advance_loc: 1 to 000000000044b5f1
  DW_CFA_def_cfa_offset: 56
  DW_CFA_offset: r3 (rbx) at cfa-56
  DW_CFA_advance_loc: 16 to 000000000044b601
  DW_CFA_def_cfa_offset: 144
  DW_CFA_advance_loc1: 97 to 000000000044b662
  DW_CFA_remember_state
  DW_CFA_def_cfa_offset: 56
  DW_CFA_advance_loc: 1 to 000000000044b663
  DW_CFA_def_cfa_offset: 48
  DW_CFA_advance_loc: 1 to 000000000044b664
  DW_CFA_def_cfa_offset: 40
  DW_CFA_advance_loc: 2 to 000000000044b666
  DW_CFA_def_cfa_offset: 32
  DW_CFA_advance_loc: 2 to 000000000044b668
  DW_CFA_def_cfa_offset: 24
  DW_CFA_advance_loc: 2 to 000000000044b66a
  DW_CFA_def_cfa_offset: 16
  DW_CFA_advance_loc: 2 to 000000000044b66c
  DW_CFA_def_cfa_offset: 8
  DW_CFA_advance_loc: 4 to 000000000044b670
  DW_CFA_restore_state
  DW_CFA_advance_loc: 23 to 000000000044b687
  DW_CFA_def_cfa_offset: 152
  DW_CFA_advance_loc: 2 to 000000000044b689
  DW_CFA_def_cfa_offset: 160
  DW_CFA_advance_loc: 20 to 000000000044b69d
  DW_CFA_def_cfa_offset: 152
  DW_CFA_advance_loc: 2 to 000000000044b69f
  DW_CFA_def_cfa_offset: 144
  DW_CFA_advance_loc: 4 to 000000000044b6a3
  DW_CFA_remember_state
  DW_CFA_def_cfa_offset: 56
  DW_CFA_advance_loc: 1 to 000000000044b6a4
  DW_CFA_def_cfa_offset: 48
  DW_CFA_advance_loc: 1 to 000000000044b6a5
  DW_CFA_def_cfa_offset: 40
  DW_CFA_advance_loc: 2 to 000000000044b6a7
  DW_CFA_def_cfa_offset: 32
  DW_CFA_advance_loc: 2 to 000000000044b6a9
  DW_CFA_def_cfa_offset: 24
  DW_CFA_advance_loc: 2 to 000000000044b6ab
  DW_CFA_def_cfa_offset: 16
  DW_CFA_advance_loc: 2 to 000000000044b6ad
  DW_CFA_def_cfa_offset: 8
  DW_CFA_advance_loc: 3 to 000000000044b6b0
  DW_CFA_restore_state
  DW_CFA_advance_loc2: 504 to 000000000044b8a8
  DW_CFA_def_cfa_offset: 152
  DW_CFA_advance_loc: 2 to 000000000044b8aa
  DW_CFA_def_cfa_offset: 160
  DW_CFA_advance_loc: 24 to 000000000044b8c2
  DW_CFA_def_cfa_offset: 152
  DW_CFA_advance_loc: 4 to 000000000044b8c6
  DW_CFA_def_cfa_offset: 144
  DW_CFA_nop
  DW_CFA_nop

00005378 00000000000000ac 0000534c FDE cie=00000030 pc=000000000044bc20..000000000044c46a
  DW_CFA_advance_loc: 2 to 000000000044bc22
  DW_CFA_def_cfa_offset: 16
  DW_CFA_offset: r15 (r15) at cfa-16
  DW_CFA_advance_loc: 2 to 000000000044bc24
  DW_CFA_def_cfa_offset: 24
  DW_CFA_offset: r14 (r14) at cfa-24
  DW_CFA_advance_loc: 6 to 000000000044bc2a
  DW_CFA_def_cfa_offset: 32
  DW_CFA_offset: r13 (r13) at cfa-32
  DW_CFA_advance_loc: 2 to 000000000044bc2c
  DW_CFA_def_cfa_offset: 40
  DW_CFA_offset: r12 (r12) at cfa-40
  DW_CFA_advance_loc: 4 to 000000000044bc30
  DW_CFA_def_cfa_offset: 48
  DW_CFA_offset: r6 (rbp) at cfa-48
  DW_CFA_advance_loc: 1 to 000000000044bc31
  DW_CFA_def_cfa_offset: 56
  DW_CFA_offset: r3 (rbx) at cfa-56
  DW_CFA_advance_loc: 13 to 000000000044bc3e
  DW_CFA_def_cfa_offset: 176
  DW_CFA_advance_loc1: 124 to 000000000044bcba
  DW_CFA_remember_state
  DW_CFA_def_cfa_offset: 56
  DW_CFA_advance_loc: 1 to 000000000044bcbb
  DW_CFA_def_cfa_offset: 48
  DW_CFA_advance_loc: 1 to 000000000044bcbc
  DW_CFA_def_cfa_offset: 40
  DW_CFA_advance_loc: 2 to 000000000044bcbe
  DW_CFA_def_cfa_offset: 32
  DW_CFA_advance_loc: 2 to 000000000044bcc0
  DW_CFA_def_cfa_offset: 24
  DW_CFA_advance_loc: 2 to 000000000044bcc2
  DW_CFA_def_cfa_offset: 16
  DW_CFA_advance_loc: 2 to 000000000044bcc4
  DW_CFA_def_cfa_offset: 8
  DW_CFA_advance_loc: 4 to 000000000044bcc8
  DW_CFA_restore_state
  DW_CFA_advance_loc: 28 to 000000000044bce4
  DW_CFA_def_cfa_offset: 184
  DW_CFA_advance_loc: 1 to 000000000044bce5
  DW_CFA_def_cfa_offset: 192
  DW_CFA_advance_loc: 19 to 000000000044bcf8
  DW_CFA_def_cfa_offset: 184
  DW_CFA_advance_loc: 2 to 000000000044bcfa
  DW_CFA_def_cfa_offset: 176
  DW_CFA_advance_loc: 4 to 000000000044bcfe
  DW_CFA_remember_state
  DW_CFA_def_cfa_offset: 56
  DW_CFA_advance_loc: 1 to 000000000044bcff
  DW_CFA_def_cfa_offset: 48
  DW_CFA_advance_loc: 1 to 000000000044bd00
  DW_CFA_def_cfa_offset: 40
  DW_CFA_advance_loc: 2 to 000000000044bd02
  DW_CFA_def_cfa_offset: 32
  DW_CFA_advance_loc: 2 to 000000000044bd04
  DW_CFA_def_cfa_offset: 24
  DW_CFA_advance_loc: 2 to 000000000044bd06
  DW_CFA_def_cfa_offset: 16
  DW_CFA_advance_loc: 2 to 000000000044bd08
  DW_CFA_def_cfa_offset: 8
  DW_CFA_advance_loc: 8 to 000000000044bd10
  DW_CFA_restore_state
  DW_CFA_advance_loc2: 444 to 000000000044becc
  DW_CFA_def_cfa_offset: 184
  DW_CFA_advance_loc: 8 to 000000000044bed4
  DW_CFA_def_cfa_offset: 192
  DW_CFA_advance_loc: 29 to 000000000044bef1
  DW_CFA_def_cfa_offset: 184
  DW_CFA_advance_loc: 4 to 000000000044bef5
  DW_CFA_def_cfa_offset: 176
  DW_CFA_advance_loc1: 83 to 000000000044bf48
  DW_CFA_def_cfa_offset: 184
  DW_CFA_advance_loc: 2 to 000000000044bf4a
  DW_CFA_def_cfa_offset: 192
  DW_CFA_advance_loc: 24 to 000000000044bf62
  DW_CFA_def_cfa_offset: 184
  DW_CFA_advance_loc: 4 to 000000000044bf66
  DW_CFA_def_cfa_offset: 176
  DW_CFA_advance_loc2: 846 to 000000000044c2b4
  DW_CFA_def_cfa_offset: 184
  DW_CFA_advance_loc: 7 to 000000000044c2bb
  DW_CFA_def_cfa_offset: 192
  DW_CFA_advance_loc: 22 to 000000000044c2d1
  DW_CFA_def_cfa_offset: 184
  DW_CFA_advance_loc: 5 to 000000000044c2d6
  DW_CFA_def_cfa_offset: 176
  DW_CFA_nop
  DW_CFA_nop
  DW_CFA_nop
  DW_CFA_nop
  DW_CFA_nop
  DW_CFA_nop
  DW_CFA_nop

00005428 000000000000006c 000053fc FDE cie=00000030 pc=000000000044c470..000000000044c933
  DW_CFA_advance_loc: 2 to 000000000044c472
  DW_CFA_def_cfa_offset: 16
  DW_CFA_offset: r15 (r15) at cfa-16
  DW_CFA_advance_loc: 2 to 000000000044c474
  DW_CFA_def_cfa_offset: 24
  DW_CFA_offset: r14 (r14) at cfa-24
  DW_CFA_advance_loc: 5 to 000000000044c479
  DW_CFA_def_cfa_offset: 32
  DW_CFA_offset: r13 (r13) at cfa-32
  DW_CFA_advance_loc: 2 to 000000000044c47b
  DW_CFA_def_cfa_offset: 40
  DW_CFA_offset: r12 (r12) at cfa-40
  DW_CFA_advance_loc: 4 to 000000000044c47f
  DW_CFA_def_cfa_offset: 48
  DW_CFA_offset: r6 (rbp) at cfa-48
  DW_CFA_advance_loc: 1 to 000000000044c480
  DW_CFA_def_cfa_offset: 56
  DW_CFA_offset: r3 (rbx) at cfa-56
  DW_CFA_advance_loc: 7 to 000000000044c487
  DW_CFA_def_cfa_offset: 192
  DW_CFA_advance_loc2: 444 to 000000000044c643
  DW_CFA_remember_state
  DW_CFA_def_cfa_offset: 56
  DW_CFA_advance_loc: 1 to 000000000044c644
  DW_CFA_def_cfa_offset: 48
  DW_CFA_advance_loc: 1 to 000000000044c645
  DW_CFA_def_cfa_offset: 40
  DW_CFA_advance_loc: 2 to 000000000044c647
  DW_CFA_def_cfa_offset: 32
  DW_CFA_advance_loc: 2 to 000000000044c649
  DW_CFA_def_cfa_offset: 24
  DW_CFA_advance_loc: 2 to 000000000044c64b
  DW_CFA_def_cfa_offset: 16
  DW_CFA_advance_loc: 2 to 000000000044c64d
  DW_CFA_def_cfa_offset: 8
  DW_CFA_advance_loc: 1 to 000000000044c64e
  DW_CFA_restore_state
  DW_CFA_advance_loc1: 173 to 000000000044c6fb
  DW_CFA_def_cfa_offset: 200
  DW_CFA_advance_loc: 2 to 000000000044c6fd
  DW_CFA_def_cfa_offset: 208
  DW_CFA_advance_loc: 40 to 000000000044c725
  DW_CFA_def_cfa_offset: 200
  DW_CFA_advance_loc: 2 to 000000000044c727
  DW_CFA_def_cfa_offset: 192
  DW_CFA_advance_loc1: 173 to 000000000044c7d4
  DW_CFA_def_cfa_offset: 200
  DW_CFA_advance_loc: 2 to 000000000044c7d6
  DW_CFA_def_cfa_offset: 208
  DW_CFA_advance_loc: 47 to 000000000044c805
  DW_CFA_def_cfa_offset: 200
  DW_CFA_advance_loc: 1 to 000000000044c806
  DW_CFA_def_cfa_offset: 192
  DW_CFA_nop

00005498 0000000000000034 0000546c FDE cie=00000030 pc=000000000044c940..000000000044ca3c
  DW_CFA_advance_loc: 1 to 000000000044c941
  DW_CFA_def_cfa_offset: 16
  DW_CFA_offset: r6 (rbp) at cfa-16
  DW_CFA_advance_loc: 3 to 000000000044c944
  DW_CFA_def_cfa_register: r6 (rbp)
  DW_CFA_advance_loc: 8 to 000000000044c94c
  DW_CFA_offset: r15 (r15) at cfa-24
  DW_CFA_offset: r14 (r14) at cfa-32
  DW_CFA_offset: r13 (r13) at cfa-40
  DW_CFA_offset: r12 (r12) at cfa-48
  DW_CFA_advance_loc: 7 to 000000000044c953
  DW_CFA_offset: r3 (rbx) at cfa-56
  DW_CFA_advance_loc1: 209 to 000000000044ca24
  DW_CFA_remember_state
  DW_CFA_def_cfa: r7 (rsp) ofs 8
  DW_CFA_advance_loc: 4 to 000000000044ca28
  DW_CFA_restore_state
  DW_CFA_advance_loc: 19 to 000000000044ca3b
  DW_CFA_def_cfa: r7 (rsp) ofs 8
  DW_CFA_nop
  DW_CFA_nop
  DW_CFA_nop
  DW_CFA_nop
  DW_CFA_nop
  DW_CFA_nop
  DW_CFA_nop

000054d0 0000000000000014 000054a4 FDE cie=00000030 pc=000000000049ff00..000000000049ff32
  DW_CFA_nop
  DW_CFA_nop
  DW_CFA_nop
  DW_CFA_nop
  DW_CFA_nop
  DW_CFA_nop
  DW_CFA_nop

000054e8 0000000000000014 000054bc FDE cie=00000030 pc=000000000044ca40..000000000044ca48
  DW_CFA_nop
  DW_CFA_nop
  DW_CFA_nop
  DW_CFA_nop
  DW_CFA_nop
  DW_CFA_nop
  DW_CFA_nop

00005500 0000000000000074 000054d4 FDE cie=00000030 pc=000000000044ca50..000000000044cc6f
  DW_CFA_advance_loc: 2 to 000000000044ca52
  DW_CFA_def_cfa_offset: 16
  DW_CFA_offset: r13 (r13) at cfa-16
  DW_CFA_advance_loc: 2 to 000000000044ca54
  DW_CFA_def_cfa_offset: 24
  DW_CFA_offset: r12 (r12) at cfa-24
  DW_CFA_advance_loc: 6 to 000000000044ca5a
  DW_CFA_def_cfa_offset: 32
  DW_CFA_offset: r6 (rbp) at cfa-32
  DW_CFA_advance_loc: 1 to 000000000044ca5b
  DW_CFA_def_cfa_offset: 40
  DW_CFA_offset: r3 (rbx) at cfa-40
  DW_CFA_advance_loc: 7 to 000000000044ca62
  DW_CFA_def_cfa_offset: 192
  DW_CFA_advance_loc1: 246 to 000000000044cb58
  DW_CFA_remember_state
  DW_CFA_def_cfa_offset: 40
  DW_CFA_advance_loc: 1 to 000000000044cb59
  DW_CFA_def_cfa_offset: 32
  DW_CFA_advance_loc: 1 to 000000000044cb5a
  DW_CFA_def_cfa_offset: 24
  DW_CFA_advance_loc: 2 to 000000000044cb5c
  DW_CFA_def_cfa_offset: 16
  DW_CFA_advance_loc: 2 to 000000000044cb5e
  DW_CFA_def_cfa_offset: 8
  DW_CFA_advance_loc: 2 to 000000000044cb60
  DW_CFA_restore_state
  DW_CFA_advance_loc: 24 to 000000000044cb78
  DW_CFA_remember_state
  DW_CFA_def_cfa_offset: 40
  DW_CFA_advance_loc: 1 to 000000000044cb79
  DW_CFA_def_cfa_offset: 32
  DW_CFA_advance_loc: 1 to 000000000044cb7a
  DW_CFA_def_cfa_offset: 24
  DW_CFA_advance_loc: 2 to 000000000044cb7c
  DW_CFA_def_cfa_offset: 16
  DW_CFA_advance_loc: 2 to 000000000044cb7e
  DW_CFA_def_cfa_offset: 8
  DW_CFA_advance_loc: 2 to 000000000044cb80
  DW_CFA_restore_state
  DW_CFA_advance_loc: 47 to 000000000044cbaf
  DW_CFA_remember_state
  DW_CFA_def_cfa_offset: 40
  DW_CFA_advance_loc: 6 to 000000000044cbb5
  DW_CFA_def_cfa_offset: 32
  DW_CFA_advance_loc: 1 to 000000000044cbb6
  DW_CFA_def_cfa_offset: 24
  DW_CFA_advance_loc: 2 to 000000000044cbb8
  DW_CFA_def_cfa_offset: 16
  DW_CFA_advance_loc: 2 to 000000000044cbba
  DW_CFA_def_cfa_offset: 8
  DW_CFA_advance_loc: 6 to 000000000044cbc0
  DW_CFA_restore_state
  DW_CFA_advance_loc1: 118 to 000000000044cc36
  DW_CFA_remember_state
  DW_CFA_def_cfa_offset: 40
  DW_CFA_advance_loc: 6 to 000000000044cc3c
  DW_CFA_def_cfa_offset: 32
  DW_CFA_advance_loc: 1 to 000000000044cc3d
  DW_CFA_def_cfa_offset: 24
  DW_CFA_advance_loc: 2 to 000000000044cc3f
  DW_CFA_def_cfa_offset: 16
  DW_CFA_advance_loc: 2 to 000000000044cc41
  DW_CFA_def_cfa_offset: 8
  DW_CFA_advance_loc: 7 to 000000000044cc48
  DW_CFA_restore_state
  DW_CFA_nop
  DW_CFA_nop
  DW_CFA_nop
  DW_CFA_nop
  DW_CFA_nop

00005578 0000000000000064 0000554c FDE cie=00000030 pc=000000000044cc70..000000000044ce19
  DW_CFA_advance_loc: 2 to 000000000044cc72
  DW_CFA_def_cfa_offset: 16
  DW_CFA_offset: r15 (r15) at cfa-16
  DW_CFA_advance_loc: 2 to 000000000044cc74
  DW_CFA_def_cfa_offset: 24
  DW_CFA_offset: r14 (r14) at cfa-24
  DW_CFA_advance_loc: 2 to 000000000044cc76
  DW_CFA_def_cfa_offset: 32
  DW_CFA_offset: r13 (r13) at cfa-32
  DW_CFA_advance_loc: 2 to 000000000044cc78
  DW_CFA_def_cfa_offset: 40
  DW_CFA_offset: r12 (r12) at cfa-40
  DW_CFA_advance_loc: 1 to 000000000044cc79
  DW_CFA_def_cfa_offset: 48
  DW_CFA_offset: r6 (rbp) at cfa-48
  DW_CFA_advance_loc: 1 to 000000000044cc7a
  DW_CFA_def_cfa_offset: 56
  DW_CFA_offset: r3 (rbx) at cfa-56
  DW_CFA_advance_loc: 4 to 000000000044cc7e
  DW_CFA_def_cfa_offset: 112
  DW_CFA_advance_loc1: 189 to 000000000044cd3b
  DW_CFA_remember_state
  DW_CFA_def_cfa_offset: 56
  DW_CFA_advance_loc: 1 to 000000000044cd3c
  DW_CFA_def_cfa_offset: 48
  DW_CFA_advance_loc: 1 to 000000000044cd3d
  DW_CFA_def_cfa_offset: 40
  DW_CFA_advance_loc: 2 to 000000000044cd3f
  DW_CFA_def_cfa_offset: 32
  DW_CFA_advance_loc: 2 to 000000000044cd41
  DW_CFA_def_cfa_offset: 24
  DW_CFA_advance_loc: 2 to 000000000044cd43
  DW_CFA_def_cfa_offset: 16
  DW_CFA_advance_loc: 2 to 000000000044cd45
  DW_CFA_def_cfa_offset: 8
  DW_CFA_advance_loc: 11 to 000000000044cd50
  DW_CFA_restore_state
  DW_CFA_advance_loc1: 180 to 000000000044ce04
  DW_CFA_remember_state
  DW_CFA_def_cfa_offset: 56
  DW_CFA_advance_loc: 1 to 000000000044ce05
  DW_CFA_def_cfa_offset: 48
  DW_CFA_advance_loc: 1 to 000000000044ce06
  DW_CFA_def_cfa_offset: 40
  DW_CFA_advance_loc: 2 to 000000000044ce08
  DW_CFA_def_cfa_offset: 32
  DW_CFA_advance_loc: 2 to 000000000044ce0a
  DW_CFA_def_cfa_offset: 24
  DW_CFA_advance_loc: 2 to 000000000044ce0c
  DW_CFA_def_cfa_offset: 16
  DW_CFA_advance_loc: 2 to 000000000044ce0e
  DW_CFA_def_cfa_offset: 8
  DW_CFA_advance_loc: 1 to 000000000044ce0f
  DW_CFA_restore_state
  DW_CFA_nop
  DW_CFA_nop
  DW_CFA_nop
  DW_CFA_nop

000055e0 000000000000004c 000055b4 FDE cie=00000030 pc=000000000044ce20..000000000044d3f8
  DW_CFA_advance_loc: 2 to 000000000044ce22
  DW_CFA_def_cfa_offset: 16
  DW_CFA_offset: r15 (r15) at cfa-16
  DW_CFA_advance_loc: 2 to 000000000044ce24
  DW_CFA_def_cfa_offset: 24
  DW_CFA_offset: r14 (r14) at cfa-24
  DW_CFA_advance_loc: 8 to 000000000044ce2c
  DW_CFA_def_cfa_offset: 32
  DW_CFA_offset: r13 (r13) at cfa-32
  DW_CFA_advance_loc: 2 to 000000000044ce2e
  DW_CFA_def_cfa_offset: 40
  DW_CFA_offset: r12 (r12) at cfa-40
  DW_CFA_advance_loc: 1 to 000000000044ce2f
  DW_CFA_def_cfa_offset: 48
  DW_CFA_offset: r6 (rbp) at cfa-48
  DW_CFA_advance_loc: 1 to 000000000044ce30
  DW_CFA_def_cfa_offset: 56
  DW_CFA_offset: r3 (rbx) at cfa-56
  DW_CFA_advance_loc: 4 to 000000000044ce34
  DW_CFA_def_cfa_offset: 160
  DW_CFA_advance_loc1: 225 to 000000000044cf15
  DW_CFA_remember_state
  DW_CFA_def_cfa_offset: 56
  DW_CFA_advance_loc: 4 to 000000000044cf19
  DW_CFA_def_cfa_offset: 48
  DW_CFA_advance_loc: 1 to 000000000044cf1a
  DW_CFA_def_cfa_offset: 40
  DW_CFA_advance_loc: 2 to 000000000044cf1c
  DW_CFA_def_cfa_offset: 32
  DW_CFA_advance_loc: 2 to 000000000044cf1e
  DW_CFA_def_cfa_offset: 24
  DW_CFA_advance_loc: 2 to 000000000044cf20
  DW_CFA_def_cfa_offset: 16
  DW_CFA_advance_loc: 2 to 000000000044cf22
  DW_CFA_def_cfa_offset: 8
  DW_CFA_advance_loc: 6 to 000000000044cf28
  DW_CFA_restore_state
  DW_CFA_nop
  DW_CFA_nop
  DW_CFA_nop
  DW_CFA_nop

00005630 0000000000000014 00005604 FDE cie=00000030 pc=000000000044d400..000000000044d412
  DW_CFA_nop
  DW_CFA_nop
  DW_CFA_nop
  DW_CFA_nop
  DW_CFA_nop
  DW_CFA_nop
  DW_CFA_nop

00005648 0000000000000014 0000561c FDE cie=00000030 pc=000000000044d420..000000000044d42b
  DW_CFA_nop
  DW_CFA_nop
  DW_CFA_nop
  DW_CFA_nop
  DW_CFA_nop
  DW_CFA_nop
  DW_CFA_nop

00005660 000000000000001c 00005634 FDE cie=00000030 pc=000000000049ff40..000000000049ff5b
  DW_CFA_advance_loc: 1 to 000000000049ff41
  DW_CFA_def_cfa_offset: 16
  DW_CFA_offset: r3 (rbx) at cfa-16
  DW_CFA_advance_loc: 21 to 000000000049ff56
  DW_CFA_def_cfa_offset: 8
  DW_CFA_nop
  DW_CFA_nop
  DW_CFA_nop
  DW_CFA_nop
  DW_CFA_nop
  DW_CFA_nop
  DW_CFA_nop

00005680 0000000000000014 00005654 FDE cie=00000030 pc=000000000049ff60..000000000049ff85
  DW_CFA_advance_loc: 4 to 000000000049ff64
  DW_CFA_def_cfa_offset: 16
  DW_CFA_advance_loc: 32 to 000000000049ff84
  DW_CFA_def_cfa_offset: 8
  DW_CFA_nop

00005698 0000000000000024 0000566c FDE cie=00000030 pc=000000000044d430..000000000044d4a5
  DW_CFA_advance_loc: 3 to 000000000044d433
  DW_CFA_def_cfa_offset: 16
  DW_CFA_offset: r3 (rbx) at cfa-16
  DW_CFA_advance_loc: 8 to 000000000044d43b
  DW_CFA_remember_state
  DW_CFA_def_cfa_offset: 8
  DW_CFA_advance_loc: 5 to 000000000044d440
  DW_CFA_restore_state
  DW_CFA_advance_loc: 57 to 000000000044d479
  DW_CFA_remember_state
  DW_CFA_def_cfa_offset: 8
  DW_CFA_advance_loc: 7 to 000000000044d480
  DW_CFA_restore_state
  DW_CFA_advance_loc: 11 to 000000000044d48b
  DW_CFA_remember_state
  DW_CFA_def_cfa_offset: 8
  DW_CFA_advance_loc: 1 to 000000000044d48c
  DW_CFA_restore_state

000056c0 000000000000005c 00005694 FDE cie=00000030 pc=000000000044d4b0..000000000044d693
  DW_CFA_advance_loc: 2 to 000000000044d4b2
  DW_CFA_def_cfa_offset: 16
  DW_CFA_offset: r13 (r13) at cfa-16
  DW_CFA_advance_loc: 2 to 000000000044d4b4
  DW_CFA_def_cfa_offset: 24
  DW_CFA_offset: r12 (r12) at cfa-24
  DW_CFA_advance_loc: 6 to 000000000044d4ba
  DW_CFA_def_cfa_offset: 32
  DW_CFA_offset: r6 (rbp) at cfa-32
  DW_CFA_advance_loc: 1 to 000000000044d4bb
  DW_CFA_def_cfa_offset: 40
  DW_CFA_offset: r3 (rbx) at cfa-40
  DW_CFA_advance_loc: 9 to 000000000044d4c4
  DW_CFA_def_cfa_offset: 64
  DW_CFA_advance_loc1: 231 to 000000000044d5ab
  DW_CFA_remember_state
  DW_CFA_def_cfa_offset: 40
  DW_CFA_advance_loc: 4 to 000000000044d5af
  DW_CFA_def_cfa_offset: 32
  DW_CFA_advance_loc: 1 to 000000000044d5b0
  DW_CFA_def_cfa_offset: 24
  DW_CFA_advance_loc: 2 to 000000000044d5b2
  DW_CFA_def_cfa_offset: 16
  DW_CFA_advance_loc: 2 to 000000000044d5b4
  DW_CFA_def_cfa_offset: 8
  DW_CFA_advance_loc: 4 to 000000000044d5b8
  DW_CFA_restore_state
  DW_CFA_advance_loc: 27 to 000000000044d5d3
  DW_CFA_remember_state
  DW_CFA_def_cfa_offset: 40
  DW_CFA_advance_loc: 4 to 000000000044d5d7
  DW_CFA_def_cfa_offset: 32
  DW_CFA_advance_loc: 1 to 000000000044d5d8
  DW_CFA_def_cfa_offset: 24
  DW_CFA_advance_loc: 2 to 000000000044d5da
  DW_CFA_def_cfa_offset: 16
  DW_CFA_advance_loc: 2 to 000000000044d5dc
  DW_CFA_def_cfa_offset: 8
  DW_CFA_advance_loc: 4 to 000000000044d5e0
  DW_CFA_restore_state
  DW_CFA_advance_loc1: 111 to 000000000044d64f
  DW_CFA_remember_state
  DW_CFA_def_cfa_offset: 40
  DW_CFA_advance_loc: 6 to 000000000044d655
  DW_CFA_def_cfa_offset: 32
  DW_CFA_advance_loc: 1 to 000000000044d656
  DW_CFA_def_cfa_offset: 24
  DW_CFA_advance_loc: 2 to 000000000044d658
  DW_CFA_def_cfa_offset: 16
  DW_CFA_advance_loc: 2 to 000000000044d65a
  DW_CFA_def_cfa_offset: 8
  DW_CFA_advance_loc: 1 to 000000000044d65b
  DW_CFA_restore_state

00005720 0000000000000014 000056f4 FDE cie=00000030 pc=000000000044d6a0..000000000044d6b8
  DW_CFA_nop
  DW_CFA_nop
  DW_CFA_nop
  DW_CFA_nop
  DW_CFA_nop
  DW_CFA_nop
  DW_CFA_nop

00005738 0000000000000064 0000570c FDE cie=00000030 pc=000000000044d6c0..000000000044d98e
  DW_CFA_advance_loc: 2 to 000000000044d6c2
  DW_CFA_def_cfa_offset: 16
  DW_CFA_offset: r15 (r15) at cfa-16
  DW_CFA_advance_loc: 2 to 000000000044d6c4
  DW_CFA_def_cfa_offset: 24
  DW_CFA_offset: r14 (r14) at cfa-24
  DW_CFA_advance_loc: 2 to 000000000044d6c6
  DW_CFA_def_cfa_offset: 32
  DW_CFA_offset: r13 (r13) at cfa-32
  DW_CFA_advance_loc: 2 to 000000000044d6c8
  DW_CFA_def_cfa_offset: 40
  DW_CFA_offset: r12 (r12) at cfa-40
  DW_CFA_advance_loc: 4 to 000000000044d6cc
  DW_CFA_def_cfa_offset: 48
  DW_CFA_offset: r6 (rbp) at cfa-48
  DW_CFA_advance_loc: 1 to 000000000044d6cd
  DW_CFA_def_cfa_offset: 56
  DW_CFA_offset: r3 (rbx) at cfa-56
  DW_CFA_advance_loc: 17 to 000000000044d6de
  DW_CFA_def_cfa_offset: 96
  DW_CFA_advance_loc1: 199 to 000000000044d7a5
  DW_CFA_remember_state
  DW_CFA_def_cfa_offset: 56
  DW_CFA_advance_loc: 4 to 000000000044d7a9
  DW_CFA_def_cfa_offset: 48
  DW_CFA_advance_loc: 1 to 000000000044d7aa
  DW_CFA_def_cfa_offset: 40
  DW_CFA_advance_loc: 2 to 000000000044d7ac
  DW_CFA_def_cfa_offset: 32
  DW_CFA_advance_loc: 2 to 000000000044d7ae
  DW_CFA_def_cfa_offset: 24
  DW_CFA_advance_loc: 2 to 000000000044d7b0
  DW_CFA_def_cfa_offset: 16
  DW_CFA_advance_loc: 2 to 000000000044d7b2
  DW_CFA_def_cfa_offset: 8
  DW_CFA_advance_loc: 6 to 000000000044d7b8
  DW_CFA_restore_state
  DW_CFA_advance_loc2: 413 to 000000000044d955
  DW_CFA_remember_state
  DW_CFA_def_cfa_offset: 56
  DW_CFA_advance_loc: 7 to 000000000044d95c
  DW_CFA_def_cfa_offset: 48
  DW_CFA_advance_loc: 1 to 000000000044d95d
  DW_CFA_def_cfa_offset: 40
  DW_CFA_advance_loc: 2 to 000000000044d95f
  DW_CFA_def_cfa_offset: 32
  DW_CFA_advance_loc: 2 to 000000000044d961
  DW_CFA_def_cfa_offset: 24
  DW_CFA_advance_loc: 2 to 000000000044d963
  DW_CFA_def_cfa_offset: 16
  DW_CFA_advance_loc: 2 to 000000000044d965
  DW_CFA_def_cfa_offset: 8
  DW_CFA_advance_loc: 8 to 000000000044d96d
  DW_CFA_restore_state
  DW_CFA_nop
  DW_CFA_nop
  DW_CFA_nop

000057a0 000000000000006c 00005774 FDE cie=00000030 pc=000000000044d990..000000000044e1d7
  DW_CFA_advance_loc: 20 to 000000000044d9a4
  DW_CFA_def_cfa_offset: 16
  DW_CFA_offset: r15 (r15) at cfa-16
  DW_CFA_advance_loc: 2 to 000000000044d9a6
  DW_CFA_def_cfa_offset: 24
  DW_CFA_offset: r14 (r14) at cfa-24
  DW_CFA_advance_loc: 7 to 000000000044d9ad
  DW_CFA_def_cfa_offset: 32
  DW_CFA_offset: r13 (r13) at cfa-32
  DW_CFA_advance_loc: 2 to 000000000044d9af
  DW_CFA_def_cfa_offset: 40
  DW_CFA_offset: r12 (r12) at cfa-40
  DW_CFA_advance_loc: 4 to 000000000044d9b3
  DW_CFA_def_cfa_offset: 48
  DW_CFA_offset: r6 (rbp) at cfa-48
  DW_CFA_advance_loc: 1 to 000000000044d9b4
  DW_CFA_def_cfa_offset: 56
  DW_CFA_offset: r3 (rbx) at cfa-56
  DW_CFA_advance_loc: 9 to 000000000044d9bd
  DW_CFA_def_cfa_offset: 320
  DW_CFA_advance_loc1: 77 to 000000000044da0a
  DW_CFA_remember_state
  DW_CFA_def_cfa_offset: 56
  DW_CFA_advance_loc: 1 to 000000000044da0b
  DW_CFA_restore: r3 (rbx)
  DW_CFA_def_cfa_offset: 48
  DW_CFA_advance_loc: 1 to 000000000044da0c
  DW_CFA_restore: r6 (rbp)
  DW_CFA_def_cfa_offset: 40
  DW_CFA_advance_loc: 2 to 000000000044da0e
  DW_CFA_restore: r12 (r12)
  DW_CFA_def_cfa_offset: 32
  DW_CFA_advance_loc: 2 to 000000000044da10
  DW_CFA_restore: r13 (r13)
  DW_CFA_def_cfa_offset: 24
  DW_CFA_advance_loc: 2 to 000000000044da12
  DW_CFA_restore: r14 (r14)
  DW_CFA_def_cfa_offset: 16
  DW_CFA_advance_loc: 2 to 000000000044da14
  DW_CFA_restore: r15 (r15)
  DW_CFA_def_cfa_offset: 8
  DW_CFA_advance_loc: 4 to 000000000044da18
  DW_CFA_restore_state
  DW_CFA_advance_loc2: 344 to 000000000044db70
  DW_CFA_def_cfa_offset: 8
  DW_CFA_restore: r3 (rbx)
  DW_CFA_restore: r6 (rbp)
  DW_CFA_restore: r12 (r12)
  DW_CFA_restore: r13 (r13)
  DW_CFA_restore: r14 (r14)
  DW_CFA_restore: r15 (r15)
  DW_CFA_advance_loc: 40 to 000000000044db98
  DW_CFA_def_cfa_offset: 320
  DW_CFA_offset: r3 (rbx) at cfa-56
  DW_CFA_offset: r6 (rbp) at cfa-48
  DW_CFA_offset: r12 (r12) at cfa-40
  DW_CFA_offset: r13 (r13) at cfa-32
  DW_CFA_offset: r14 (r14) at cfa-24
  DW_CFA_offset: r15 (r15) at cfa-16
  DW_CFA_nop
  DW_CFA_nop
  DW_CFA_nop

00005810 000000000000002c 000057e4 FDE cie=00000030 pc=000000000049ff90..00000000004a069e
  DW_CFA_advance_loc: 1 to 000000000049ff91
  DW_CFA_def_cfa_offset: 16
  DW_CFA_offset: r6 (rbp) at cfa-16
  DW_CFA_advance_loc: 1 to 000000000049ff92
  DW_CFA_def_cfa_offset: 24
  DW_CFA_offset: r3 (rbx) at cfa-24
  DW_CFA_advance_loc: 9 to 000000000049ff9b
  DW_CFA_def_cfa_offset: 32
  DW_CFA_advance_loc2: 1788 to 00000000004a0697
  DW_CFA_def_cfa_offset: 24
  DW_CFA_advance_loc: 1 to 00000000004a0698
  DW_CFA_def_cfa_offset: 16
  DW_CFA_advance_loc: 1 to 00000000004a0699
  DW_CFA_def_cfa_offset: 8
  DW_CFA_nop
  DW_CFA_nop
  DW_CFA_nop
  DW_CFA_nop
  DW_CFA_nop
  DW_CFA_nop
  DW_CFA_nop

00005840 0000000000000034 00005814 FDE cie=00000030 pc=000000000044e1e0..000000000044e94d
  DW_CFA_advance_loc: 1 to 000000000044e1e1
  DW_CFA_def_cfa_offset: 16
  DW_CFA_offset: r6 (rbp) at cfa-16
  DW_CFA_advance_loc: 3 to 000000000044e1e4
  DW_CFA_def_cfa_register: r6 (rbp)
  DW_CFA_advance_loc: 8 to 000000000044e1ec
  DW_CFA_offset: r15 (r15) at cfa-24
  DW_CFA_offset: r14 (r14) at cfa-32
  DW_CFA_offset: r13 (r13) at cfa-40
  DW_CFA_offset: r12 (r12) at cfa-48
  DW_CFA_advance_loc: 7 to 000000000044e1f3
  DW_CFA_offset: r3 (rbx) at cfa-56
  DW_CFA_advance_loc1: 96 to 000000000044e253
  DW_CFA_remember_state
  DW_CFA_def_cfa: r7 (rsp) ofs 8
  DW_CFA_advance_loc: 5 to 000000000044e258
  DW_CFA_restore_state
  DW_CFA_advance_loc: 53 to 000000000044e28d
  DW_CFA_remember_state
  DW_CFA_def_cfa: r7 (rsp) ofs 8
  DW_CFA_advance_loc: 3 to 000000000044e290
  DW_CFA_restore_state
  DW_CFA_nop
  DW_CFA_nop
  DW_CFA_nop
  DW_CFA_nop

00005878 0000000000000014 0000584c FDE cie=00000030 pc=000000000044e950..000000000044e99a
  DW_CFA_nop
  DW_CFA_nop
  DW_CFA_nop
  DW_CFA_nop
  DW_CFA_nop
  DW_CFA_nop
  DW_CFA_nop

00005890 000000000000004c 00005864 FDE cie=00000030 pc=000000000044e9a0..000000000044ebcf
  DW_CFA_advance_loc: 2 to 000000000044e9a2
  DW_CFA_def_cfa_offset: 16
  DW_CFA_offset: r15 (r15) at cfa-16
  DW_CFA_advance_loc: 2 to 000000000044e9a4
  DW_CFA_def_cfa_offset: 24
  DW_CFA_offset: r14 (r14) at cfa-24
  DW_CFA_advance_loc: 2 to 000000000044e9a6
  DW_CFA_def_cfa_offset: 32
  DW_CFA_offset: r13 (r13) at cfa-32
  DW_CFA_advance_loc: 2 to 000000000044e9a8
  DW_CFA_def_cfa_offset: 40
  DW_CFA_offset: r12 (r12) at cfa-40
  DW_CFA_advance_loc: 1 to 000000000044e9a9
  DW_CFA_def_cfa_offset: 48
  DW_CFA_offset: r6 (rbp) at cfa-48
  DW_CFA_advance_loc: 1 to 000000000044e9aa
  DW_CFA_def_cfa_offset: 56
  DW_CFA_offset: r3 (rbx) at cfa-56
  DW_CFA_advance_loc: 4 to 000000000044e9ae
  DW_CFA_def_cfa_offset: 64
  DW_CFA_advance_loc2: 310 to 000000000044eae4
  DW_CFA_remember_state
  DW_CFA_def_cfa_offset: 56
  DW_CFA_advance_loc: 1 to 000000000044eae5
  DW_CFA_def_cfa_offset: 48
  DW_CFA_advance_loc: 1 to 000000000044eae6
  DW_CFA_def_cfa_offset: 40
  DW_CFA_advance_loc: 2 to 000000000044eae8
  DW_CFA_def_cfa_offset: 32
  DW_CFA_advance_loc: 2 to 000000000044eaea
  DW_CFA_def_cfa_offset: 24
  DW_CFA_advance_loc: 2 to 000000000044eaec
  DW_CFA_def_cfa_offset: 16
  DW_CFA_advance_loc: 2 to 000000000044eaee
  DW_CFA_def_cfa_offset: 8
  DW_CFA_advance_loc: 2 to 000000000044eaf0
  DW_CFA_restore_state
  DW_CFA_nop
  DW_CFA_nop
  DW_CFA_nop
  DW_CFA_nop

000058e0 000000000000003c 000058b4 FDE cie=00000030 pc=000000000044ebd0..000000000044ef54
  DW_CFA_advance_loc: 1 to 000000000044ebd1
  DW_CFA_def_cfa_offset: 16
  DW_CFA_offset: r6 (rbp) at cfa-16
  DW_CFA_advance_loc: 3 to 000000000044ebd4
  DW_CFA_def_cfa_register: r6 (rbp)
  DW_CFA_advance_loc: 8 to 000000000044ebdc
  DW_CFA_offset: r15 (r15) at cfa-24
  DW_CFA_offset: r14 (r14) at cfa-32
  DW_CFA_offset: r13 (r13) at cfa-40
  DW_CFA_offset: r12 (r12) at cfa-48
  DW_CFA_advance_loc: 10 to 000000000044ebe6
  DW_CFA_offset: r3 (rbx) at cfa-56
  DW_CFA_advance_loc1: 77 to 000000000044ec33
  DW_CFA_remember_state
  DW_CFA_def_cfa: r7 (rsp) ofs 8
  DW_CFA_advance_loc: 5 to 000000000044ec38
  DW_CFA_restore_state
  DW_CFA_advance_loc1: 197 to 000000000044ecfd
  DW_CFA_remember_state
  DW_CFA_def_cfa: r7 (rsp) ofs 8
  DW_CFA_advance_loc: 3 to 000000000044ed00
  DW_CFA_restore_state
  DW_CFA_advance_loc: 24 to 000000000044ed18
  DW_CFA_remember_state
  DW_CFA_def_cfa: r7 (rsp) ofs 8
  DW_CFA_advance_loc: 8 to 000000000044ed20
  DW_CFA_restore_state
  DW_CFA_nop
  DW_CFA_nop
  DW_CFA_nop
  DW_CFA_nop

00005920 000000000000001c 000058f4 FDE cie=00000030 pc=000000000044ef60..000000000044efbe
  DW_CFA_advance_loc: 1 to 000000000044ef61
  DW_CFA_def_cfa_offset: 16
  DW_CFA_offset: r3 (rbx) at cfa-16
  DW_CFA_advance_loc: 43 to 000000000044ef8c
  DW_CFA_remember_state
  DW_CFA_def_cfa_offset: 8
  DW_CFA_advance_loc: 12 to 000000000044ef98
  DW_CFA_restore_state
  DW_CFA_nop
  DW_CFA_nop
  DW_CFA_nop
  DW_CFA_nop

00005940 000000000000003c 00005914 FDE cie=00000030 pc=000000000044efc0..000000000044f4d7
  DW_CFA_advance_loc: 1 to 000000000044efc1
  DW_CFA_def_cfa_offset: 16
  DW_CFA_offset: r6 (rbp) at cfa-16
  DW_CFA_advance_loc: 3 to 000000000044efc4
  DW_CFA_def_cfa_register: r6 (rbp)
  DW_CFA_advance_loc: 8 to 000000000044efcc
  DW_CFA_offset: r15 (r15) at cfa-24
  DW_CFA_offset: r14 (r14) at cfa-32
  DW_CFA_offset: r13 (r13) at cfa-40
  DW_CFA_offset: r12 (r12) at cfa-48
  DW_CFA_advance_loc: 11 to 000000000044efd7
  DW_CFA_offset: r3 (rbx) at cfa-56
  DW_CFA_advance_loc1: 111 to 000000000044f046
  DW_CFA_remember_state
  DW_CFA_def_cfa: r7 (rsp) ofs 8
  DW_CFA_advance_loc: 10 to 000000000044f050
  DW_CFA_restore_state
  DW_CFA_advance_loc2: 624 to 000000000044f2c0
  DW_CFA_remember_state
  DW_CFA_def_cfa: r7 (rsp) ofs 8
  DW_CFA_advance_loc: 1 to 000000000044f2c1
  DW_CFA_restore_state
  DW_CFA_advance_loc2: 493 to 000000000044f4ae
  DW_CFA_remember_state
  DW_CFA_def_cfa: r7 (rsp) ofs 8
  DW_CFA_advance_loc: 1 to 000000000044f4af
  DW_CFA_restore_state
  DW_CFA_nop

00005980 000000000000003c 00005954 FDE cie=00000030 pc=00000000004a06a0..00000000004a07b3
  DW_CFA_advance_loc: 2 to 00000000004a06a2
  DW_CFA_def_cfa_offset: 16
  DW_CFA_offset: r13 (r13) at cfa-16
  DW_CFA_advance_loc: 2 to 00000000004a06a4
  DW_CFA_def_cfa_offset: 24
  DW_CFA_offset: r12 (r12) at cfa-24
  DW_CFA_advance_loc: 1 to 00000000004a06a5
  DW_CFA_def_cfa_offset: 32
  DW_CFA_offset: r6 (rbp) at cfa-32
  DW_CFA_advance_loc: 1 to 00000000004a06a6
  DW_CFA_def_cfa_offset: 40
  DW_CFA_offset: r3 (rbx) at cfa-40
  DW_CFA_advance_loc: 4 to 00000000004a06aa
  DW_CFA_def_cfa_offset: 48
  DW_CFA_advance_loc1: 233 to 00000000004a0793
  DW_CFA_remember_state
  DW_CFA_def_cfa_offset: 40
  DW_CFA_advance_loc: 1 to 00000000004a0794
  DW_CFA_def_cfa_offset: 32
  DW_CFA_advance_loc: 1 to 00000000004a0795
  DW_CFA_def_cfa_offset: 24
  DW_CFA_advance_loc: 2 to 00000000004a0797
  DW_CFA_def_cfa_offset: 16
  DW_CFA_advance_loc: 2 to 00000000004a0799
  DW_CFA_def_cfa_offset: 8
  DW_CFA_advance_loc: 1 to 00000000004a079a
  DW_CFA_restore_state
  DW_CFA_nop
  DW_CFA_nop
  DW_CFA_nop
  DW_CFA_nop
  DW_CFA_nop

000059c0 0000000000000014 00005994 FDE cie=00000030 pc=000000000044f4e0..000000000044f552
  DW_CFA_nop
  DW_CFA_nop
  DW_CFA_nop
  DW_CFA_nop
  DW_CFA_nop
  DW_CFA_nop
  DW_CFA_nop

000059d8 0000000000000014 000059ac FDE cie=00000030 pc=000000000044f560..000000000044f577
  DW_CFA_nop
  DW_CFA_nop
  DW_CFA_nop
  DW_CFA_nop
  DW_CFA_nop
  DW_CFA_nop
  DW_CFA_nop

000059f0 0000000000000014 000059c4 FDE cie=00000030 pc=000000000044f580..000000000044f591
  DW_CFA_nop
  DW_CFA_nop
  DW_CFA_nop
  DW_CFA_nop
  DW_CFA_nop
  DW_CFA_nop
  DW_CFA_nop

00005a08 0000000000000014 000059dc FDE cie=00000030 pc=000000000044f5a0..000000000044f5b1
  DW_CFA_nop
  DW_CFA_nop
  DW_CFA_nop
  DW_CFA_nop
  DW_CFA_nop
  DW_CFA_nop
  DW_CFA_nop

00005a20 0000000000000014 000059f4 FDE cie=00000030 pc=000000000044f5c0..000000000044f5d1
  DW_CFA_nop
  DW_CFA_nop
  DW_CFA_nop
  DW_CFA_nop
  DW_CFA_nop
  DW_CFA_nop
  DW_CFA_nop

00005a38 0000000000000014 00005a0c FDE cie=00000030 pc=000000000044f5e0..000000000044f636
  DW_CFA_nop
  DW_CFA_nop
  DW_CFA_nop
  DW_CFA_nop
  DW_CFA_nop
  DW_CFA_nop
  DW_CFA_nop

00005a50 0000000000000014 00005a24 FDE cie=00000030 pc=000000000044f640..000000000044f65e
  DW_CFA_nop
  DW_CFA_nop
  DW_CFA_nop
  DW_CFA_nop
  DW_CFA_nop
  DW_CFA_nop
  DW_CFA_nop

00005a68 0000000000000014 00005a3c FDE cie=00000030 pc=000000000044f660..000000000044f6b8
  DW_CFA_nop
  DW_CFA_nop
  DW_CFA_nop
  DW_CFA_nop
  DW_CFA_nop
  DW_CFA_nop
  DW_CFA_nop

00005a80 000000000000001c 00005a54 FDE cie=00000030 pc=000000000044f6c0..000000000044f6e6
  DW_CFA_advance_loc: 5 to 000000000044f6c5
  DW_CFA_def_cfa_offset: 16
  DW_CFA_offset: r3 (rbx) at cfa-16
  DW_CFA_advance_loc: 32 to 000000000044f6e5
  DW_CFA_def_cfa_offset: 8
  DW_CFA_nop
  DW_CFA_nop
  DW_CFA_nop
  DW_CFA_nop
  DW_CFA_nop
  DW_CFA_nop
  DW_CFA_nop

00005aa0 0000000000000014 00000000 CIE
  Version:               1
  Augmentation:          "zRS"
  Code alignment factor: 1
  Data alignment factor: -8
  Return address column: 16
  Augmentation data:     1b

  DW_CFA_nop
  DW_CFA_nop
  DW_CFA_nop
  DW_CFA_nop
  DW_CFA_nop
  DW_CFA_nop

00005ab8 000000000000007c 0000001c FDE cie=00005aa0 pc=000000000044f6ff..000000000044f709
  DW_CFA_def_cfa_expression (DW_OP_breg7 (rsp): 160; DW_OP_deref)
  DW_CFA_expression: r8 (r8) (DW_OP_breg7 (rsp): 40)
  DW_CFA_expression: r9 (r9) (DW_OP_breg7 (rsp): 48)
  DW_CFA_expression: r10 (r10) (DW_OP_breg7 (rsp): 56)
  DW_CFA_expression: r11 (r11) (DW_OP_breg7 (rsp): 64)
  DW_CFA_expression: r12 (r12) (DW_OP_breg7 (rsp): 72)
  DW_CFA_expression: r13 (r13) (DW_OP_breg7 (rsp): 80)
  DW_CFA_expression: r14 (r14) (DW_OP_breg7 (rsp): 88)
  DW_CFA_expression: r15 (r15) (DW_OP_breg7 (rsp): 96)
  DW_CFA_expression: r5 (rdi) (DW_OP_breg7 (rsp): 104)
  DW_CFA_expression: r4 (rsi) (DW_OP_breg7 (rsp): 112)
  DW_CFA_expression: r6 (rbp) (DW_OP_breg7 (rsp): 120)
  DW_CFA_expression: r3 (rbx) (DW_OP_breg7 (rsp): 128)
  DW_CFA_expression: r1 (rdx) (DW_OP_breg7 (rsp): 136)
  DW_CFA_expression: r0 (rax) (DW_OP_breg7 (rsp): 144)
  DW_CFA_expression: r2 (rcx) (DW_OP_breg7 (rsp): 152)
  DW_CFA_expression: r7 (rsp) (DW_OP_breg7 (rsp): 160)
  DW_CFA_expression: r16 (rip) (DW_OP_breg7 (rsp): 168)
  DW_CFA_nop
  DW_CFA_nop
  DW_CFA_nop
  DW_CFA_nop
  DW_CFA_nop
  DW_CFA_nop

00005b38 0000000000000024 00005b0c FDE cie=00000030 pc=000000000044f710..000000000044f938
  DW_CFA_advance_loc: 7 to 000000000044f717
  DW_CFA_def_cfa_offset: 216
  DW_CFA_advance_loc2: 472 to 000000000044f8ef
  DW_CFA_remember_state
  DW_CFA_def_cfa_offset: 8
  DW_CFA_advance_loc: 1 to 000000000044f8f0
  DW_CFA_restore_state
  DW_CFA_advance_loc1: 64 to 000000000044f930
  DW_CFA_remember_state
  DW_CFA_def_cfa_offset: 8
  DW_CFA_advance_loc: 1 to 000000000044f931
  DW_CFA_restore_state
  DW_CFA_nop
  DW_CFA_nop
  DW_CFA_nop
  DW_CFA_nop

00005b60 0000000000000014 00005b34 FDE cie=00000030 pc=000000000044f940..000000000044f964
  DW_CFA_nop
  DW_CFA_nop
  DW_CFA_nop
  DW_CFA_nop
  DW_CFA_nop
  DW_CFA_nop
  DW_CFA_nop

00005b78 0000000000000014 00005b4c FDE cie=00000030 pc=000000000044f970..000000000044f9a2
  DW_CFA_nop
  DW_CFA_nop
  DW_CFA_nop
  DW_CFA_nop
  DW_CFA_nop
  DW_CFA_nop
  DW_CFA_nop

00005b90 000000000000005c 00005b64 FDE cie=00000030 pc=000000000044f9b0..0000000000451601
  DW_CFA_advance_loc: 11 to 000000000044f9bb
  DW_CFA_def_cfa_offset: 16
  DW_CFA_offset: r15 (r15) at cfa-16
  DW_CFA_advance_loc: 2 to 000000000044f9bd
  DW_CFA_def_cfa_offset: 24
  DW_CFA_offset: r14 (r14) at cfa-24
  DW_CFA_advance_loc: 5 to 000000000044f9c2
  DW_CFA_def_cfa_offset: 32
  DW_CFA_offset: r13 (r13) at cfa-32
  DW_CFA_advance_loc: 2 to 000000000044f9c4
  DW_CFA_def_cfa_offset: 40
  DW_CFA_offset: r12 (r12) at cfa-40
  DW_CFA_advance_loc: 9 to 000000000044f9cd
  DW_CFA_def_cfa_offset: 48
  DW_CFA_offset: r6 (rbp) at cfa-48
  DW_CFA_advance_loc: 1 to 000000000044f9ce
  DW_CFA_def_cfa_offset: 56
  DW_CFA_offset: r3 (rbx) at cfa-56
  DW_CFA_advance_loc: 13 to 000000000044f9db
  DW_CFA_def_cfa_offset: 1184
  DW_CFA_advance_loc2: 1523 to 000000000044ffce
  DW_CFA_def_cfa_offset: 56
  DW_CFA_advance_loc: 1 to 000000000044ffcf
  DW_CFA_restore: r3 (rbx)
  DW_CFA_def_cfa_offset: 48
  DW_CFA_advance_loc: 1 to 000000000044ffd0
  DW_CFA_restore: r6 (rbp)
  DW_CFA_def_cfa_offset: 40
  DW_CFA_advance_loc: 2 to 000000000044ffd2
  DW_CFA_restore: r12 (r12)
  DW_CFA_def_cfa_offset: 32
  DW_CFA_advance_loc: 2 to 000000000044ffd4
  DW_CFA_restore: r13 (r13)
  DW_CFA_def_cfa_offset: 24
  DW_CFA_advance_loc: 2 to 000000000044ffd6
  DW_CFA_restore: r14 (r14)
  DW_CFA_def_cfa_offset: 16
  DW_CFA_advance_loc: 2 to 000000000044ffd8
  DW_CFA_restore: r15 (r15)
  DW_CFA_def_cfa_offset: 8
  DW_CFA_advance_loc: 2 to 000000000044ffda
  DW_CFA_def_cfa_offset: 1184
  DW_CFA_offset: r3 (rbx) at cfa-56
  DW_CFA_offset: r6 (rbp) at cfa-48
  DW_CFA_offset: r12 (r12) at cfa-40
  DW_CFA_offset: r13 (r13) at cfa-32
  DW_CFA_offset: r14 (r14) at cfa-24
  DW_CFA_offset: r15 (r15) at cfa-16

00005bf0 0000000000000024 00005bc4 FDE cie=00000030 pc=00000000004a07c0..00000000004a088a
  DW_CFA_advance_loc: 4 to 00000000004a07c4
  DW_CFA_def_cfa_offset: 16
  DW_CFA_advance_loc: 51 to 00000000004a07f7
  DW_CFA_def_cfa_offset: 144
  DW_CFA_advance_loc: 12 to 00000000004a0803
  DW_CFA_def_cfa_offset: 16
  DW_CFA_advance_loc1: 90 to 00000000004a085d
  DW_CFA_def_cfa_offset: 144
  DW_CFA_advance_loc: 12 to 00000000004a0869
  DW_CFA_def_cfa_offset: 16
  DW_CFA_advance_loc: 32 to 00000000004a0889
  DW_CFA_def_cfa_offset: 8
  DW_CFA_nop
  DW_CFA_nop

00005c18 0000000000000044 00005bec FDE cie=00000030 pc=0000000000451610..0000000000451974
  DW_CFA_advance_loc: 1 to 0000000000451611
  DW_CFA_def_cfa_offset: 16
  DW_CFA_offset: r6 (rbp) at cfa-16
  DW_CFA_advance_loc: 3 to 0000000000451614
  DW_CFA_def_cfa_register: r6 (rbp)
  DW_CFA_advance_loc: 8 to 000000000045161c
  DW_CFA_offset: r15 (r15) at cfa-24
  DW_CFA_offset: r14 (r14) at cfa-32
  DW_CFA_offset: r13 (r13) at cfa-40
  DW_CFA_offset: r12 (r12) at cfa-48
  DW_CFA_advance_loc: 8 to 0000000000451624
  DW_CFA_offset: r3 (rbx) at cfa-56
  DW_CFA_advance_loc1: 83 to 0000000000451677
  DW_CFA_def_cfa_offset: 144
  DW_CFA_advance_loc: 12 to 0000000000451683
  DW_CFA_def_cfa_offset: 16
  DW_CFA_advance_loc1: 244 to 0000000000451777
  DW_CFA_def_cfa_offset: 144
  DW_CFA_advance_loc: 12 to 0000000000451783
  DW_CFA_def_cfa_offset: 16
  DW_CFA_advance_loc: 16 to 0000000000451793
  DW_CFA_remember_state
  DW_CFA_def_cfa: r7 (rsp) ofs 8
  DW_CFA_advance_loc: 5 to 0000000000451798
  DW_CFA_restore_state
  DW_CFA_advance_loc2: 304 to 00000000004518c8
  DW_CFA_def_cfa_offset: 144
  DW_CFA_advance_loc: 12 to 00000000004518d4
  DW_CFA_def_cfa_offset: 16
  DW_CFA_nop
  DW_CFA_nop
  DW_CFA_nop

00005c60 0000000000000034 00005c34 FDE cie=00000030 pc=0000000000451980..00000000004519d8
  DW_CFA_advance_loc: 5 to 0000000000451985
  DW_CFA_def_cfa_offset: 16
  DW_CFA_offset: r12 (r12) at cfa-16
  DW_CFA_advance_loc: 1 to 0000000000451986
  DW_CFA_def_cfa_offset: 24
  DW_CFA_offset: r6 (rbp) at cfa-24
  DW_CFA_advance_loc: 1 to 0000000000451987
  DW_CFA_def_cfa_offset: 32
  DW_CFA_offset: r3 (rbx) at cfa-32
  DW_CFA_advance_loc: 41 to 00000000004519b0
  DW_CFA_remember_state
  DW_CFA_def_cfa_offset: 24
  DW_CFA_advance_loc: 1 to 00000000004519b1
  DW_CFA_def_cfa_offset: 16
  DW_CFA_advance_loc: 2 to 00000000004519b3
  DW_CFA_def_cfa_offset: 8
  DW_CFA_advance_loc: 13 to 00000000004519c0
  DW_CFA_restore_state
  DW_CFA_advance_loc: 20 to 00000000004519d4
  DW_CFA_def_cfa_offset: 24
  DW_CFA_advance_loc: 1 to 00000000004519d5
  DW_CFA_def_cfa_offset: 16
  DW_CFA_advance_loc: 2 to 00000000004519d7
  DW_CFA_def_cfa_offset: 8
  DW_CFA_nop
  DW_CFA_nop
  DW_CFA_nop

00005c98 000000000000005c 00005c6c FDE cie=00000030 pc=00000000004519e0..0000000000451b1e
  DW_CFA_advance_loc: 2 to 00000000004519e2
  DW_CFA_def_cfa_offset: 16
  DW_CFA_offset: r13 (r13) at cfa-16
  DW_CFA_advance_loc: 2 to 00000000004519e4
  DW_CFA_def_cfa_offset: 24
  DW_CFA_offset: r12 (r12) at cfa-24
  DW_CFA_advance_loc: 1 to 00000000004519e5
  DW_CFA_def_cfa_offset: 32
  DW_CFA_offset: r6 (rbp) at cfa-32
  DW_CFA_advance_loc: 1 to 00000000004519e6
  DW_CFA_def_cfa_offset: 40
  DW_CFA_offset: r3 (rbx) at cfa-40
  DW_CFA_advance_loc: 4 to 00000000004519ea
  DW_CFA_def_cfa_offset: 48
  DW_CFA_advance_loc1: 102 to 0000000000451a50
  DW_CFA_def_cfa_offset: 176
  DW_CFA_advance_loc: 12 to 0000000000451a5c
  DW_CFA_def_cfa_offset: 48
  DW_CFA_advance_loc1: 101 to 0000000000451ac1
  DW_CFA_def_cfa_offset: 176
  DW_CFA_advance_loc: 12 to 0000000000451acd
  DW_CFA_def_cfa_offset: 48
  DW_CFA_advance_loc: 4 to 0000000000451ad1
  DW_CFA_remember_state
  DW_CFA_def_cfa_offset: 40
  DW_CFA_advance_loc: 3 to 0000000000451ad4
  DW_CFA_def_cfa_offset: 32
  DW_CFA_advance_loc: 1 to 0000000000451ad5
  DW_CFA_def_cfa_offset: 24
  DW_CFA_advance_loc: 2 to 0000000000451ad7
  DW_CFA_def_cfa_offset: 16
  DW_CFA_advance_loc: 2 to 0000000000451ad9
  DW_CFA_def_cfa_offset: 8
  DW_CFA_advance_loc: 7 to 0000000000451ae0
  DW_CFA_restore_state
  DW_CFA_advance_loc: 50 to 0000000000451b12
  DW_CFA_def_cfa_offset: 40
  DW_CFA_advance_loc: 6 to 0000000000451b18
  DW_CFA_def_cfa_offset: 32
  DW_CFA_advance_loc: 1 to 0000000000451b19
  DW_CFA_def_cfa_offset: 24
  DW_CFA_advance_loc: 2 to 0000000000451b1b
  DW_CFA_def_cfa_offset: 16
  DW_CFA_advance_loc: 2 to 0000000000451b1d
  DW_CFA_def_cfa_offset: 8
  DW_CFA_nop
  DW_CFA_nop
  DW_CFA_nop
  DW_CFA_nop
  DW_CFA_nop
  DW_CFA_nop
  DW_CFA_nop

00005cf8 0000000000000024 00005ccc FDE cie=00000030 pc=0000000000451b20..0000000000451bd0
  DW_CFA_advance_loc: 4 to 0000000000451b24
  DW_CFA_def_cfa_offset: 16
  DW_CFA_advance_loc: 51 to 0000000000451b57
  DW_CFA_def_cfa_offset: 144
  DW_CFA_advance_loc: 12 to 0000000000451b63
  DW_CFA_def_cfa_offset: 16
  DW_CFA_advance_loc1: 90 to 0000000000451bbd
  DW_CFA_def_cfa_offset: 144
  DW_CFA_advance_loc: 12 to 0000000000451bc9
  DW_CFA_def_cfa_offset: 16
  DW_CFA_advance_loc: 6 to 0000000000451bcf
  DW_CFA_def_cfa_offset: 8
  DW_CFA_nop
  DW_CFA_nop

00005d20 0000000000000014 00005cf4 FDE cie=00000030 pc=0000000000451bd0..0000000000451be3
  DW_CFA_nop
  DW_CFA_nop
  DW_CFA_nop
  DW_CFA_nop
  DW_CFA_nop
  DW_CFA_nop
  DW_CFA_nop

00005d38 0000000000000014 00005d0c FDE cie=00000030 pc=0000000000451bf0..0000000000451c00
  DW_CFA_nop
  DW_CFA_nop
  DW_CFA_nop
  DW_CFA_nop
  DW_CFA_nop
  DW_CFA_nop
  DW_CFA_nop

00005d50 0000000000000014 00005d24 FDE cie=00000030 pc=0000000000451c00..0000000000451c12
  DW_CFA_nop
  DW_CFA_nop
  DW_CFA_nop
  DW_CFA_nop
  DW_CFA_nop
  DW_CFA_nop
  DW_CFA_nop

00005d68 0000000000000064 00005d3c FDE cie=00000030 pc=0000000000451c20..00000000004520c4
  DW_CFA_advance_loc: 2 to 0000000000451c22
  DW_CFA_def_cfa_offset: 16
  DW_CFA_offset: r15 (r15) at cfa-16
  DW_CFA_advance_loc: 2 to 0000000000451c24
  DW_CFA_def_cfa_offset: 24
  DW_CFA_offset: r14 (r14) at cfa-24
  DW_CFA_advance_loc: 5 to 0000000000451c29
  DW_CFA_def_cfa_offset: 32
  DW_CFA_offset: r13 (r13) at cfa-32
  DW_CFA_advance_loc: 2 to 0000000000451c2b
  DW_CFA_def_cfa_offset: 40
  DW_CFA_offset: r12 (r12) at cfa-40
  DW_CFA_advance_loc: 4 to 0000000000451c2f
  DW_CFA_def_cfa_offset: 48
  DW_CFA_offset: r6 (rbp) at cfa-48
  DW_CFA_advance_loc: 1 to 0000000000451c30
  DW_CFA_def_cfa_offset: 56
  DW_CFA_offset: r3 (rbx) at cfa-56
  DW_CFA_advance_loc: 4 to 0000000000451c34
  DW_CFA_def_cfa_offset: 96
  DW_CFA_advance_loc2: 256 to 0000000000451d34
  DW_CFA_remember_state
  DW_CFA_def_cfa_offset: 56
  DW_CFA_advance_loc: 1 to 0000000000451d35
  DW_CFA_def_cfa_offset: 48
  DW_CFA_advance_loc: 1 to 0000000000451d36
  DW_CFA_def_cfa_offset: 40
  DW_CFA_advance_loc: 2 to 0000000000451d38
  DW_CFA_def_cfa_offset: 32
  DW_CFA_advance_loc: 2 to 0000000000451d3a
  DW_CFA_def_cfa_offset: 24
  DW_CFA_advance_loc: 2 to 0000000000451d3c
  DW_CFA_def_cfa_offset: 16
  DW_CFA_advance_loc: 2 to 0000000000451d3e
  DW_CFA_def_cfa_offset: 8
  DW_CFA_advance_loc: 2 to 0000000000451d40
  DW_CFA_restore_state
  DW_CFA_advance_loc1: 78 to 0000000000451d8e
  DW_CFA_remember_state
  DW_CFA_def_cfa_offset: 56
  DW_CFA_advance_loc: 3 to 0000000000451d91
  DW_CFA_def_cfa_offset: 48
  DW_CFA_advance_loc: 1 to 0000000000451d92
  DW_CFA_def_cfa_offset: 40
  DW_CFA_advance_loc: 2 to 0000000000451d94
  DW_CFA_def_cfa_offset: 32
  DW_CFA_advance_loc: 2 to 0000000000451d96
  DW_CFA_def_cfa_offset: 24
  DW_CFA_advance_loc: 2 to 0000000000451d98
  DW_CFA_def_cfa_offset: 16
  DW_CFA_advance_loc: 2 to 0000000000451d9a
  DW_CFA_def_cfa_offset: 8
  DW_CFA_advance_loc: 1 to 0000000000451d9b
  DW_CFA_restore_state
  DW_CFA_nop
  DW_CFA_nop
  DW_CFA_nop

00005dd0 0000000000000014 00005da4 FDE cie=00000030 pc=00000000004520d0..00000000004520da
  DW_CFA_nop
  DW_CFA_nop
  DW_CFA_nop
  DW_CFA_nop
  DW_CFA_nop
  DW_CFA_nop
  DW_CFA_nop

00005de8 0000000000000014 00005dbc FDE cie=00000030 pc=00000000004520e0..00000000004521ab
  DW_CFA_nop
  DW_CFA_nop
  DW_CFA_nop
  DW_CFA_nop
  DW_CFA_nop
  DW_CFA_nop
  DW_CFA_nop

00005e00 0000000000000024 00005dd4 FDE cie=00000030 pc=00000000004521b0..00000000004522cc
  DW_CFA_advance_loc: 1 to 00000000004521b1
  DW_CFA_def_cfa_offset: 16
  DW_CFA_offset: r3 (rbx) at cfa-16
  DW_CFA_advance_loc: 18 to 00000000004521c3
  DW_CFA_def_cfa_offset: 48
  DW_CFA_advance_loc1: 115 to 0000000000452236
  DW_CFA_remember_state
  DW_CFA_def_cfa_offset: 16
  DW_CFA_advance_loc: 4 to 000000000045223a
  DW_CFA_def_cfa_offset: 8
  DW_CFA_advance_loc: 6 to 0000000000452240
  DW_CFA_restore_state
  DW_CFA_nop
  DW_CFA_nop
  DW_CFA_nop
  DW_CFA_nop
  DW_CFA_nop

00005e28 0000000000000014 00005dfc FDE cie=00000030 pc=0000000000400507..0000000000400551
  DW_CFA_nop
  DW_CFA_nop
  DW_CFA_nop
  DW_CFA_nop
  DW_CFA_nop
  DW_CFA_nop
  DW_CFA_nop

00005e40 000000000000004c 00005e14 FDE cie=00000030 pc=00000000004522d0..000000000045238a
  DW_CFA_advance_loc: 2 to 00000000004522d2
  DW_CFA_def_cfa_offset: 16
  DW_CFA_offset: r13 (r13) at cfa-16
  DW_CFA_advance_loc: 2 to 00000000004522d4
  DW_CFA_def_cfa_offset: 24
  DW_CFA_offset: r12 (r12) at cfa-24
  DW_CFA_advance_loc: 1 to 00000000004522d5
  DW_CFA_def_cfa_offset: 32
  DW_CFA_offset: r6 (rbp) at cfa-32
  DW_CFA_advance_loc: 1 to 00000000004522d6
  DW_CFA_def_cfa_offset: 40
  DW_CFA_offset: r3 (rbx) at cfa-40
  DW_CFA_advance_loc: 9 to 00000000004522df
  DW_CFA_def_cfa_offset: 48
  DW_CFA_advance_loc: 43 to 000000000045230a
  DW_CFA_remember_state
  DW_CFA_def_cfa_offset: 40
  DW_CFA_advance_loc: 1 to 000000000045230b
  DW_CFA_def_cfa_offset: 32
  DW_CFA_advance_loc: 1 to 000000000045230c
  DW_CFA_def_cfa_offset: 24
  DW_CFA_advance_loc: 2 to 000000000045230e
  DW_CFA_def_cfa_offset: 16
  DW_CFA_advance_loc: 2 to 0000000000452310
  DW_CFA_def_cfa_offset: 8
  DW_CFA_advance_loc: 8 to 0000000000452318
  DW_CFA_restore_state
  DW_CFA_advance_loc1: 76 to 0000000000452364
  DW_CFA_remember_state
  DW_CFA_def_cfa_offset: 40
  DW_CFA_advance_loc: 8 to 000000000045236c
  DW_CFA_def_cfa_offset: 32
  DW_CFA_advance_loc: 1 to 000000000045236d
  DW_CFA_def_cfa_offset: 24
  DW_CFA_advance_loc: 2 to 000000000045236f
  DW_CFA_def_cfa_offset: 16
  DW_CFA_advance_loc: 2 to 0000000000452371
  DW_CFA_def_cfa_offset: 8
  DW_CFA_advance_loc: 15 to 0000000000452380
  DW_CFA_restore_state
  DW_CFA_nop
  DW_CFA_nop
  DW_CFA_nop

00005e90 0000000000000034 00005e64 FDE cie=00000030 pc=0000000000452390..00000000004524d0
  DW_CFA_advance_loc: 1 to 0000000000452391
  DW_CFA_def_cfa_offset: 16
  DW_CFA_offset: r6 (rbp) at cfa-16
  DW_CFA_advance_loc: 3 to 0000000000452394
  DW_CFA_def_cfa_register: r6 (rbp)
  DW_CFA_advance_loc: 8 to 000000000045239c
  DW_CFA_offset: r15 (r15) at cfa-24
  DW_CFA_offset: r14 (r14) at cfa-32
  DW_CFA_offset: r13 (r13) at cfa-40
  DW_CFA_offset: r12 (r12) at cfa-48
  DW_CFA_advance_loc: 17 to 00000000004523ad
  DW_CFA_offset: r3 (rbx) at cfa-56
  DW_CFA_advance_loc: 41 to 00000000004523d6
  DW_CFA_remember_state
  DW_CFA_def_cfa: r7 (rsp) ofs 8
  DW_CFA_advance_loc: 10 to 00000000004523e0
  DW_CFA_restore_state
  DW_CFA_advance_loc1: 203 to 00000000004524ab
  DW_CFA_remember_state
  DW_CFA_def_cfa: r7 (rsp) ofs 8
  DW_CFA_advance_loc: 5 to 00000000004524b0
  DW_CFA_restore_state
  DW_CFA_nop
  DW_CFA_nop
  DW_CFA_nop
  DW_CFA_nop

00005ec8 000000000000002c 00005e9c FDE cie=00000030 pc=00000000004524d0..0000000000452744
  DW_CFA_advance_loc: 1 to 00000000004524d1
  DW_CFA_def_cfa_offset: 16
  DW_CFA_offset: r6 (rbp) at cfa-16
  DW_CFA_advance_loc: 3 to 00000000004524d4
  DW_CFA_def_cfa_register: r6 (rbp)
  DW_CFA_advance_loc: 8 to 00000000004524dc
  DW_CFA_offset: r15 (r15) at cfa-24
  DW_CFA_offset: r14 (r14) at cfa-32
  DW_CFA_offset: r13 (r13) at cfa-40
  DW_CFA_offset: r12 (r12) at cfa-48
  DW_CFA_advance_loc: 12 to 00000000004524e8
  DW_CFA_offset: r3 (rbx) at cfa-56
  DW_CFA_advance_loc2: 440 to 00000000004526a0
  DW_CFA_remember_state
  DW_CFA_def_cfa: r7 (rsp) ofs 8
  DW_CFA_advance_loc: 1 to 00000000004526a1
  DW_CFA_restore_state
  DW_CFA_nop
  DW_CFA_nop

00005ef8 000000000000002c 00005ecc FDE cie=00000030 pc=0000000000452750..0000000000454af5
  DW_CFA_advance_loc: 1 to 0000000000452751
  DW_CFA_def_cfa_offset: 16
  DW_CFA_offset: r6 (rbp) at cfa-16
  DW_CFA_advance_loc: 3 to 0000000000452754
  DW_CFA_def_cfa_register: r6 (rbp)
  DW_CFA_advance_loc: 27 to 000000000045276f
  DW_CFA_offset: r15 (r15) at cfa-24
  DW_CFA_offset: r14 (r14) at cfa-32
  DW_CFA_offset: r13 (r13) at cfa-40
  DW_CFA_offset: r12 (r12) at cfa-48
  DW_CFA_offset: r3 (rbx) at cfa-56
  DW_CFA_advance_loc2: 2427 to 00000000004530ea
  DW_CFA_remember_state
  DW_CFA_def_cfa: r7 (rsp) ofs 8
  DW_CFA_advance_loc: 6 to 00000000004530f0
  DW_CFA_restore_state
  DW_CFA_nop
  DW_CFA_nop
  DW_CFA_nop

00005f28 0000000000000044 00005efc FDE cie=00000030 pc=0000000000454b00..0000000000457656
  DW_CFA_advance_loc: 1 to 0000000000454b01
  DW_CFA_def_cfa_offset: 16
  DW_CFA_offset: r6 (rbp) at cfa-16
  DW_CFA_advance_loc: 3 to 0000000000454b04
  DW_CFA_def_cfa_register: r6 (rbp)
  DW_CFA_advance_loc: 16 to 0000000000454b14
  DW_CFA_offset: r15 (r15) at cfa-24
  DW_CFA_offset: r14 (r14) at cfa-32
  DW_CFA_offset: r13 (r13) at cfa-40
  DW_CFA_offset: r12 (r12) at cfa-48
  DW_CFA_offset: r3 (rbx) at cfa-56
  DW_CFA_advance_loc2: 262 to 0000000000454c1a
  DW_CFA_remember_state
  DW_CFA_def_cfa: r7 (rsp) ofs 8
  DW_CFA_advance_loc: 6 to 0000000000454c20
  DW_CFA_restore_state
  DW_CFA_advance_loc1: 130 to 0000000000454ca2
  DW_CFA_def_cfa_offset: 144
  DW_CFA_advance_loc: 12 to 0000000000454cae
  DW_CFA_def_cfa_offset: 16
  DW_CFA_advance_loc: 45 to 0000000000454cdb
  DW_CFA_remember_state
  DW_CFA_def_cfa: r7 (rsp) ofs 8
  DW_CFA_advance_loc: 5 to 0000000000454ce0
  DW_CFA_restore_state
  DW_CFA_advance_loc: 38 to 0000000000454d06
  DW_CFA_def_cfa_offset: 144
  DW_CFA_advance_loc: 12 to 0000000000454d12
  DW_CFA_def_cfa_offset: 16
  DW_CFA_nop
  DW_CFA_nop
  DW_CFA_nop
  DW_CFA_nop
  DW_CFA_nop

00005f70 000000000000004c 00005f44 FDE cie=00000030 pc=0000000000457660..000000000045783a
  DW_CFA_advance_loc: 2 to 0000000000457662
  DW_CFA_def_cfa_offset: 16
  DW_CFA_offset: r13 (r13) at cfa-16
  DW_CFA_advance_loc: 2 to 0000000000457664
  DW_CFA_def_cfa_offset: 24
  DW_CFA_offset: r12 (r12) at cfa-24
  DW_CFA_advance_loc: 1 to 0000000000457665
  DW_CFA_def_cfa_offset: 32
  DW_CFA_offset: r6 (rbp) at cfa-32
  DW_CFA_advance_loc: 1 to 0000000000457666
  DW_CFA_def_cfa_offset: 40
  DW_CFA_offset: r3 (rbx) at cfa-40
  DW_CFA_advance_loc: 7 to 000000000045766d
  DW_CFA_def_cfa_offset: 8528
  DW_CFA_advance_loc1: 231 to 0000000000457754
  DW_CFA_def_cfa_offset: 8656
  DW_CFA_advance_loc: 12 to 0000000000457760
  DW_CFA_def_cfa_offset: 8528
  DW_CFA_advance_loc1: 92 to 00000000004577bc
  DW_CFA_remember_state
  DW_CFA_def_cfa_offset: 40
  DW_CFA_advance_loc: 1 to 00000000004577bd
  DW_CFA_def_cfa_offset: 32
  DW_CFA_advance_loc: 1 to 00000000004577be
  DW_CFA_def_cfa_offset: 24
  DW_CFA_advance_loc: 2 to 00000000004577c0
  DW_CFA_def_cfa_offset: 16
  DW_CFA_advance_loc: 2 to 00000000004577c2
  DW_CFA_def_cfa_offset: 8
  DW_CFA_advance_loc: 6 to 00000000004577c8
  DW_CFA_restore_state
  DW_CFA_advance_loc1: 75 to 0000000000457813
  DW_CFA_def_cfa_offset: 8656
  DW_CFA_advance_loc: 12 to 000000000045781f
  DW_CFA_def_cfa_offset: 8528
  DW_CFA_nop
  DW_CFA_nop

00005fc0 000000000000004c 00005f94 FDE cie=00000030 pc=0000000000457840..0000000000457988
  DW_CFA_advance_loc: 1 to 0000000000457841
  DW_CFA_def_cfa_offset: 16
  DW_CFA_offset: r6 (rbp) at cfa-16
  DW_CFA_advance_loc: 1 to 0000000000457842
  DW_CFA_def_cfa_offset: 24
  DW_CFA_offset: r3 (rbx) at cfa-24
  DW_CFA_advance_loc: 4 to 0000000000457846
  DW_CFA_def_cfa_offset: 32
  DW_CFA_advance_loc1: 92 to 00000000004578a2
  DW_CFA_remember_state
  DW_CFA_def_cfa_offset: 24
  DW_CFA_advance_loc: 3 to 00000000004578a5
  DW_CFA_def_cfa_offset: 16
  DW_CFA_advance_loc: 1 to 00000000004578a6
  DW_CFA_def_cfa_offset: 8
  DW_CFA_advance_loc: 10 to 00000000004578b0
  DW_CFA_restore_state
  DW_CFA_advance_loc1: 118 to 0000000000457926
  DW_CFA_remember_state
  DW_CFA_def_cfa_offset: 24
  DW_CFA_advance_loc: 3 to 0000000000457929
  DW_CFA_def_cfa_offset: 16
  DW_CFA_advance_loc: 1 to 000000000045792a
  DW_CFA_def_cfa_offset: 8
  DW_CFA_advance_loc: 6 to 0000000000457930
  DW_CFA_restore_state
  DW_CFA_advance_loc: 40 to 0000000000457958
  DW_CFA_remember_state
  DW_CFA_def_cfa_offset: 24
  DW_CFA_advance_loc: 6 to 000000000045795e
  DW_CFA_def_cfa_offset: 16
  DW_CFA_advance_loc: 1 to 000000000045795f
  DW_CFA_def_cfa_offset: 8
  DW_CFA_advance_loc: 1 to 0000000000457960
  DW_CFA_restore_state
  DW_CFA_advance_loc: 26 to 000000000045797a
  DW_CFA_remember_state
  DW_CFA_def_cfa_offset: 24
  DW_CFA_advance_loc: 3 to 000000000045797d
  DW_CFA_def_cfa_offset: 16
  DW_CFA_advance_loc: 1 to 000000000045797e
  DW_CFA_def_cfa_offset: 8
  DW_CFA_advance_loc: 2 to 0000000000457980
  DW_CFA_restore_state

00006010 000000000000002c 00005fe4 FDE cie=00000030 pc=0000000000457990..0000000000457c0e
  DW_CFA_advance_loc: 1 to 0000000000457991
  DW_CFA_def_cfa_offset: 16
  DW_CFA_offset: r6 (rbp) at cfa-16
  DW_CFA_advance_loc: 3 to 0000000000457994
  DW_CFA_def_cfa_register: r6 (rbp)
  DW_CFA_advance_loc: 8 to 000000000045799c
  DW_CFA_offset: r15 (r15) at cfa-24
  DW_CFA_offset: r14 (r14) at cfa-32
  DW_CFA_offset: r13 (r13) at cfa-40
  DW_CFA_offset: r12 (r12) at cfa-48
  DW_CFA_advance_loc: 12 to 00000000004579a8
  DW_CFA_offset: r3 (rbx) at cfa-56
  DW_CFA_advance_loc2: 416 to 0000000000457b48
  DW_CFA_remember_state
  DW_CFA_def_cfa: r7 (rsp) ofs 8
  DW_CFA_advance_loc: 8 to 0000000000457b50
  DW_CFA_restore_state
  DW_CFA_nop
  DW_CFA_nop

00006040 000000000000003c 00006014 FDE cie=00000030 pc=0000000000457c10..000000000045a3ab
  DW_CFA_advance_loc: 1 to 0000000000457c11
  DW_CFA_def_cfa_offset: 16
  DW_CFA_offset: r6 (rbp) at cfa-16
  DW_CFA_advance_loc: 3 to 0000000000457c14
  DW_CFA_def_cfa_register: r6 (rbp)
  DW_CFA_advance_loc: 8 to 0000000000457c1c
  DW_CFA_offset: r15 (r15) at cfa-24
  DW_CFA_offset: r14 (r14) at cfa-32
  DW_CFA_offset: r13 (r13) at cfa-40
  DW_CFA_offset: r12 (r12) at cfa-48
  DW_CFA_advance_loc: 4 to 0000000000457c20
  DW_CFA_offset: r3 (rbx) at cfa-56
  DW_CFA_advance_loc2: 2046 to 000000000045841e
  DW_CFA_remember_state
  DW_CFA_def_cfa: r7 (rsp) ofs 8
  DW_CFA_advance_loc: 2 to 0000000000458420
  DW_CFA_restore_state
  DW_CFA_advance_loc2: 393 to 00000000004585a9
  DW_CFA_remember_state
  DW_CFA_def_cfa: r7 (rsp) ofs 8
  DW_CFA_advance_loc: 7 to 00000000004585b0
  DW_CFA_restore_state
  DW_CFA_advance_loc: 36 to 00000000004585d4
  DW_CFA_remember_state
  DW_CFA_def_cfa: r7 (rsp) ofs 8
  DW_CFA_advance_loc: 4 to 00000000004585d8
  DW_CFA_restore_state
  DW_CFA_nop
  DW_CFA_nop

00006080 0000000000000014 00006054 FDE cie=00000030 pc=000000000045a3b0..000000000045a3c9
  DW_CFA_nop
  DW_CFA_nop
  DW_CFA_nop
  DW_CFA_nop
  DW_CFA_nop
  DW_CFA_nop
  DW_CFA_nop

00006098 0000000000000014 0000606c FDE cie=00000030 pc=000000000045a3d0..000000000045a41b
  DW_CFA_nop
  DW_CFA_nop
  DW_CFA_nop
  DW_CFA_nop
  DW_CFA_nop
  DW_CFA_nop
  DW_CFA_nop

000060b0 0000000000000044 00006084 FDE cie=00000030 pc=000000000045a420..000000000045a52c
  DW_CFA_advance_loc: 14 to 000000000045a42e
  DW_CFA_def_cfa_offset: 16
  DW_CFA_offset: r12 (r12) at cfa-16
  DW_CFA_advance_loc: 3 to 000000000045a431
  DW_CFA_def_cfa_offset: 24
  DW_CFA_offset: r6 (rbp) at cfa-24
  DW_CFA_advance_loc: 4 to 000000000045a435
  DW_CFA_def_cfa_offset: 32
  DW_CFA_offset: r3 (rbx) at cfa-32
  DW_CFA_advance_loc: 54 to 000000000045a46b
  DW_CFA_def_cfa_offset: 160
  DW_CFA_advance_loc: 12 to 000000000045a477
  DW_CFA_def_cfa_offset: 32
  DW_CFA_advance_loc1: 75 to 000000000045a4c2
  DW_CFA_def_cfa_offset: 160
  DW_CFA_advance_loc: 12 to 000000000045a4ce
  DW_CFA_def_cfa_offset: 32
  DW_CFA_advance_loc: 1 to 000000000045a4cf
  DW_CFA_remember_state
  DW_CFA_restore: r3 (rbx)
  DW_CFA_def_cfa_offset: 24
  DW_CFA_advance_loc: 4 to 000000000045a4d3
  DW_CFA_restore: r6 (rbp)
  DW_CFA_def_cfa_offset: 16
  DW_CFA_advance_loc: 2 to 000000000045a4d5
  DW_CFA_restore: r12 (r12)
  DW_CFA_def_cfa_offset: 8
  DW_CFA_advance_loc: 11 to 000000000045a4e0
  DW_CFA_restore_state
  DW_CFA_advance_loc: 56 to 000000000045a518
  DW_CFA_def_cfa_offset: 8
  DW_CFA_restore: r3 (rbx)
  DW_CFA_restore: r6 (rbp)
  DW_CFA_restore: r12 (r12)
  DW_CFA_nop
  DW_CFA_nop
  DW_CFA_nop
  DW_CFA_nop

000060f8 0000000000000044 000060cc FDE cie=00000030 pc=000000000045a530..000000000045a63c
  DW_CFA_advance_loc: 14 to 000000000045a53e
  DW_CFA_def_cfa_offset: 16
  DW_CFA_offset: r12 (r12) at cfa-16
  DW_CFA_advance_loc: 3 to 000000000045a541
  DW_CFA_def_cfa_offset: 24
  DW_CFA_offset: r6 (rbp) at cfa-24
  DW_CFA_advance_loc: 4 to 000000000045a545
  DW_CFA_def_cfa_offset: 32
  DW_CFA_offset: r3 (rbx) at cfa-32
  DW_CFA_advance_loc: 54 to 000000000045a57b
  DW_CFA_def_cfa_offset: 160
  DW_CFA_advance_loc: 12 to 000000000045a587
  DW_CFA_def_cfa_offset: 32
  DW_CFA_advance_loc1: 75 to 000000000045a5d2
  DW_CFA_def_cfa_offset: 160
  DW_CFA_advance_loc: 12 to 000000000045a5de
  DW_CFA_def_cfa_offset: 32
  DW_CFA_advance_loc: 1 to 000000000045a5df
  DW_CFA_remember_state
  DW_CFA_restore: r3 (rbx)
  DW_CFA_def_cfa_offset: 24
  DW_CFA_advance_loc: 4 to 000000000045a5e3
  DW_CFA_restore: r6 (rbp)
  DW_CFA_def_cfa_offset: 16
  DW_CFA_advance_loc: 2 to 000000000045a5e5
  DW_CFA_restore: r12 (r12)
  DW_CFA_def_cfa_offset: 8
  DW_CFA_advance_loc: 11 to 000000000045a5f0
  DW_CFA_restore_state
  DW_CFA_advance_loc: 56 to 000000000045a628
  DW_CFA_def_cfa_offset: 8
  DW_CFA_restore: r3 (rbx)
  DW_CFA_restore: r6 (rbp)
  DW_CFA_restore: r12 (r12)
  DW_CFA_nop
  DW_CFA_nop
  DW_CFA_nop
  DW_CFA_nop

00006140 000000000000004c 00006114 FDE cie=00000030 pc=000000000045a640..000000000045c180
  DW_CFA_advance_loc: 2 to 000000000045a642
  DW_CFA_def_cfa_offset: 16
  DW_CFA_offset: r15 (r15) at cfa-16
  DW_CFA_advance_loc: 2 to 000000000045a644
  DW_CFA_def_cfa_offset: 24
  DW_CFA_offset: r14 (r14) at cfa-24
  DW_CFA_advance_loc: 2 to 000000000045a646
  DW_CFA_def_cfa_offset: 32
  DW_CFA_offset: r13 (r13) at cfa-32
  DW_CFA_advance_loc: 2 to 000000000045a648
  DW_CFA_def_cfa_offset: 40
  DW_CFA_offset: r12 (r12) at cfa-40
  DW_CFA_advance_loc: 4 to 000000000045a64c
  DW_CFA_def_cfa_offset: 48
  DW_CFA_offset: r6 (rbp) at cfa-48
  DW_CFA_advance_loc: 1 to 000000000045a64d
  DW_CFA_def_cfa_offset: 56
  DW_CFA_offset: r3 (rbx) at cfa-56
  DW_CFA_advance_loc: 10 to 000000000045a657
  DW_CFA_def_cfa_offset: 384
  DW_CFA_advance_loc2: 819 to 000000000045a98a
  DW_CFA_remember_state
  DW_CFA_def_cfa_offset: 56
  DW_CFA_advance_loc: 1 to 000000000045a98b
  DW_CFA_def_cfa_offset: 48
  DW_CFA_advance_loc: 1 to 000000000045a98c
  DW_CFA_def_cfa_offset: 40
  DW_CFA_advance_loc: 2 to 000000000045a98e
  DW_CFA_def_cfa_offset: 32
  DW_CFA_advance_loc: 2 to 000000000045a990
  DW_CFA_def_cfa_offset: 24
  DW_CFA_advance_loc: 2 to 000000000045a992
  DW_CFA_def_cfa_offset: 16
  DW_CFA_advance_loc: 2 to 000000000045a994
  DW_CFA_def_cfa_offset: 8
  DW_CFA_advance_loc: 4 to 000000000045a998
  DW_CFA_restore_state
  DW_CFA_nop
  DW_CFA_nop
  DW_CFA_nop

00006190 000000000000002c 00006164 FDE cie=00000030 pc=00000000004a0890..00000000004a08ec
  DW_CFA_advance_loc: 13 to 00000000004a089d
  DW_CFA_def_cfa_offset: 16
  DW_CFA_offset: r6 (rbp) at cfa-16
  DW_CFA_advance_loc: 1 to 00000000004a089e
  DW_CFA_def_cfa_offset: 24
  DW_CFA_offset: r3 (rbx) at cfa-24
  DW_CFA_advance_loc: 6 to 00000000004a08a4
  DW_CFA_def_cfa_offset: 32
  DW_CFA_advance_loc: 60 to 00000000004a08e0
  DW_CFA_def_cfa_offset: 24
  DW_CFA_advance_loc: 4 to 00000000004a08e4
  DW_CFA_restore: r3 (rbx)
  DW_CFA_def_cfa_offset: 16
  DW_CFA_advance_loc: 1 to 00000000004a08e5
  DW_CFA_restore: r6 (rbp)
  DW_CFA_def_cfa_offset: 8
  DW_CFA_nop
  DW_CFA_nop
  DW_CFA_nop
  DW_CFA_nop
  DW_CFA_nop
  DW_CFA_nop
  DW_CFA_nop

000061c0 000000000000005c 00006194 FDE cie=00000030 pc=000000000045c180..000000000045c32f
  DW_CFA_advance_loc: 2 to 000000000045c182
  DW_CFA_def_cfa_offset: 16
  DW_CFA_offset: r13 (r13) at cfa-16
  DW_CFA_advance_loc: 2 to 000000000045c184
  DW_CFA_def_cfa_offset: 24
  DW_CFA_offset: r12 (r12) at cfa-24
  DW_CFA_advance_loc: 1 to 000000000045c185
  DW_CFA_def_cfa_offset: 32
  DW_CFA_offset: r6 (rbp) at cfa-32
  DW_CFA_advance_loc: 1 to 000000000045c186
  DW_CFA_def_cfa_offset: 40
  DW_CFA_offset: r3 (rbx) at cfa-40
  DW_CFA_advance_loc: 7 to 000000000045c18d
  DW_CFA_def_cfa_offset: 48
  DW_CFA_advance_loc1: 110 to 000000000045c1fb
  DW_CFA_def_cfa_offset: 176
  DW_CFA_advance_loc: 12 to 000000000045c207
  DW_CFA_def_cfa_offset: 48
  DW_CFA_advance_loc1: 163 to 000000000045c2aa
  DW_CFA_def_cfa_offset: 176
  DW_CFA_advance_loc: 12 to 000000000045c2b6
  DW_CFA_def_cfa_offset: 48
  DW_CFA_advance_loc: 4 to 000000000045c2ba
  DW_CFA_remember_state
  DW_CFA_def_cfa_offset: 40
  DW_CFA_advance_loc: 3 to 000000000045c2bd
  DW_CFA_def_cfa_offset: 32
  DW_CFA_advance_loc: 1 to 000000000045c2be
  DW_CFA_def_cfa_offset: 24
  DW_CFA_advance_loc: 2 to 000000000045c2c0
  DW_CFA_def_cfa_offset: 16
  DW_CFA_advance_loc: 2 to 000000000045c2c2
  DW_CFA_def_cfa_offset: 8
  DW_CFA_advance_loc: 6 to 000000000045c2c8
  DW_CFA_restore_state
  DW_CFA_advance_loc: 23 to 000000000045c2df
  DW_CFA_remember_state
  DW_CFA_def_cfa_offset: 40
  DW_CFA_advance_loc: 1 to 000000000045c2e0
  DW_CFA_def_cfa_offset: 32
  DW_CFA_advance_loc: 1 to 000000000045c2e1
  DW_CFA_def_cfa_offset: 24
  DW_CFA_advance_loc: 2 to 000000000045c2e3
  DW_CFA_def_cfa_offset: 16
  DW_CFA_advance_loc: 2 to 000000000045c2e5
  DW_CFA_def_cfa_offset: 8
  DW_CFA_advance_loc: 1 to 000000000045c2e6
  DW_CFA_restore_state
  DW_CFA_nop
  DW_CFA_nop
  DW_CFA_nop
  DW_CFA_nop

00006220 000000000000004c 000061f4 FDE cie=00000030 pc=000000000045c330..000000000045c407
  DW_CFA_advance_loc: 2 to 000000000045c332
  DW_CFA_def_cfa_offset: 16
  DW_CFA_offset: r14 (r14) at cfa-16
  DW_CFA_advance_loc: 2 to 000000000045c334
  DW_CFA_def_cfa_offset: 24
  DW_CFA_offset: r13 (r13) at cfa-24
  DW_CFA_advance_loc: 2 to 000000000045c336
  DW_CFA_def_cfa_offset: 32
  DW_CFA_offset: r12 (r12) at cfa-32
  DW_CFA_advance_loc: 1 to 000000000045c337
  DW_CFA_def_cfa_offset: 40
  DW_CFA_offset: r6 (rbp) at cfa-40
  DW_CFA_advance_loc: 4 to 000000000045c33b
  DW_CFA_def_cfa_offset: 48
  DW_CFA_offset: r3 (rbx) at cfa-48
  DW_CFA_advance_loc1: 172 to 000000000045c3e7
  DW_CFA_remember_state
  DW_CFA_def_cfa_offset: 40
  DW_CFA_advance_loc: 1 to 000000000045c3e8
  DW_CFA_def_cfa_offset: 32
  DW_CFA_advance_loc: 2 to 000000000045c3ea
  DW_CFA_def_cfa_offset: 24
  DW_CFA_advance_loc: 2 to 000000000045c3ec
  DW_CFA_def_cfa_offset: 16
  DW_CFA_advance_loc: 2 to 000000000045c3ee
  DW_CFA_def_cfa_offset: 8
  DW_CFA_advance_loc: 1 to 000000000045c3ef
  DW_CFA_restore_state
  DW_CFA_advance_loc: 11 to 000000000045c3fa
  DW_CFA_def_cfa_offset: 40
  DW_CFA_advance_loc: 6 to 000000000045c400
  DW_CFA_def_cfa_offset: 32
  DW_CFA_advance_loc: 2 to 000000000045c402
  DW_CFA_def_cfa_offset: 24
  DW_CFA_advance_loc: 2 to 000000000045c404
  DW_CFA_def_cfa_offset: 16
  DW_CFA_advance_loc: 2 to 000000000045c406
  DW_CFA_def_cfa_offset: 8
  DW_CFA_nop
  DW_CFA_nop
  DW_CFA_nop
  DW_CFA_nop

00006270 0000000000000044 00006244 FDE cie=00000030 pc=000000000045c410..000000000045c4d5
  DW_CFA_advance_loc: 2 to 000000000045c412
  DW_CFA_def_cfa_offset: 16
  DW_CFA_offset: r13 (r13) at cfa-16
  DW_CFA_advance_loc: 2 to 000000000045c414
  DW_CFA_def_cfa_offset: 24
  DW_CFA_offset: r12 (r12) at cfa-24
  DW_CFA_advance_loc: 1 to 000000000045c415
  DW_CFA_def_cfa_offset: 32
  DW_CFA_offset: r6 (rbp) at cfa-32
  DW_CFA_advance_loc: 1 to 000000000045c416
  DW_CFA_def_cfa_offset: 40
  DW_CFA_offset: r3 (rbx) at cfa-40
  DW_CFA_advance_loc1: 163 to 000000000045c4b9
  DW_CFA_remember_state
  DW_CFA_def_cfa_offset: 32
  DW_CFA_advance_loc: 1 to 000000000045c4ba
  DW_CFA_def_cfa_offset: 24
  DW_CFA_advance_loc: 2 to 000000000045c4bc
  DW_CFA_def_cfa_offset: 16
  DW_CFA_advance_loc: 2 to 000000000045c4be
  DW_CFA_def_cfa_offset: 8
  DW_CFA_advance_loc: 1 to 000000000045c4bf
  DW_CFA_restore_state
  DW_CFA_advance_loc: 11 to 000000000045c4ca
  DW_CFA_def_cfa_offset: 32
  DW_CFA_advance_loc: 6 to 000000000045c4d0
  DW_CFA_def_cfa_offset: 24
  DW_CFA_advance_loc: 2 to 000000000045c4d2
  DW_CFA_def_cfa_offset: 16
  DW_CFA_advance_loc: 2 to 000000000045c4d4
  DW_CFA_def_cfa_offset: 8
  DW_CFA_nop
  DW_CFA_nop
  DW_CFA_nop
  DW_CFA_nop
  DW_CFA_nop
  DW_CFA_nop
  DW_CFA_nop

000062b8 000000000000002c 0000628c FDE cie=00000030 pc=000000000045c4e0..000000000045c5c5
  DW_CFA_advance_loc: 1 to 000000000045c4e1
  DW_CFA_def_cfa_offset: 16
  DW_CFA_offset: r3 (rbx) at cfa-16
  DW_CFA_advance_loc: 54 to 000000000045c517
  DW_CFA_def_cfa_offset: 144
  DW_CFA_advance_loc: 12 to 000000000045c523
  DW_CFA_def_cfa_offset: 16
  DW_CFA_advance_loc1: 85 to 000000000045c578
  DW_CFA_def_cfa_offset: 144
  DW_CFA_advance_loc: 12 to 000000000045c584
  DW_CFA_def_cfa_offset: 16
  DW_CFA_advance_loc: 3 to 000000000045c587
  DW_CFA_remember_state
  DW_CFA_def_cfa_offset: 8
  DW_CFA_advance_loc: 9 to 000000000045c590
  DW_CFA_restore_state
  DW_CFA_nop
  DW_CFA_nop
  DW_CFA_nop
  DW_CFA_nop
  DW_CFA_nop

000062e8 000000000000001c 000062bc FDE cie=00000030 pc=000000000045c5d0..000000000045c65f
  DW_CFA_advance_loc: 7 to 000000000045c5d7
  DW_CFA_def_cfa_offset: 224
  DW_CFA_advance_loc1: 135 to 000000000045c65e
  DW_CFA_def_cfa_offset: 8
  DW_CFA_nop
  DW_CFA_nop
  DW_CFA_nop
  DW_CFA_nop
  DW_CFA_nop
  DW_CFA_nop
  DW_CFA_nop

00006308 0000000000000014 000062dc FDE cie=00000030 pc=0000000000400551..000000000040059b
  DW_CFA_nop
  DW_CFA_nop
  DW_CFA_nop
  DW_CFA_nop
  DW_CFA_nop
  DW_CFA_nop
  DW_CFA_nop

00006320 000000000000004c 000062f4 FDE cie=00000030 pc=000000000045c660..000000000045c732
  DW_CFA_advance_loc: 2 to 000000000045c662
  DW_CFA_def_cfa_offset: 16
  DW_CFA_offset: r13 (r13) at cfa-16
  DW_CFA_advance_loc: 2 to 000000000045c664
  DW_CFA_def_cfa_offset: 24
  DW_CFA_offset: r12 (r12) at cfa-24
  DW_CFA_advance_loc: 4 to 000000000045c668
  DW_CFA_def_cfa_offset: 32
  DW_CFA_offset: r6 (rbp) at cfa-32
  DW_CFA_advance_loc: 1 to 000000000045c669
  DW_CFA_def_cfa_offset: 40
  DW_CFA_offset: r3 (rbx) at cfa-40
  DW_CFA_advance_loc: 6 to 000000000045c66f
  DW_CFA_def_cfa_offset: 48
  DW_CFA_advance_loc: 52 to 000000000045c6a3
  DW_CFA_remember_state
  DW_CFA_def_cfa_offset: 40
  DW_CFA_advance_loc: 1 to 000000000045c6a4
  DW_CFA_def_cfa_offset: 32
  DW_CFA_advance_loc: 1 to 000000000045c6a5
  DW_CFA_def_cfa_offset: 24
  DW_CFA_advance_loc: 2 to 000000000045c6a7
  DW_CFA_def_cfa_offset: 16
  DW_CFA_advance_loc: 2 to 000000000045c6a9
  DW_CFA_def_cfa_offset: 8
  DW_CFA_advance_loc: 7 to 000000000045c6b0
  DW_CFA_restore_state
  DW_CFA_advance_loc: 4 to 000000000045c6b4
  DW_CFA_remember_state
  DW_CFA_def_cfa_offset: 40
  DW_CFA_advance_loc: 6 to 000000000045c6ba
  DW_CFA_def_cfa_offset: 32
  DW_CFA_advance_loc: 1 to 000000000045c6bb
  DW_CFA_def_cfa_offset: 24
  DW_CFA_advance_loc: 2 to 000000000045c6bd
  DW_CFA_def_cfa_offset: 16
  DW_CFA_advance_loc: 2 to 000000000045c6bf
  DW_CFA_def_cfa_offset: 8
  DW_CFA_advance_loc: 9 to 000000000045c6c8
  DW_CFA_restore_state
  DW_CFA_nop
  DW_CFA_nop
  DW_CFA_nop
  DW_CFA_nop

00006370 000000000000002c 00006344 FDE cie=00000030 pc=000000000045c740..000000000045c82f
  DW_CFA_advance_loc: 1 to 000000000045c741
  DW_CFA_def_cfa_offset: 16
  DW_CFA_offset: r6 (rbp) at cfa-16
  DW_CFA_advance_loc: 6 to 000000000045c747
  DW_CFA_def_cfa_register: r6 (rbp)
  DW_CFA_advance_loc: 13 to 000000000045c754
  DW_CFA_offset: r15 (r15) at cfa-24
  DW_CFA_offset: r14 (r14) at cfa-32
  DW_CFA_offset: r13 (r13) at cfa-40
  DW_CFA_offset: r12 (r12) at cfa-48
  DW_CFA_offset: r3 (rbx) at cfa-56
  DW_CFA_advance_loc: 27 to 000000000045c76f
  DW_CFA_remember_state
  DW_CFA_def_cfa: r7 (rsp) ofs 8
  DW_CFA_advance_loc: 1 to 000000000045c770
  DW_CFA_restore_state
  DW_CFA_nop
  DW_CFA_nop
  DW_CFA_nop
  DW_CFA_nop
  DW_CFA_nop

000063a0 0000000000000034 00006374 FDE cie=00000030 pc=000000000045c830..000000000045c9cf
  DW_CFA_advance_loc: 1 to 000000000045c831
  DW_CFA_def_cfa_offset: 16
  DW_CFA_offset: r6 (rbp) at cfa-16
  DW_CFA_advance_loc: 3 to 000000000045c834
  DW_CFA_def_cfa_register: r6 (rbp)
  DW_CFA_advance_loc: 8 to 000000000045c83c
  DW_CFA_offset: r15 (r15) at cfa-24
  DW_CFA_offset: r14 (r14) at cfa-32
  DW_CFA_offset: r13 (r13) at cfa-40
  DW_CFA_offset: r12 (r12) at cfa-48
  DW_CFA_advance_loc: 16 to 000000000045c84c
  DW_CFA_offset: r3 (rbx) at cfa-56
  DW_CFA_advance_loc2: 321 to 000000000045c98d
  DW_CFA_remember_state
  DW_CFA_def_cfa: r7 (rsp) ofs 8
  DW_CFA_advance_loc: 3 to 000000000045c990
  DW_CFA_restore_state
  DW_CFA_advance_loc: 62 to 000000000045c9ce
  DW_CFA_def_cfa: r7 (rsp) ofs 8
  DW_CFA_nop
  DW_CFA_nop
  DW_CFA_nop
  DW_CFA_nop
  DW_CFA_nop
  DW_CFA_nop

000063d8 000000000000002c 000063ac FDE cie=00000030 pc=000000000045c9d0..000000000045f3bd
  DW_CFA_advance_loc: 1 to 000000000045c9d1
  DW_CFA_def_cfa_offset: 16
  DW_CFA_offset: r6 (rbp) at cfa-16
  DW_CFA_advance_loc: 3 to 000000000045c9d4
  DW_CFA_def_cfa_register: r6 (rbp)
  DW_CFA_advance_loc: 27 to 000000000045c9ef
  DW_CFA_offset: r15 (r15) at cfa-24
  DW_CFA_offset: r14 (r14) at cfa-32
  DW_CFA_offset: r13 (r13) at cfa-40
  DW_CFA_offset: r12 (r12) at cfa-48
  DW_CFA_offset: r3 (rbx) at cfa-56
  DW_CFA_advance_loc2: 3115 to 000000000045d61a
  DW_CFA_remember_state
  DW_CFA_def_cfa: r7 (rsp) ofs 8
  DW_CFA_advance_loc: 6 to 000000000045d620
  DW_CFA_restore_state
  DW_CFA_nop
  DW_CFA_nop
  DW_CFA_nop

00006408 000000000000004c 000063dc FDE cie=00000030 pc=000000000045f3c0..0000000000461c26
  DW_CFA_advance_loc: 1 to 000000000045f3c1
  DW_CFA_def_cfa_offset: 16
  DW_CFA_offset: r6 (rbp) at cfa-16
  DW_CFA_advance_loc: 3 to 000000000045f3c4
  DW_CFA_def_cfa_register: r6 (rbp)
  DW_CFA_advance_loc: 8 to 000000000045f3cc
  DW_CFA_offset: r15 (r15) at cfa-24
  DW_CFA_offset: r14 (r14) at cfa-32
  DW_CFA_offset: r13 (r13) at cfa-40
  DW_CFA_offset: r12 (r12) at cfa-48
  DW_CFA_advance_loc: 4 to 000000000045f3d0
  DW_CFA_offset: r3 (rbx) at cfa-56
  DW_CFA_advance_loc2: 299 to 000000000045f4fb
  DW_CFA_def_cfa_offset: 144
  DW_CFA_advance_loc: 12 to 000000000045f507
  DW_CFA_def_cfa_offset: 16
  DW_CFA_advance_loc1: 118 to 000000000045f57d
  DW_CFA_remember_state
  DW_CFA_def_cfa: r7 (rsp) ofs 8
  DW_CFA_advance_loc: 3 to 000000000045f580
  DW_CFA_restore_state
  DW_CFA_advance_loc: 28 to 000000000045f59c
  DW_CFA_remember_state
  DW_CFA_def_cfa: r7 (rsp) ofs 8
  DW_CFA_advance_loc: 4 to 000000000045f5a0
  DW_CFA_restore_state
  DW_CFA_advance_loc: 38 to 000000000045f5c6
  DW_CFA_def_cfa_offset: 144
  DW_CFA_advance_loc: 12 to 000000000045f5d2
  DW_CFA_def_cfa_offset: 16
  DW_CFA_advance_loc1: 111 to 000000000045f641
  DW_CFA_remember_state
  DW_CFA_def_cfa: r7 (rsp) ofs 8
  DW_CFA_advance_loc: 7 to 000000000045f648
  DW_CFA_restore_state
  DW_CFA_nop
  DW_CFA_nop
  DW_CFA_nop
  DW_CFA_nop

00006458 0000000000000054 0000642c FDE cie=00000030 pc=0000000000461c30..0000000000461e22
  DW_CFA_advance_loc: 2 to 0000000000461c32
  DW_CFA_def_cfa_offset: 16
  DW_CFA_offset: r13 (r13) at cfa-16
  DW_CFA_advance_loc: 2 to 0000000000461c34
  DW_CFA_def_cfa_offset: 24
  DW_CFA_offset: r12 (r12) at cfa-24
  DW_CFA_advance_loc: 4 to 0000000000461c38
  DW_CFA_def_cfa_offset: 32
  DW_CFA_offset: r6 (rbp) at cfa-32
  DW_CFA_advance_loc: 1 to 0000000000461c39
  DW_CFA_def_cfa_offset: 40
  DW_CFA_offset: r3 (rbx) at cfa-40
  DW_CFA_advance_loc: 24 to 0000000000461c51
  DW_CFA_def_cfa_offset: 33408
  DW_CFA_advance_loc1: 249 to 0000000000461d4a
  DW_CFA_def_cfa_offset: 33536
  DW_CFA_advance_loc: 12 to 0000000000461d56
  DW_CFA_def_cfa_offset: 33408
  DW_CFA_advance_loc1: 99 to 0000000000461db9
  DW_CFA_remember_state
  DW_CFA_def_cfa_offset: 40
  DW_CFA_advance_loc: 4 to 0000000000461dbd
  DW_CFA_def_cfa_offset: 32
  DW_CFA_advance_loc: 1 to 0000000000461dbe
  DW_CFA_def_cfa_offset: 24
  DW_CFA_advance_loc: 2 to 0000000000461dc0
  DW_CFA_def_cfa_offset: 16
  DW_CFA_advance_loc: 2 to 0000000000461dc2
  DW_CFA_def_cfa_offset: 8
  DW_CFA_advance_loc: 6 to 0000000000461dc8
  DW_CFA_restore_state
  DW_CFA_advance_loc: 51 to 0000000000461dfb
  DW_CFA_def_cfa_offset: 33536
  DW_CFA_advance_loc: 12 to 0000000000461e07
  DW_CFA_def_cfa_offset: 33408
  DW_CFA_nop
  DW_CFA_nop
  DW_CFA_nop
  DW_CFA_nop
  DW_CFA_nop
  DW_CFA_nop

000064b0 0000000000000014 00006484 FDE cie=00000030 pc=0000000000461e30..0000000000461e71
  DW_CFA_advance_loc: 51 to 0000000000461e63
  DW_CFA_def_cfa_offset: 136
  DW_CFA_advance_loc: 12 to 0000000000461e6f
  DW_CFA_def_cfa_offset: 8

000064c8 0000000000000044 0000649c FDE cie=00000030 pc=0000000000461e80..00000000004625c1
  DW_CFA_advance_loc: 2 to 0000000000461e82
  DW_CFA_def_cfa_offset: 16
  DW_CFA_offset: r12 (r12) at cfa-16
  DW_CFA_advance_loc: 1 to 0000000000461e83
  DW_CFA_def_cfa_offset: 24
  DW_CFA_offset: r6 (rbp) at cfa-24
  DW_CFA_advance_loc: 4 to 0000000000461e87
  DW_CFA_def_cfa_offset: 32
  DW_CFA_offset: r3 (rbx) at cfa-32
  DW_CFA_advance_loc: 17 to 0000000000461e98
  DW_CFA_def_cfa_offset: 48
  DW_CFA_advance_loc2: 729 to 0000000000462171
  DW_CFA_remember_state
  DW_CFA_def_cfa_offset: 32
  DW_CFA_advance_loc: 4 to 0000000000462175
  DW_CFA_def_cfa_offset: 24
  DW_CFA_advance_loc: 1 to 0000000000462176
  DW_CFA_def_cfa_offset: 16
  DW_CFA_advance_loc: 2 to 0000000000462178
  DW_CFA_def_cfa_offset: 8
  DW_CFA_advance_loc: 8 to 0000000000462180
  DW_CFA_restore_state
  DW_CFA_advance_loc: 27 to 000000000046219b
  DW_CFA_remember_state
  DW_CFA_def_cfa_offset: 32
  DW_CFA_advance_loc: 4 to 000000000046219f
  DW_CFA_def_cfa_offset: 24
  DW_CFA_advance_loc: 1 to 00000000004621a0
  DW_CFA_def_cfa_offset: 16
  DW_CFA_advance_loc: 2 to 00000000004621a2
  DW_CFA_def_cfa_offset: 8
  DW_CFA_advance_loc: 6 to 00000000004621a8
  DW_CFA_restore_state
  DW_CFA_nop
  DW_CFA_nop
  DW_CFA_nop
  DW_CFA_nop
  DW_CFA_nop

00006510 0000000000000044 000064e4 FDE cie=00000030 pc=00000000004625d0..0000000000462cdb
  DW_CFA_advance_loc: 2 to 00000000004625d2
  DW_CFA_def_cfa_offset: 16
  DW_CFA_offset: r12 (r12) at cfa-16
  DW_CFA_advance_loc: 1 to 00000000004625d3
  DW_CFA_def_cfa_offset: 24
  DW_CFA_offset: r6 (rbp) at cfa-24
  DW_CFA_advance_loc: 4 to 00000000004625d7
  DW_CFA_def_cfa_offset: 32
  DW_CFA_offset: r3 (rbx) at cfa-32
  DW_CFA_advance_loc: 11 to 00000000004625e2
  DW_CFA_def_cfa_offset: 48
  DW_CFA_advance_loc2: 631 to 0000000000462859
  DW_CFA_remember_state
  DW_CFA_def_cfa_offset: 32
  DW_CFA_advance_loc: 4 to 000000000046285d
  DW_CFA_def_cfa_offset: 24
  DW_CFA_advance_loc: 1 to 000000000046285e
  DW_CFA_def_cfa_offset: 16
  DW_CFA_advance_loc: 2 to 0000000000462860
  DW_CFA_def_cfa_offset: 8
  DW_CFA_advance_loc: 8 to 0000000000462868
  DW_CFA_restore_state
  DW_CFA_advance_loc1: 99 to 00000000004628cb
  DW_CFA_remember_state
  DW_CFA_def_cfa_offset: 32
  DW_CFA_advance_loc: 4 to 00000000004628cf
  DW_CFA_def_cfa_offset: 24
  DW_CFA_advance_loc: 1 to 00000000004628d0
  DW_CFA_def_cfa_offset: 16
  DW_CFA_advance_loc: 2 to 00000000004628d2
  DW_CFA_def_cfa_offset: 8
  DW_CFA_advance_loc: 6 to 00000000004628d8
  DW_CFA_restore_state
  DW_CFA_nop
  DW_CFA_nop
  DW_CFA_nop
  DW_CFA_nop

00006558 0000000000000034 0000652c FDE cie=00000030 pc=0000000000462ce0..0000000000462dc0
  DW_CFA_advance_loc: 2 to 0000000000462ce2
  DW_CFA_def_cfa_offset: 16
  DW_CFA_offset: r12 (r12) at cfa-16
  DW_CFA_advance_loc: 1 to 0000000000462ce3
  DW_CFA_def_cfa_offset: 24
  DW_CFA_offset: r6 (rbp) at cfa-24
  DW_CFA_advance_loc: 4 to 0000000000462ce7
  DW_CFA_def_cfa_offset: 32
  DW_CFA_offset: r3 (rbx) at cfa-32
  DW_CFA_advance_loc: 7 to 0000000000462cee
  DW_CFA_def_cfa_offset: 176
  DW_CFA_advance_loc1: 113 to 0000000000462d5f
  DW_CFA_remember_state
  DW_CFA_def_cfa_offset: 32
  DW_CFA_advance_loc: 1 to 0000000000462d60
  DW_CFA_def_cfa_offset: 24
  DW_CFA_advance_loc: 1 to 0000000000462d61
  DW_CFA_def_cfa_offset: 16
  DW_CFA_advance_loc: 2 to 0000000000462d63
  DW_CFA_def_cfa_offset: 8
  DW_CFA_advance_loc: 5 to 0000000000462d68
  DW_CFA_restore_state
  DW_CFA_nop
  DW_CFA_nop
  DW_CFA_nop
  DW_CFA_nop

00006590 0000000000000054 000058ac FDE cie=00000ce8 pc=0000000000462dc0..0000000000462f22
  Augmentation data:     8e 93 4c 00

  DW_CFA_advance_loc: 2 to 0000000000462dc2
  DW_CFA_def_cfa_offset: 16
  DW_CFA_offset: r12 (r12) at cfa-16
  DW_CFA_advance_loc: 1 to 0000000000462dc3
  DW_CFA_def_cfa_offset: 24
  DW_CFA_offset: r6 (rbp) at cfa-24
  DW_CFA_advance_loc: 4 to 0000000000462dc7
  DW_CFA_def_cfa_offset: 32
  DW_CFA_offset: r3 (rbx) at cfa-32
  DW_CFA_advance_loc1: 79 to 0000000000462e16
  DW_CFA_def_cfa_offset: 160
  DW_CFA_advance_loc: 12 to 0000000000462e22
  DW_CFA_def_cfa_offset: 32
  DW_CFA_advance_loc1: 73 to 0000000000462e6b
  DW_CFA_remember_state
  DW_CFA_def_cfa_offset: 24
  DW_CFA_advance_loc: 3 to 0000000000462e6e
  DW_CFA_def_cfa_offset: 16
  DW_CFA_advance_loc: 2 to 0000000000462e70
  DW_CFA_def_cfa_offset: 8
  DW_CFA_advance_loc: 8 to 0000000000462e78
  DW_CFA_restore_state
  DW_CFA_advance_loc1: 69 to 0000000000462ebd
  DW_CFA_def_cfa_offset: 160
  DW_CFA_advance_loc: 12 to 0000000000462ec9
  DW_CFA_def_cfa_offset: 32
  DW_CFA_advance_loc: 1 to 0000000000462eca
  DW_CFA_remember_state
  DW_CFA_def_cfa_offset: 24
  DW_CFA_advance_loc: 3 to 0000000000462ecd
  DW_CFA_def_cfa_offset: 16
  DW_CFA_advance_loc: 2 to 0000000000462ecf
  DW_CFA_def_cfa_offset: 8
  DW_CFA_advance_loc: 1 to 0000000000462ed0
  DW_CFA_restore_state
  DW_CFA_advance_loc: 62 to 0000000000462f0e
  DW_CFA_def_cfa_offset: 160
  DW_CFA_advance_loc: 12 to 0000000000462f1a
  DW_CFA_def_cfa_offset: 32
  DW_CFA_nop
  DW_CFA_nop
  DW_CFA_nop
  DW_CFA_nop

000065e8 000000000000002c 000065bc FDE cie=00000030 pc=0000000000462f30..0000000000462fa3
  DW_CFA_advance_loc: 1 to 0000000000462f31
  DW_CFA_def_cfa_offset: 16
  DW_CFA_offset: r6 (rbp) at cfa-16
  DW_CFA_advance_loc: 1 to 0000000000462f32
  DW_CFA_def_cfa_offset: 24
  DW_CFA_offset: r3 (rbx) at cfa-24
  DW_CFA_advance_loc: 7 to 0000000000462f39
  DW_CFA_def_cfa_offset: 32
  DW_CFA_advance_loc1: 85 to 0000000000462f8e
  DW_CFA_remember_state
  DW_CFA_def_cfa_offset: 24
  DW_CFA_advance_loc: 1 to 0000000000462f8f
  DW_CFA_def_cfa_offset: 16
  DW_CFA_advance_loc: 1 to 0000000000462f90
  DW_CFA_def_cfa_offset: 8
  DW_CFA_advance_loc: 8 to 0000000000462f98
  DW_CFA_restore_state
  DW_CFA_nop
  DW_CFA_nop
  DW_CFA_nop
  DW_CFA_nop
  DW_CFA_nop

00006618 000000000000007c 00005934 FDE cie=00000ce8 pc=0000000000462fb0..0000000000463178
  Augmentation data:     9d 93 4c 00

  DW_CFA_advance_loc: 2 to 0000000000462fb2
  DW_CFA_def_cfa_offset: 16
  DW_CFA_offset: r14 (r14) at cfa-16
  DW_CFA_advance_loc: 2 to 0000000000462fb4
  DW_CFA_def_cfa_offset: 24
  DW_CFA_offset: r13 (r13) at cfa-24
  DW_CFA_advance_loc: 2 to 0000000000462fb6
  DW_CFA_def_cfa_offset: 32
  DW_CFA_offset: r12 (r12) at cfa-32
  DW_CFA_advance_loc: 1 to 0000000000462fb7
  DW_CFA_def_cfa_offset: 40
  DW_CFA_offset: r6 (rbp) at cfa-40
  DW_CFA_advance_loc: 1 to 0000000000462fb8
  DW_CFA_def_cfa_offset: 48
  DW_CFA_offset: r3 (rbx) at cfa-48
  DW_CFA_advance_loc1: 95 to 0000000000463017
  DW_CFA_def_cfa_offset: 176
  DW_CFA_advance_loc: 12 to 0000000000463023
  DW_CFA_def_cfa_offset: 48
  DW_CFA_advance_loc1: 66 to 0000000000463065
  DW_CFA_remember_state
  DW_CFA_def_cfa_offset: 40
  DW_CFA_advance_loc: 4 to 0000000000463069
  DW_CFA_def_cfa_offset: 32
  DW_CFA_advance_loc: 2 to 000000000046306b
  DW_CFA_def_cfa_offset: 24
  DW_CFA_advance_loc: 2 to 000000000046306d
  DW_CFA_def_cfa_offset: 16
  DW_CFA_advance_loc: 2 to 000000000046306f
  DW_CFA_def_cfa_offset: 8
  DW_CFA_advance_loc: 1 to 0000000000463070
  DW_CFA_restore_state
  DW_CFA_advance_loc: 58 to 00000000004630aa
  DW_CFA_remember_state
  DW_CFA_def_cfa_offset: 40
  DW_CFA_advance_loc: 4 to 00000000004630ae
  DW_CFA_def_cfa_offset: 32
  DW_CFA_advance_loc: 2 to 00000000004630b0
  DW_CFA_def_cfa_offset: 24
  DW_CFA_advance_loc: 2 to 00000000004630b2
  DW_CFA_def_cfa_offset: 16
  DW_CFA_advance_loc: 2 to 00000000004630b4
  DW_CFA_def_cfa_offset: 8
  DW_CFA_advance_loc: 4 to 00000000004630b8
  DW_CFA_restore_state
  DW_CFA_advance_loc: 1 to 00000000004630b9
  DW_CFA_remember_state
  DW_CFA_def_cfa_offset: 40
  DW_CFA_advance_loc: 3 to 00000000004630bc
  DW_CFA_def_cfa_offset: 32
  DW_CFA_advance_loc: 2 to 00000000004630be
  DW_CFA_def_cfa_offset: 24
  DW_CFA_advance_loc: 2 to 00000000004630c0
  DW_CFA_def_cfa_offset: 16
  DW_CFA_advance_loc: 2 to 00000000004630c2
  DW_CFA_def_cfa_offset: 8
  DW_CFA_advance_loc: 6 to 00000000004630c8
  DW_CFA_restore_state
  DW_CFA_advance_loc: 51 to 00000000004630fb
  DW_CFA_def_cfa_offset: 176
  DW_CFA_advance_loc: 12 to 0000000000463107
  DW_CFA_def_cfa_offset: 48
  DW_CFA_advance_loc1: 93 to 0000000000463164
  DW_CFA_def_cfa_offset: 176
  DW_CFA_advance_loc: 12 to 0000000000463170
  DW_CFA_def_cfa_offset: 48
  DW_CFA_nop
  DW_CFA_nop
  DW_CFA_nop
  DW_CFA_nop

00006698 0000000000000064 000059b4 FDE cie=00000ce8 pc=0000000000463180..000000000046348c
  Augmentation data:     ac 93 4c 00

  DW_CFA_advance_loc: 2 to 0000000000463182
  DW_CFA_def_cfa_offset: 16
  DW_CFA_offset: r15 (r15) at cfa-16
  DW_CFA_advance_loc: 2 to 0000000000463184
  DW_CFA_def_cfa_offset: 24
  DW_CFA_offset: r14 (r14) at cfa-24
  DW_CFA_advance_loc: 2 to 0000000000463186
  DW_CFA_def_cfa_offset: 32
  DW_CFA_offset: r13 (r13) at cfa-32
  DW_CFA_advance_loc: 2 to 0000000000463188
  DW_CFA_def_cfa_offset: 40
  DW_CFA_offset: r12 (r12) at cfa-40
  DW_CFA_advance_loc: 1 to 0000000000463189
  DW_CFA_def_cfa_offset: 48
  DW_CFA_offset: r6 (rbp) at cfa-48
  DW_CFA_advance_loc: 1 to 000000000046318a
  DW_CFA_def_cfa_offset: 56
  DW_CFA_offset: r3 (rbx) at cfa-56
  DW_CFA_advance_loc: 4 to 000000000046318e
  DW_CFA_def_cfa_offset: 96
  DW_CFA_advance_loc1: 109 to 00000000004631fb
  DW_CFA_def_cfa_offset: 224
  DW_CFA_advance_loc: 12 to 0000000000463207
  DW_CFA_def_cfa_offset: 96
  DW_CFA_advance_loc1: 86 to 000000000046325d
  DW_CFA_def_cfa_offset: 224
  DW_CFA_advance_loc: 12 to 0000000000463269
  DW_CFA_def_cfa_offset: 96
  DW_CFA_advance_loc: 23 to 0000000000463280
  DW_CFA_remember_state
  DW_CFA_def_cfa_offset: 56
  DW_CFA_advance_loc: 4 to 0000000000463284
  DW_CFA_def_cfa_offset: 48
  DW_CFA_advance_loc: 1 to 0000000000463285
  DW_CFA_def_cfa_offset: 40
  DW_CFA_advance_loc: 2 to 0000000000463287
  DW_CFA_def_cfa_offset: 32
  DW_CFA_advance_loc: 2 to 0000000000463289
  DW_CFA_def_cfa_offset: 24
  DW_CFA_advance_loc: 2 to 000000000046328b
  DW_CFA_def_cfa_offset: 16
  DW_CFA_advance_loc: 2 to 000000000046328d
  DW_CFA_def_cfa_offset: 8
  DW_CFA_advance_loc: 3 to 0000000000463290
  DW_CFA_restore_state
  DW_CFA_advance_loc2: 488 to 0000000000463478
  DW_CFA_def_cfa_offset: 224
  DW_CFA_advance_loc: 12 to 0000000000463484
  DW_CFA_def_cfa_offset: 96
  DW_CFA_nop

00006700 0000000000000064 000066d4 FDE cie=00000030 pc=0000000000463490..0000000000463637
  DW_CFA_advance_loc: 2 to 0000000000463492
  DW_CFA_def_cfa_offset: 16
  DW_CFA_offset: r15 (r15) at cfa-16
  DW_CFA_advance_loc: 2 to 0000000000463494
  DW_CFA_def_cfa_offset: 24
  DW_CFA_offset: r14 (r14) at cfa-24
  DW_CFA_advance_loc: 5 to 0000000000463499
  DW_CFA_def_cfa_offset: 32
  DW_CFA_offset: r13 (r13) at cfa-32
  DW_CFA_advance_loc: 2 to 000000000046349b
  DW_CFA_def_cfa_offset: 40
  DW_CFA_offset: r12 (r12) at cfa-40
  DW_CFA_advance_loc: 4 to 000000000046349f
  DW_CFA_def_cfa_offset: 48
  DW_CFA_offset: r6 (rbp) at cfa-48
  DW_CFA_advance_loc: 1 to 00000000004634a0
  DW_CFA_def_cfa_offset: 56
  DW_CFA_offset: r3 (rbx) at cfa-56
  DW_CFA_advance_loc: 7 to 00000000004634a7
  DW_CFA_def_cfa_offset: 96
  DW_CFA_advance_loc1: 197 to 000000000046356c
  DW_CFA_remember_state
  DW_CFA_def_cfa_offset: 56
  DW_CFA_advance_loc: 1 to 000000000046356d
  DW_CFA_def_cfa_offset: 48
  DW_CFA_advance_loc: 1 to 000000000046356e
  DW_CFA_def_cfa_offset: 40
  DW_CFA_advance_loc: 2 to 0000000000463570
  DW_CFA_def_cfa_offset: 32
  DW_CFA_advance_loc: 2 to 0000000000463572
  DW_CFA_def_cfa_offset: 24
  DW_CFA_advance_loc: 2 to 0000000000463574
  DW_CFA_def_cfa_offset: 16
  DW_CFA_advance_loc: 2 to 0000000000463576
  DW_CFA_def_cfa_offset: 8
  DW_CFA_advance_loc: 10 to 0000000000463580
  DW_CFA_restore_state
  DW_CFA_advance_loc1: 69 to 00000000004635c5
  DW_CFA_remember_state
  DW_CFA_def_cfa_offset: 56
  DW_CFA_advance_loc: 1 to 00000000004635c6
  DW_CFA_def_cfa_offset: 48
  DW_CFA_advance_loc: 1 to 00000000004635c7
  DW_CFA_def_cfa_offset: 40
  DW_CFA_advance_loc: 2 to 00000000004635c9
  DW_CFA_def_cfa_offset: 32
  DW_CFA_advance_loc: 2 to 00000000004635cb
  DW_CFA_def_cfa_offset: 24
  DW_CFA_advance_loc: 2 to 00000000004635cd
  DW_CFA_def_cfa_offset: 16
  DW_CFA_advance_loc: 2 to 00000000004635cf
  DW_CFA_def_cfa_offset: 8
  DW_CFA_advance_loc: 1 to 00000000004635d0
  DW_CFA_restore_state
  DW_CFA_nop
  DW_CFA_nop
  DW_CFA_nop
  DW_CFA_nop

00006768 0000000000000014 0000673c FDE cie=00000030 pc=0000000000463640..0000000000463648
  DW_CFA_nop
  DW_CFA_nop
  DW_CFA_nop
  DW_CFA_nop
  DW_CFA_nop
  DW_CFA_nop
  DW_CFA_nop

00006780 000000000000004c 00006754 FDE cie=00000030 pc=0000000000463650..0000000000463701
  DW_CFA_advance_loc: 2 to 0000000000463652
  DW_CFA_def_cfa_offset: 16
  DW_CFA_offset: r13 (r13) at cfa-16
  DW_CFA_advance_loc: 2 to 0000000000463654
  DW_CFA_def_cfa_offset: 24
  DW_CFA_offset: r12 (r12) at cfa-24
  DW_CFA_advance_loc: 7 to 000000000046365b
  DW_CFA_def_cfa_offset: 32
  DW_CFA_offset: r6 (rbp) at cfa-32
  DW_CFA_advance_loc: 1 to 000000000046365c
  DW_CFA_def_cfa_offset: 40
  DW_CFA_offset: r3 (rbx) at cfa-40
  DW_CFA_advance_loc: 7 to 0000000000463663
  DW_CFA_def_cfa_offset: 64
  DW_CFA_advance_loc1: 104 to 00000000004636cb
  DW_CFA_remember_state
  DW_CFA_def_cfa_offset: 40
  DW_CFA_advance_loc: 4 to 00000000004636cf
  DW_CFA_def_cfa_offset: 32
  DW_CFA_advance_loc: 1 to 00000000004636d0
  DW_CFA_def_cfa_offset: 24
  DW_CFA_advance_loc: 2 to 00000000004636d2
  DW_CFA_def_cfa_offset: 16
  DW_CFA_advance_loc: 2 to 00000000004636d4
  DW_CFA_def_cfa_offset: 8
  DW_CFA_advance_loc: 4 to 00000000004636d8
  DW_CFA_restore_state
  DW_CFA_advance_loc: 28 to 00000000004636f4
  DW_CFA_def_cfa_offset: 40
  DW_CFA_advance_loc: 4 to 00000000004636f8
  DW_CFA_def_cfa_offset: 32
  DW_CFA_advance_loc: 4 to 00000000004636fc
  DW_CFA_def_cfa_offset: 24
  DW_CFA_advance_loc: 2 to 00000000004636fe
  DW_CFA_def_cfa_offset: 16
  DW_CFA_advance_loc: 2 to 0000000000463700
  DW_CFA_def_cfa_offset: 8
  DW_CFA_nop
  DW_CFA_nop
  DW_CFA_nop
  DW_CFA_nop
  DW_CFA_nop
  DW_CFA_nop

000067d0 000000000000004c 000067a4 FDE cie=00000030 pc=0000000000463710..00000000004637d1
  DW_CFA_advance_loc: 2 to 0000000000463712
  DW_CFA_def_cfa_offset: 16
  DW_CFA_offset: r13 (r13) at cfa-16
  DW_CFA_advance_loc: 2 to 0000000000463714
  DW_CFA_def_cfa_offset: 24
  DW_CFA_offset: r12 (r12) at cfa-24
  DW_CFA_advance_loc: 7 to 000000000046371b
  DW_CFA_def_cfa_offset: 32
  DW_CFA_offset: r6 (rbp) at cfa-32
  DW_CFA_advance_loc: 1 to 000000000046371c
  DW_CFA_def_cfa_offset: 40
  DW_CFA_offset: r3 (rbx) at cfa-40
  DW_CFA_advance_loc: 7 to 0000000000463723
  DW_CFA_def_cfa_offset: 128
  DW_CFA_advance_loc1: 120 to 000000000046379b
  DW_CFA_remember_state
  DW_CFA_def_cfa_offset: 40
  DW_CFA_advance_loc: 4 to 000000000046379f
  DW_CFA_def_cfa_offset: 32
  DW_CFA_advance_loc: 1 to 00000000004637a0
  DW_CFA_def_cfa_offset: 24
  DW_CFA_advance_loc: 2 to 00000000004637a2
  DW_CFA_def_cfa_offset: 16
  DW_CFA_advance_loc: 2 to 00000000004637a4
  DW_CFA_def_cfa_offset: 8
  DW_CFA_advance_loc: 4 to 00000000004637a8
  DW_CFA_restore_state
  DW_CFA_advance_loc: 28 to 00000000004637c4
  DW_CFA_def_cfa_offset: 40
  DW_CFA_advance_loc: 4 to 00000000004637c8
  DW_CFA_def_cfa_offset: 32
  DW_CFA_advance_loc: 4 to 00000000004637cc
  DW_CFA_def_cfa_offset: 24
  DW_CFA_advance_loc: 2 to 00000000004637ce
  DW_CFA_def_cfa_offset: 16
  DW_CFA_advance_loc: 2 to 00000000004637d0
  DW_CFA_def_cfa_offset: 8
  DW_CFA_nop
  DW_CFA_nop
  DW_CFA_nop
  DW_CFA_nop
  DW_CFA_nop

00006820 000000000000004c 000067f4 FDE cie=00000030 pc=00000000004637e0..00000000004639f6
  DW_CFA_advance_loc: 2 to 00000000004637e2
  DW_CFA_def_cfa_offset: 16
  DW_CFA_offset: r15 (r15) at cfa-16
  DW_CFA_advance_loc: 2 to 00000000004637e4
  DW_CFA_def_cfa_offset: 24
  DW_CFA_offset: r14 (r14) at cfa-24
  DW_CFA_advance_loc: 5 to 00000000004637e9
  DW_CFA_def_cfa_offset: 32
  DW_CFA_offset: r13 (r13) at cfa-32
  DW_CFA_advance_loc: 2 to 00000000004637eb
  DW_CFA_def_cfa_offset: 40
  DW_CFA_offset: r12 (r12) at cfa-40
  DW_CFA_advance_loc: 4 to 00000000004637ef
  DW_CFA_def_cfa_offset: 48
  DW_CFA_offset: r6 (rbp) at cfa-48
  DW_CFA_advance_loc: 1 to 00000000004637f0
  DW_CFA_def_cfa_offset: 56
  DW_CFA_offset: r3 (rbx) at cfa-56
  DW_CFA_advance_loc: 10 to 00000000004637fa
  DW_CFA_def_cfa_offset: 96
  DW_CFA_advance_loc1: 151 to 0000000000463891
  DW_CFA_remember_state
  DW_CFA_def_cfa_offset: 56
  DW_CFA_advance_loc: 1 to 0000000000463892
  DW_CFA_def_cfa_offset: 48
  DW_CFA_advance_loc: 1 to 0000000000463893
  DW_CFA_def_cfa_offset: 40
  DW_CFA_advance_loc: 2 to 0000000000463895
  DW_CFA_def_cfa_offset: 32
  DW_CFA_advance_loc: 2 to 0000000000463897
  DW_CFA_def_cfa_offset: 24
  DW_CFA_advance_loc: 2 to 0000000000463899
  DW_CFA_def_cfa_offset: 16
  DW_CFA_advance_loc: 2 to 000000000046389b
  DW_CFA_def_cfa_offset: 8
  DW_CFA_advance_loc: 5 to 00000000004638a0
  DW_CFA_restore_state
  DW_CFA_nop
  DW_CFA_nop
  DW_CFA_nop
  DW_CFA_nop
  DW_CFA_nop

00006870 0000000000000014 00006844 FDE cie=00000030 pc=0000000000463a00..0000000000463a35
  DW_CFA_nop
  DW_CFA_nop
  DW_CFA_nop
  DW_CFA_nop
  DW_CFA_nop
  DW_CFA_nop
  DW_CFA_nop

00006888 0000000000000014 0000685c FDE cie=00000030 pc=0000000000463a40..0000000000463a71
  DW_CFA_nop
  DW_CFA_nop
  DW_CFA_nop
  DW_CFA_nop
  DW_CFA_nop
  DW_CFA_nop
  DW_CFA_nop

000068a0 0000000000000014 00006874 FDE cie=00000030 pc=0000000000463a80..0000000000463ab1
  DW_CFA_nop
  DW_CFA_nop
  DW_CFA_nop
  DW_CFA_nop
  DW_CFA_nop
  DW_CFA_nop
  DW_CFA_nop

000068b8 0000000000000024 0000688c FDE cie=00000030 pc=0000000000463ac0..0000000000463b2d
  DW_CFA_advance_loc: 1 to 0000000000463ac1
  DW_CFA_def_cfa_offset: 16
  DW_CFA_offset: r3 (rbx) at cfa-16
  DW_CFA_advance_loc: 7 to 0000000000463ac8
  DW_CFA_def_cfa_offset: 48
  DW_CFA_advance_loc: 51 to 0000000000463afb
  DW_CFA_remember_state
  DW_CFA_def_cfa_offset: 16
  DW_CFA_advance_loc: 1 to 0000000000463afc
  DW_CFA_def_cfa_offset: 8
  DW_CFA_advance_loc: 4 to 0000000000463b00
  DW_CFA_restore_state
  DW_CFA_nop
  DW_CFA_nop
  DW_CFA_nop
  DW_CFA_nop
  DW_CFA_nop
  DW_CFA_nop

000068e0 0000000000000064 000068b4 FDE cie=00000030 pc=0000000000463b30..0000000000463d0d
  DW_CFA_advance_loc: 2 to 0000000000463b32
  DW_CFA_def_cfa_offset: 16
  DW_CFA_offset: r15 (r15) at cfa-16
  DW_CFA_advance_loc: 2 to 0000000000463b34
  DW_CFA_def_cfa_offset: 24
  DW_CFA_offset: r14 (r14) at cfa-24
  DW_CFA_advance_loc: 5 to 0000000000463b39
  DW_CFA_def_cfa_offset: 32
  DW_CFA_offset: r13 (r13) at cfa-32
  DW_CFA_advance_loc: 2 to 0000000000463b3b
  DW_CFA_def_cfa_offset: 40
  DW_CFA_offset: r12 (r12) at cfa-40
  DW_CFA_advance_loc: 4 to 0000000000463b3f
  DW_CFA_def_cfa_offset: 48
  DW_CFA_offset: r6 (rbp) at cfa-48
  DW_CFA_advance_loc: 1 to 0000000000463b40
  DW_CFA_def_cfa_offset: 56
  DW_CFA_offset: r3 (rbx) at cfa-56
  DW_CFA_advance_loc: 4 to 0000000000463b44
  DW_CFA_def_cfa_offset: 80
  DW_CFA_advance_loc1: 98 to 0000000000463ba6
  DW_CFA_remember_state
  DW_CFA_def_cfa_offset: 56
  DW_CFA_advance_loc: 6 to 0000000000463bac
  DW_CFA_def_cfa_offset: 48
  DW_CFA_advance_loc: 1 to 0000000000463bad
  DW_CFA_def_cfa_offset: 40
  DW_CFA_advance_loc: 2 to 0000000000463baf
  DW_CFA_def_cfa_offset: 32
  DW_CFA_advance_loc: 2 to 0000000000463bb1
  DW_CFA_def_cfa_offset: 24
  DW_CFA_advance_loc: 2 to 0000000000463bb3
  DW_CFA_def_cfa_offset: 16
  DW_CFA_advance_loc: 2 to 0000000000463bb5
  DW_CFA_def_cfa_offset: 8
  DW_CFA_advance_loc: 11 to 0000000000463bc0
  DW_CFA_restore_state
  DW_CFA_advance_loc1: 146 to 0000000000463c52
  DW_CFA_remember_state
  DW_CFA_def_cfa_offset: 56
  DW_CFA_advance_loc: 1 to 0000000000463c53
  DW_CFA_def_cfa_offset: 48
  DW_CFA_advance_loc: 1 to 0000000000463c54
  DW_CFA_def_cfa_offset: 40
  DW_CFA_advance_loc: 2 to 0000000000463c56
  DW_CFA_def_cfa_offset: 32
  DW_CFA_advance_loc: 2 to 0000000000463c58
  DW_CFA_def_cfa_offset: 24
  DW_CFA_advance_loc: 2 to 0000000000463c5a
  DW_CFA_def_cfa_offset: 16
  DW_CFA_advance_loc: 2 to 0000000000463c5c
  DW_CFA_def_cfa_offset: 8
  DW_CFA_advance_loc: 4 to 0000000000463c60
  DW_CFA_restore_state
  DW_CFA_nop
  DW_CFA_nop
  DW_CFA_nop
  DW_CFA_nop

00006948 000000000000001c 0000691c FDE cie=00000030 pc=0000000000463d10..0000000000463d8e
  DW_CFA_advance_loc: 1 to 0000000000463d11
  DW_CFA_def_cfa_offset: 16
  DW_CFA_offset: r3 (rbx) at cfa-16
  DW_CFA_advance_loc1: 83 to 0000000000463d64
  DW_CFA_remember_state
  DW_CFA_def_cfa_offset: 8
  DW_CFA_advance_loc: 12 to 0000000000463d70
  DW_CFA_restore_state
  DW_CFA_nop
  DW_CFA_nop
  DW_CFA_nop

00006968 000000000000001c 0000693c FDE cie=00000030 pc=0000000000463d90..0000000000463dbe
  DW_CFA_advance_loc: 8 to 0000000000463d98
  DW_CFA_def_cfa_offset: 16
  DW_CFA_offset: r3 (rbx) at cfa-16
  DW_CFA_advance_loc: 37 to 0000000000463dbd
  DW_CFA_def_cfa_offset: 8
  DW_CFA_nop
  DW_CFA_nop
  DW_CFA_nop
  DW_CFA_nop
  DW_CFA_nop
  DW_CFA_nop
  DW_CFA_nop

00006988 0000000000000024 0000695c FDE cie=00000030 pc=0000000000463dc0..0000000000463df7
  DW_CFA_advance_loc: 1 to 0000000000463dc1
  DW_CFA_def_cfa_offset: 16
  DW_CFA_offset: r6 (rbp) at cfa-16
  DW_CFA_advance_loc: 1 to 0000000000463dc2
  DW_CFA_def_cfa_offset: 24
  DW_CFA_offset: r3 (rbx) at cfa-24
  DW_CFA_advance_loc: 9 to 0000000000463dcb
  DW_CFA_def_cfa_offset: 32
  DW_CFA_advance_loc: 40 to 0000000000463df3
  DW_CFA_def_cfa_offset: 24
  DW_CFA_advance_loc: 1 to 0000000000463df4
  DW_CFA_def_cfa_offset: 16
  DW_CFA_advance_loc: 1 to 0000000000463df5
  DW_CFA_def_cfa_offset: 8
  DW_CFA_nop

000069b0 0000000000000034 00006984 FDE cie=00000030 pc=0000000000463e00..0000000000463ff0
  DW_CFA_advance_loc: 15 to 0000000000463e0f
  DW_CFA_def_cfa_offset: 16
  DW_CFA_offset: r3 (rbx) at cfa-16
  DW_CFA_advance_loc1: 138 to 0000000000463e99
  DW_CFA_restore: r3 (rbx)
  DW_CFA_def_cfa_offset: 8
  DW_CFA_advance_loc: 23 to 0000000000463eb0
  DW_CFA_def_cfa_offset: 16
  DW_CFA_offset: r3 (rbx) at cfa-16
  DW_CFA_advance_loc: 25 to 0000000000463ec9
  DW_CFA_remember_state
  DW_CFA_restore: r3 (rbx)
  DW_CFA_def_cfa_offset: 8
  DW_CFA_advance_loc: 7 to 0000000000463ed0
  DW_CFA_restore_state
  DW_CFA_advance_loc: 10 to 0000000000463eda
  DW_CFA_remember_state
  DW_CFA_restore: r3 (rbx)
  DW_CFA_def_cfa_offset: 8
  DW_CFA_advance_loc: 6 to 0000000000463ee0
  DW_CFA_restore_state
  DW_CFA_advance_loc1: 186 to 0000000000463f9a
  DW_CFA_remember_state
  DW_CFA_restore: r3 (rbx)
  DW_CFA_def_cfa_offset: 8
  DW_CFA_advance_loc: 6 to 0000000000463fa0
  DW_CFA_restore_state
  DW_CFA_nop
  DW_CFA_nop

000069e8 000000000000002c 000069bc FDE cie=00000030 pc=0000000000463ff0..00000000004641d9
  DW_CFA_advance_loc: 11 to 0000000000463ffb
  DW_CFA_def_cfa_offset: 16
  DW_CFA_offset: r3 (rbx) at cfa-16
  DW_CFA_advance_loc1: 86 to 0000000000464051
  DW_CFA_restore: r3 (rbx)
  DW_CFA_def_cfa_offset: 8
  DW_CFA_advance_loc: 31 to 0000000000464070
  DW_CFA_def_cfa_offset: 16
  DW_CFA_offset: r3 (rbx) at cfa-16
  DW_CFA_advance_loc: 25 to 0000000000464089
  DW_CFA_remember_state
  DW_CFA_restore: r3 (rbx)
  DW_CFA_def_cfa_offset: 8
  DW_CFA_advance_loc: 7 to 0000000000464090
  DW_CFA_restore_state
  DW_CFA_advance_loc: 51 to 00000000004640c3
  DW_CFA_remember_state
  DW_CFA_restore: r3 (rbx)
  DW_CFA_def_cfa_offset: 8
  DW_CFA_advance_loc: 5 to 00000000004640c8
  DW_CFA_restore_state
  DW_CFA_nop
  DW_CFA_nop

00006a18 000000000000004c 000069ec FDE cie=00000030 pc=00000000004641e0..0000000000464485
  DW_CFA_advance_loc: 2 to 00000000004641e2
  DW_CFA_def_cfa_offset: 16
  DW_CFA_offset: r15 (r15) at cfa-16
  DW_CFA_advance_loc: 2 to 00000000004641e4
  DW_CFA_def_cfa_offset: 24
  DW_CFA_offset: r14 (r14) at cfa-24
  DW_CFA_advance_loc: 4 to 00000000004641e8
  DW_CFA_def_cfa_offset: 32
  DW_CFA_offset: r13 (r13) at cfa-32
  DW_CFA_advance_loc: 2 to 00000000004641ea
  DW_CFA_def_cfa_offset: 40
  DW_CFA_offset: r12 (r12) at cfa-40
  DW_CFA_advance_loc: 1 to 00000000004641eb
  DW_CFA_def_cfa_offset: 48
  DW_CFA_offset: r6 (rbp) at cfa-48
  DW_CFA_advance_loc: 1 to 00000000004641ec
  DW_CFA_def_cfa_offset: 56
  DW_CFA_offset: r3 (rbx) at cfa-56
  DW_CFA_advance_loc: 4 to 00000000004641f0
  DW_CFA_def_cfa_offset: 80
  DW_CFA_advance_loc2: 572 to 000000000046442c
  DW_CFA_remember_state
  DW_CFA_def_cfa_offset: 56
  DW_CFA_advance_loc: 1 to 000000000046442d
  DW_CFA_def_cfa_offset: 48
  DW_CFA_advance_loc: 1 to 000000000046442e
  DW_CFA_def_cfa_offset: 40
  DW_CFA_advance_loc: 2 to 0000000000464430
  DW_CFA_def_cfa_offset: 32
  DW_CFA_advance_loc: 2 to 0000000000464432
  DW_CFA_def_cfa_offset: 24
  DW_CFA_advance_loc: 2 to 0000000000464434
  DW_CFA_def_cfa_offset: 16
  DW_CFA_advance_loc: 2 to 0000000000464436
  DW_CFA_def_cfa_offset: 8
  DW_CFA_advance_loc: 10 to 0000000000464440
  DW_CFA_restore_state
  DW_CFA_nop
  DW_CFA_nop
  DW_CFA_nop
  DW_CFA_nop

00006a68 000000000000004c 00006a3c FDE cie=00000030 pc=0000000000464490..00000000004648c9
  DW_CFA_advance_loc: 2 to 0000000000464492
  DW_CFA_def_cfa_offset: 16
  DW_CFA_offset: r15 (r15) at cfa-16
  DW_CFA_advance_loc: 2 to 0000000000464494
  DW_CFA_def_cfa_offset: 24
  DW_CFA_offset: r14 (r14) at cfa-24
  DW_CFA_advance_loc: 9 to 000000000046449d
  DW_CFA_def_cfa_offset: 32
  DW_CFA_offset: r13 (r13) at cfa-32
  DW_CFA_advance_loc: 2 to 000000000046449f
  DW_CFA_def_cfa_offset: 40
  DW_CFA_offset: r12 (r12) at cfa-40
  DW_CFA_advance_loc: 4 to 00000000004644a3
  DW_CFA_def_cfa_offset: 48
  DW_CFA_offset: r6 (rbp) at cfa-48
  DW_CFA_advance_loc: 1 to 00000000004644a4
  DW_CFA_def_cfa_offset: 56
  DW_CFA_offset: r3 (rbx) at cfa-56
  DW_CFA_advance_loc: 10 to 00000000004644ae
  DW_CFA_def_cfa_offset: 96
  DW_CFA_advance_loc1: 235 to 0000000000464599
  DW_CFA_remember_state
  DW_CFA_def_cfa_offset: 56
  DW_CFA_advance_loc: 1 to 000000000046459a
  DW_CFA_def_cfa_offset: 48
  DW_CFA_advance_loc: 1 to 000000000046459b
  DW_CFA_def_cfa_offset: 40
  DW_CFA_advance_loc: 5 to 00000000004645a0
  DW_CFA_def_cfa_offset: 32
  DW_CFA_advance_loc: 2 to 00000000004645a2
  DW_CFA_def_cfa_offset: 24
  DW_CFA_advance_loc: 2 to 00000000004645a4
  DW_CFA_def_cfa_offset: 16
  DW_CFA_advance_loc: 2 to 00000000004645a6
  DW_CFA_def_cfa_offset: 8
  DW_CFA_advance_loc: 10 to 00000000004645b0
  DW_CFA_restore_state
  DW_CFA_nop
  DW_CFA_nop
  DW_CFA_nop
  DW_CFA_nop
  DW_CFA_nop

00006ab8 000000000000002c 00006a8c FDE cie=00000030 pc=00000000004648d0..0000000000464956
  DW_CFA_advance_loc: 18 to 00000000004648e2
  DW_CFA_def_cfa_offset: 16
  DW_CFA_offset: r12 (r12) at cfa-16
  DW_CFA_advance_loc: 1 to 00000000004648e3
  DW_CFA_def_cfa_offset: 24
  DW_CFA_offset: r6 (rbp) at cfa-24
  DW_CFA_advance_loc: 1 to 00000000004648e4
  DW_CFA_def_cfa_offset: 32
  DW_CFA_offset: r3 (rbx) at cfa-32
  DW_CFA_advance_loc: 40 to 000000000046490c
  DW_CFA_remember_state
  DW_CFA_restore: r3 (rbx)
  DW_CFA_def_cfa_offset: 24
  DW_CFA_advance_loc: 1 to 000000000046490d
  DW_CFA_restore: r6 (rbp)
  DW_CFA_def_cfa_offset: 16
  DW_CFA_advance_loc: 2 to 000000000046490f
  DW_CFA_restore: r12 (r12)
  DW_CFA_def_cfa_offset: 8
  DW_CFA_advance_loc: 1 to 0000000000464910
  DW_CFA_restore_state
  DW_CFA_nop

00006ae8 000000000000002c 00006abc FDE cie=00000030 pc=0000000000464960..00000000004649c9
  DW_CFA_advance_loc: 2 to 0000000000464962
  DW_CFA_def_cfa_offset: 16
  DW_CFA_offset: r12 (r12) at cfa-16
  DW_CFA_advance_loc: 1 to 0000000000464963
  DW_CFA_def_cfa_offset: 24
  DW_CFA_offset: r6 (rbp) at cfa-24
  DW_CFA_advance_loc: 1 to 0000000000464964
  DW_CFA_def_cfa_offset: 32
  DW_CFA_offset: r3 (rbx) at cfa-32
  DW_CFA_advance_loc1: 77 to 00000000004649b1
  DW_CFA_remember_state
  DW_CFA_def_cfa_offset: 24
  DW_CFA_advance_loc: 1 to 00000000004649b2
  DW_CFA_def_cfa_offset: 16
  DW_CFA_advance_loc: 2 to 00000000004649b4
  DW_CFA_def_cfa_offset: 8
  DW_CFA_advance_loc: 4 to 00000000004649b8
  DW_CFA_restore_state
  DW_CFA_nop
  DW_CFA_nop
  DW_CFA_nop

00006b18 000000000000001c 00006aec FDE cie=00000030 pc=00000000004649d0..0000000000464a49
  DW_CFA_advance_loc: 8 to 00000000004649d8
  DW_CFA_def_cfa_offset: 16
  DW_CFA_offset: r3 (rbx) at cfa-16
  DW_CFA_advance_loc: 57 to 0000000000464a11
  DW_CFA_remember_state
  DW_CFA_def_cfa_offset: 8
  DW_CFA_advance_loc: 7 to 0000000000464a18
  DW_CFA_restore_state
  DW_CFA_nop
  DW_CFA_nop
  DW_CFA_nop
  DW_CFA_nop

00006b38 000000000000001c 00006b0c FDE cie=00000030 pc=0000000000464a50..0000000000464abd
  DW_CFA_advance_loc: 1 to 0000000000464a51
  DW_CFA_def_cfa_offset: 16
  DW_CFA_offset: r3 (rbx) at cfa-16
  DW_CFA_advance_loc1: 94 to 0000000000464aaf
  DW_CFA_remember_state
  DW_CFA_def_cfa_offset: 8
  DW_CFA_advance_loc: 1 to 0000000000464ab0
  DW_CFA_restore_state
  DW_CFA_nop
  DW_CFA_nop
  DW_CFA_nop

00006b58 000000000000001c 00006b2c FDE cie=00000030 pc=0000000000464ac0..0000000000464b01
  DW_CFA_advance_loc: 1 to 0000000000464ac1
  DW_CFA_def_cfa_offset: 16
  DW_CFA_offset: r3 (rbx) at cfa-16
  DW_CFA_advance_loc: 50 to 0000000000464af3
  DW_CFA_remember_state
  DW_CFA_def_cfa_offset: 8
  DW_CFA_advance_loc: 5 to 0000000000464af8
  DW_CFA_restore_state
  DW_CFA_nop
  DW_CFA_nop
  DW_CFA_nop
  DW_CFA_nop

00006b78 000000000000001c 00006b4c FDE cie=00000030 pc=0000000000464b10..0000000000464b51
  DW_CFA_advance_loc: 8 to 0000000000464b18
  DW_CFA_def_cfa_offset: 16
  DW_CFA_offset: r3 (rbx) at cfa-16
  DW_CFA_advance_loc: 31 to 0000000000464b37
  DW_CFA_remember_state
  DW_CFA_def_cfa_offset: 8
  DW_CFA_advance_loc: 9 to 0000000000464b40
  DW_CFA_restore_state
  DW_CFA_nop
  DW_CFA_nop
  DW_CFA_nop
  DW_CFA_nop

00006b98 0000000000000014 00006b6c FDE cie=00000030 pc=0000000000464b60..0000000000464ba4
  DW_CFA_nop
  DW_CFA_nop
  DW_CFA_nop
  DW_CFA_nop
  DW_CFA_nop
  DW_CFA_nop
  DW_CFA_nop

00006bb0 000000000000002c 00006b84 FDE cie=00000030 pc=0000000000464bb0..0000000000464c75
  DW_CFA_advance_loc: 1 to 0000000000464bb1
  DW_CFA_def_cfa_offset: 16
  DW_CFA_offset: r6 (rbp) at cfa-16
  DW_CFA_advance_loc: 1 to 0000000000464bb2
  DW_CFA_def_cfa_offset: 24
  DW_CFA_offset: r3 (rbx) at cfa-24
  DW_CFA_advance_loc: 10 to 0000000000464bbc
  DW_CFA_def_cfa_offset: 32
  DW_CFA_advance_loc: 53 to 0000000000464bf1
  DW_CFA_remember_state
  DW_CFA_def_cfa_offset: 24
  DW_CFA_advance_loc: 1 to 0000000000464bf2
  DW_CFA_def_cfa_offset: 16
  DW_CFA_advance_loc: 1 to 0000000000464bf3
  DW_CFA_def_cfa_offset: 8
  DW_CFA_advance_loc: 5 to 0000000000464bf8
  DW_CFA_restore_state
  DW_CFA_nop
  DW_CFA_nop
  DW_CFA_nop
  DW_CFA_nop
  DW_CFA_nop
  DW_CFA_nop

00006be0 0000000000000014 00006bb4 FDE cie=00000030 pc=0000000000464c80..0000000000464cc4
  DW_CFA_nop
  DW_CFA_nop
  DW_CFA_nop
  DW_CFA_nop
  DW_CFA_nop
  DW_CFA_nop
  DW_CFA_nop

00006bf8 0000000000000014 00006bcc FDE cie=00000030 pc=0000000000464cd0..0000000000464d8d
  DW_CFA_nop
  DW_CFA_nop
  DW_CFA_nop
  DW_CFA_nop
  DW_CFA_nop
  DW_CFA_nop
  DW_CFA_nop

00006c10 000000000000001c 00006be4 FDE cie=00000030 pc=0000000000464d90..0000000000464e1d
  DW_CFA_advance_loc: 26 to 0000000000464daa
  DW_CFA_def_cfa_offset: 16
  DW_CFA_offset: r3 (rbx) at cfa-16
  DW_CFA_advance_loc1: 94 to 0000000000464e08
  DW_CFA_restore: r3 (rbx)
  DW_CFA_def_cfa_offset: 8
  DW_CFA_advance_loc: 8 to 0000000000464e10
  DW_CFA_def_cfa_offset: 16
  DW_CFA_offset: r3 (rbx) at cfa-16

00006c30 0000000000000014 00006c04 FDE cie=00000030 pc=0000000000464e20..0000000000464e3e
  DW_CFA_nop
  DW_CFA_nop
  DW_CFA_nop
  DW_CFA_nop
  DW_CFA_nop
  DW_CFA_nop
  DW_CFA_nop

00006c48 0000000000000014 00006c1c FDE cie=00000030 pc=0000000000464e40..0000000000464e43
  DW_CFA_nop
  DW_CFA_nop
  DW_CFA_nop
  DW_CFA_nop
  DW_CFA_nop
  DW_CFA_nop
  DW_CFA_nop

00006c60 0000000000000014 00006c34 FDE cie=00000030 pc=0000000000464e50..0000000000464e58
  DW_CFA_nop
  DW_CFA_nop
  DW_CFA_nop
  DW_CFA_nop
  DW_CFA_nop
  DW_CFA_nop
  DW_CFA_nop

00006c78 0000000000000074 00006c4c FDE cie=00000030 pc=0000000000464e60..0000000000464f3b
  DW_CFA_advance_loc: 2 to 0000000000464e62
  DW_CFA_def_cfa_offset: 16
  DW_CFA_offset: r14 (r14) at cfa-16
  DW_CFA_advance_loc: 2 to 0000000000464e64
  DW_CFA_def_cfa_offset: 24
  DW_CFA_offset: r13 (r13) at cfa-24
  DW_CFA_advance_loc: 5 to 0000000000464e69
  DW_CFA_def_cfa_offset: 32
  DW_CFA_offset: r12 (r12) at cfa-32
  DW_CFA_advance_loc: 1 to 0000000000464e6a
  DW_CFA_def_cfa_offset: 40
  DW_CFA_offset: r6 (rbp) at cfa-40
  DW_CFA_advance_loc: 4 to 0000000000464e6e
  DW_CFA_def_cfa_offset: 48
  DW_CFA_offset: r3 (rbx) at cfa-48
  DW_CFA_advance_loc: 7 to 0000000000464e75
  DW_CFA_def_cfa_offset: 64
  DW_CFA_advance_loc: 61 to 0000000000464eb2
  DW_CFA_def_cfa_offset: 72
  DW_CFA_advance_loc: 2 to 0000000000464eb4
  DW_CFA_def_cfa_offset: 80
  DW_CFA_advance_loc: 50 to 0000000000464ee6
  DW_CFA_def_cfa_offset: 72
  DW_CFA_advance_loc: 1 to 0000000000464ee7
  DW_CFA_def_cfa_offset: 64
  DW_CFA_advance_loc: 18 to 0000000000464ef9
  DW_CFA_remember_state
  DW_CFA_def_cfa_offset: 48
  DW_CFA_advance_loc: 6 to 0000000000464eff
  DW_CFA_def_cfa_offset: 40
  DW_CFA_advance_loc: 1 to 0000000000464f00
  DW_CFA_def_cfa_offset: 32
  DW_CFA_advance_loc: 2 to 0000000000464f02
  DW_CFA_def_cfa_offset: 24
  DW_CFA_advance_loc: 2 to 0000000000464f04
  DW_CFA_def_cfa_offset: 16
  DW_CFA_advance_loc: 2 to 0000000000464f06
  DW_CFA_def_cfa_offset: 8
  DW_CFA_advance_loc: 10 to 0000000000464f10
  DW_CFA_restore_state
  DW_CFA_advance_loc: 4 to 0000000000464f14
  DW_CFA_remember_state
  DW_CFA_def_cfa_offset: 48
  DW_CFA_advance_loc: 6 to 0000000000464f1a
  DW_CFA_def_cfa_offset: 40
  DW_CFA_advance_loc: 1 to 0000000000464f1b
  DW_CFA_def_cfa_offset: 32
  DW_CFA_advance_loc: 2 to 0000000000464f1d
  DW_CFA_def_cfa_offset: 24
  DW_CFA_advance_loc: 2 to 0000000000464f1f
  DW_CFA_def_cfa_offset: 16
  DW_CFA_advance_loc: 2 to 0000000000464f21
  DW_CFA_def_cfa_offset: 8
  DW_CFA_advance_loc: 7 to 0000000000464f28
  DW_CFA_restore_state
  DW_CFA_advance_loc: 8 to 0000000000464f30
  DW_CFA_def_cfa_offset: 48
  DW_CFA_advance_loc: 3 to 0000000000464f33
  DW_CFA_def_cfa_offset: 40
  DW_CFA_advance_loc: 1 to 0000000000464f34
  DW_CFA_def_cfa_offset: 32
  DW_CFA_advance_loc: 2 to 0000000000464f36
  DW_CFA_def_cfa_offset: 24
  DW_CFA_advance_loc: 2 to 0000000000464f38
  DW_CFA_def_cfa_offset: 16
  DW_CFA_advance_loc: 2 to 0000000000464f3a
  DW_CFA_def_cfa_offset: 8
  DW_CFA_nop
  DW_CFA_nop
  DW_CFA_nop

00006cf0 0000000000000064 00006cc4 FDE cie=00000030 pc=0000000000464f40..0000000000465001
  DW_CFA_advance_loc: 2 to 0000000000464f42
  DW_CFA_def_cfa_offset: 16
  DW_CFA_offset: r13 (r13) at cfa-16
  DW_CFA_advance_loc: 2 to 0000000000464f44
  DW_CFA_def_cfa_offset: 24
  DW_CFA_offset: r12 (r12) at cfa-24
  DW_CFA_advance_loc: 4 to 0000000000464f48
  DW_CFA_def_cfa_offset: 32
  DW_CFA_offset: r6 (rbp) at cfa-32
  DW_CFA_advance_loc: 1 to 0000000000464f49
  DW_CFA_def_cfa_offset: 40
  DW_CFA_offset: r3 (rbx) at cfa-40
  DW_CFA_advance_loc: 7 to 0000000000464f50
  DW_CFA_def_cfa_offset: 64
  DW_CFA_advance_loc: 63 to 0000000000464f8f
  DW_CFA_def_cfa_offset: 72
  DW_CFA_advance_loc: 2 to 0000000000464f91
  DW_CFA_def_cfa_offset: 80
  DW_CFA_advance_loc: 39 to 0000000000464fb8
  DW_CFA_def_cfa_offset: 72
  DW_CFA_advance_loc: 1 to 0000000000464fb9
  DW_CFA_def_cfa_offset: 64
  DW_CFA_advance_loc: 18 to 0000000000464fcb
  DW_CFA_remember_state
  DW_CFA_def_cfa_offset: 40
  DW_CFA_advance_loc: 6 to 0000000000464fd1
  DW_CFA_def_cfa_offset: 32
  DW_CFA_advance_loc: 1 to 0000000000464fd2
  DW_CFA_def_cfa_offset: 24
  DW_CFA_advance_loc: 2 to 0000000000464fd4
  DW_CFA_def_cfa_offset: 16
  DW_CFA_advance_loc: 2 to 0000000000464fd6
  DW_CFA_def_cfa_offset: 8
  DW_CFA_advance_loc: 10 to 0000000000464fe0
  DW_CFA_restore_state
  DW_CFA_advance_loc: 4 to 0000000000464fe4
  DW_CFA_remember_state
  DW_CFA_def_cfa_offset: 40
  DW_CFA_advance_loc: 6 to 0000000000464fea
  DW_CFA_def_cfa_offset: 32
  DW_CFA_advance_loc: 1 to 0000000000464feb
  DW_CFA_def_cfa_offset: 24
  DW_CFA_advance_loc: 2 to 0000000000464fed
  DW_CFA_def_cfa_offset: 16
  DW_CFA_advance_loc: 2 to 0000000000464fef
  DW_CFA_def_cfa_offset: 8
  DW_CFA_advance_loc: 1 to 0000000000464ff0
  DW_CFA_restore_state
  DW_CFA_advance_loc: 8 to 0000000000464ff8
  DW_CFA_def_cfa_offset: 40
  DW_CFA_advance_loc: 3 to 0000000000464ffb
  DW_CFA_def_cfa_offset: 32
  DW_CFA_advance_loc: 1 to 0000000000464ffc
  DW_CFA_def_cfa_offset: 24
  DW_CFA_advance_loc: 2 to 0000000000464ffe
  DW_CFA_def_cfa_offset: 16
  DW_CFA_advance_loc: 2 to 0000000000465000
  DW_CFA_def_cfa_offset: 8
  DW_CFA_nop

00006d58 0000000000000074 00006d2c FDE cie=00000030 pc=0000000000465010..00000000004650fb
  DW_CFA_advance_loc: 2 to 0000000000465012
  DW_CFA_def_cfa_offset: 16
  DW_CFA_offset: r14 (r14) at cfa-16
  DW_CFA_advance_loc: 2 to 0000000000465014
  DW_CFA_def_cfa_offset: 24
  DW_CFA_offset: r13 (r13) at cfa-24
  DW_CFA_advance_loc: 5 to 0000000000465019
  DW_CFA_def_cfa_offset: 32
  DW_CFA_offset: r12 (r12) at cfa-32
  DW_CFA_advance_loc: 1 to 000000000046501a
  DW_CFA_def_cfa_offset: 40
  DW_CFA_offset: r6 (rbp) at cfa-40
  DW_CFA_advance_loc: 4 to 000000000046501e
  DW_CFA_def_cfa_offset: 48
  DW_CFA_offset: r3 (rbx) at cfa-48
  DW_CFA_advance_loc: 7 to 0000000000465025
  DW_CFA_def_cfa_offset: 64
  DW_CFA_advance_loc1: 73 to 000000000046506e
  DW_CFA_def_cfa_offset: 72
  DW_CFA_advance_loc: 2 to 0000000000465070
  DW_CFA_def_cfa_offset: 80
  DW_CFA_advance_loc: 56 to 00000000004650a8
  DW_CFA_def_cfa_offset: 72
  DW_CFA_advance_loc: 1 to 00000000004650a9
  DW_CFA_def_cfa_offset: 64
  DW_CFA_advance_loc: 18 to 00000000004650bb
  DW_CFA_remember_state
  DW_CFA_def_cfa_offset: 48
  DW_CFA_advance_loc: 6 to 00000000004650c1
  DW_CFA_def_cfa_offset: 40
  DW_CFA_advance_loc: 1 to 00000000004650c2
  DW_CFA_def_cfa_offset: 32
  DW_CFA_advance_loc: 2 to 00000000004650c4
  DW_CFA_def_cfa_offset: 24
  DW_CFA_advance_loc: 2 to 00000000004650c6
  DW_CFA_def_cfa_offset: 16
  DW_CFA_advance_loc: 2 to 00000000004650c8
  DW_CFA_def_cfa_offset: 8
  DW_CFA_advance_loc: 8 to 00000000004650d0
  DW_CFA_restore_state
  DW_CFA_advance_loc: 4 to 00000000004650d4
  DW_CFA_remember_state
  DW_CFA_def_cfa_offset: 48
  DW_CFA_advance_loc: 6 to 00000000004650da
  DW_CFA_def_cfa_offset: 40
  DW_CFA_advance_loc: 1 to 00000000004650db
  DW_CFA_def_cfa_offset: 32
  DW_CFA_advance_loc: 2 to 00000000004650dd
  DW_CFA_def_cfa_offset: 24
  DW_CFA_advance_loc: 2 to 00000000004650df
  DW_CFA_def_cfa_offset: 16
  DW_CFA_advance_loc: 2 to 00000000004650e1
  DW_CFA_def_cfa_offset: 8
  DW_CFA_advance_loc: 7 to 00000000004650e8
  DW_CFA_restore_state
  DW_CFA_advance_loc: 8 to 00000000004650f0
  DW_CFA_def_cfa_offset: 48
  DW_CFA_advance_loc: 3 to 00000000004650f3
  DW_CFA_def_cfa_offset: 40
  DW_CFA_advance_loc: 1 to 00000000004650f4
  DW_CFA_def_cfa_offset: 32
  DW_CFA_advance_loc: 2 to 00000000004650f6
  DW_CFA_def_cfa_offset: 24
  DW_CFA_advance_loc: 2 to 00000000004650f8
  DW_CFA_def_cfa_offset: 16
  DW_CFA_advance_loc: 2 to 00000000004650fa
  DW_CFA_def_cfa_offset: 8
  DW_CFA_nop
  DW_CFA_nop

00006dd0 000000000000002c 00006da4 FDE cie=00000030 pc=0000000000465100..0000000000465191
  DW_CFA_advance_loc: 1 to 0000000000465101
  DW_CFA_def_cfa_offset: 16
  DW_CFA_offset: r6 (rbp) at cfa-16
  DW_CFA_advance_loc: 11 to 000000000046510c
  DW_CFA_def_cfa_register: r6 (rbp)
  DW_CFA_advance_loc: 13 to 0000000000465119
  DW_CFA_offset: r15 (r15) at cfa-24
  DW_CFA_offset: r14 (r14) at cfa-32
  DW_CFA_offset: r13 (r13) at cfa-40
  DW_CFA_offset: r12 (r12) at cfa-48
  DW_CFA_offset: r3 (rbx) at cfa-56
  DW_CFA_advance_loc1: 119 to 0000000000465190
  DW_CFA_def_cfa: r7 (rsp) ofs 8
  DW_CFA_nop
  DW_CFA_nop
  DW_CFA_nop
  DW_CFA_nop
  DW_CFA_nop
  DW_CFA_nop
  DW_CFA_nop

00006e00 000000000000003c 00006dd4 FDE cie=00000030 pc=00000000004651a0..0000000000465376
  DW_CFA_advance_loc: 2 to 00000000004651a2
  DW_CFA_def_cfa_offset: 16
  DW_CFA_offset: r13 (r13) at cfa-16
  DW_CFA_advance_loc: 2 to 00000000004651a4
  DW_CFA_def_cfa_offset: 24
  DW_CFA_offset: r12 (r12) at cfa-24
  DW_CFA_advance_loc: 1 to 00000000004651a5
  DW_CFA_def_cfa_offset: 32
  DW_CFA_offset: r6 (rbp) at cfa-32
  DW_CFA_advance_loc: 1 to 00000000004651a6
  DW_CFA_def_cfa_offset: 40
  DW_CFA_offset: r3 (rbx) at cfa-40
  DW_CFA_advance_loc: 7 to 00000000004651ad
  DW_CFA_def_cfa_offset: 80
  DW_CFA_advance_loc2: 366 to 000000000046531b
  DW_CFA_remember_state
  DW_CFA_def_cfa_offset: 40
  DW_CFA_advance_loc: 1 to 000000000046531c
  DW_CFA_def_cfa_offset: 32
  DW_CFA_advance_loc: 1 to 000000000046531d
  DW_CFA_def_cfa_offset: 24
  DW_CFA_advance_loc: 2 to 000000000046531f
  DW_CFA_def_cfa_offset: 16
  DW_CFA_advance_loc: 2 to 0000000000465321
  DW_CFA_def_cfa_offset: 8
  DW_CFA_advance_loc: 7 to 0000000000465328
  DW_CFA_restore_state
  DW_CFA_nop
  DW_CFA_nop
  DW_CFA_nop
  DW_CFA_nop

00006e40 000000000000003c 00006e14 FDE cie=00000030 pc=0000000000465380..0000000000465422
  DW_CFA_advance_loc: 2 to 0000000000465382
  DW_CFA_def_cfa_offset: 16
  DW_CFA_offset: r14 (r14) at cfa-16
  DW_CFA_advance_loc: 2 to 0000000000465384
  DW_CFA_def_cfa_offset: 24
  DW_CFA_offset: r13 (r13) at cfa-24
  DW_CFA_advance_loc: 6 to 000000000046538a
  DW_CFA_def_cfa_offset: 32
  DW_CFA_offset: r12 (r12) at cfa-32
  DW_CFA_advance_loc: 1 to 000000000046538b
  DW_CFA_def_cfa_offset: 40
  DW_CFA_offset: r6 (rbp) at cfa-40
  DW_CFA_advance_loc: 1 to 000000000046538c
  DW_CFA_def_cfa_offset: 48
  DW_CFA_offset: r3 (rbx) at cfa-48
  DW_CFA_advance_loc: 57 to 00000000004653c5
  DW_CFA_remember_state
  DW_CFA_def_cfa_offset: 40
  DW_CFA_advance_loc: 1 to 00000000004653c6
  DW_CFA_def_cfa_offset: 32
  DW_CFA_advance_loc: 2 to 00000000004653c8
  DW_CFA_def_cfa_offset: 24
  DW_CFA_advance_loc: 2 to 00000000004653ca
  DW_CFA_def_cfa_offset: 16
  DW_CFA_advance_loc: 2 to 00000000004653cc
  DW_CFA_def_cfa_offset: 8
  DW_CFA_advance_loc: 4 to 00000000004653d0
  DW_CFA_restore_state
  DW_CFA_nop
  DW_CFA_nop
  DW_CFA_nop
  DW_CFA_nop

00006e80 0000000000000034 00006e54 FDE cie=00000030 pc=0000000000465430..0000000000465479
  DW_CFA_advance_loc: 1 to 0000000000465431
  DW_CFA_def_cfa_offset: 16
  DW_CFA_offset: r6 (rbp) at cfa-16
  DW_CFA_advance_loc: 1 to 0000000000465432
  DW_CFA_def_cfa_offset: 24
  DW_CFA_offset: r3 (rbx) at cfa-24
  DW_CFA_advance_loc: 7 to 0000000000465439
  DW_CFA_def_cfa_offset: 32
  DW_CFA_advance_loc: 30 to 0000000000465457
  DW_CFA_remember_state
  DW_CFA_def_cfa_offset: 24
  DW_CFA_advance_loc: 10 to 0000000000465461
  DW_CFA_def_cfa_offset: 16
  DW_CFA_advance_loc: 1 to 0000000000465462
  DW_CFA_def_cfa_offset: 8
  DW_CFA_advance_loc: 14 to 0000000000465470
  DW_CFA_restore_state
  DW_CFA_advance_loc: 4 to 0000000000465474
  DW_CFA_def_cfa_offset: 24
  DW_CFA_advance_loc: 3 to 0000000000465477
  DW_CFA_def_cfa_offset: 16
  DW_CFA_advance_loc: 1 to 0000000000465478
  DW_CFA_def_cfa_offset: 8
  DW_CFA_nop
  DW_CFA_nop
  DW_CFA_nop
  DW_CFA_nop
  DW_CFA_nop

00006eb8 0000000000000064 00006e8c FDE cie=00000030 pc=0000000000465480..00000000004655f3
  DW_CFA_advance_loc: 2 to 0000000000465482
  DW_CFA_def_cfa_offset: 16
  DW_CFA_offset: r15 (r15) at cfa-16
  DW_CFA_advance_loc: 2 to 0000000000465484
  DW_CFA_def_cfa_offset: 24
  DW_CFA_offset: r14 (r14) at cfa-24
  DW_CFA_advance_loc: 2 to 0000000000465486
  DW_CFA_def_cfa_offset: 32
  DW_CFA_offset: r13 (r13) at cfa-32
  DW_CFA_advance_loc: 2 to 0000000000465488
  DW_CFA_def_cfa_offset: 40
  DW_CFA_offset: r12 (r12) at cfa-40
  DW_CFA_advance_loc: 4 to 000000000046548c
  DW_CFA_def_cfa_offset: 48
  DW_CFA_offset: r6 (rbp) at cfa-48
  DW_CFA_advance_loc: 1 to 000000000046548d
  DW_CFA_def_cfa_offset: 56
  DW_CFA_offset: r3 (rbx) at cfa-56
  DW_CFA_advance_loc: 10 to 0000000000465497
  DW_CFA_def_cfa_offset: 96
  DW_CFA_advance_loc: 52 to 00000000004654cb
  DW_CFA_remember_state
  DW_CFA_def_cfa_offset: 56
  DW_CFA_advance_loc: 1 to 00000000004654cc
  DW_CFA_def_cfa_offset: 48
  DW_CFA_advance_loc: 1 to 00000000004654cd
  DW_CFA_def_cfa_offset: 40
  DW_CFA_advance_loc: 2 to 00000000004654cf
  DW_CFA_def_cfa_offset: 32
  DW_CFA_advance_loc: 2 to 00000000004654d1
  DW_CFA_def_cfa_offset: 24
  DW_CFA_advance_loc: 2 to 00000000004654d3
  DW_CFA_def_cfa_offset: 16
  DW_CFA_advance_loc: 2 to 00000000004654d5
  DW_CFA_def_cfa_offset: 8
  DW_CFA_advance_loc: 11 to 00000000004654e0
  DW_CFA_restore_state
  DW_CFA_advance_loc1: 128 to 0000000000465560
  DW_CFA_remember_state
  DW_CFA_def_cfa_offset: 56
  DW_CFA_advance_loc: 4 to 0000000000465564
  DW_CFA_def_cfa_offset: 48
  DW_CFA_advance_loc: 1 to 0000000000465565
  DW_CFA_def_cfa_offset: 40
  DW_CFA_advance_loc: 2 to 0000000000465567
  DW_CFA_def_cfa_offset: 32
  DW_CFA_advance_loc: 2 to 0000000000465569
  DW_CFA_def_cfa_offset: 24
  DW_CFA_advance_loc: 2 to 000000000046556b
  DW_CFA_def_cfa_offset: 16
  DW_CFA_advance_loc: 2 to 000000000046556d
  DW_CFA_def_cfa_offset: 8
  DW_CFA_advance_loc: 3 to 0000000000465570
  DW_CFA_restore_state
  DW_CFA_nop
  DW_CFA_nop
  DW_CFA_nop
  DW_CFA_nop
  DW_CFA_nop

00006f20 0000000000000014 00006ef4 FDE cie=00000030 pc=0000000000465600..0000000000465818
  DW_CFA_nop
  DW_CFA_nop
  DW_CFA_nop
  DW_CFA_nop
  DW_CFA_nop
  DW_CFA_nop
  DW_CFA_nop

00006f38 0000000000000014 00006f0c FDE cie=00000030 pc=0000000000465820..0000000000465b02
  DW_CFA_nop
  DW_CFA_nop
  DW_CFA_nop
  DW_CFA_nop
  DW_CFA_nop
  DW_CFA_nop
  DW_CFA_nop

00006f50 000000000000004c 00006f24 FDE cie=00000030 pc=0000000000465b10..0000000000465f3c
  DW_CFA_advance_loc: 2 to 0000000000465b12
  DW_CFA_def_cfa_offset: 16
  DW_CFA_offset: r15 (r15) at cfa-16
  DW_CFA_advance_loc: 2 to 0000000000465b14
  DW_CFA_def_cfa_offset: 24
  DW_CFA_offset: r14 (r14) at cfa-24
  DW_CFA_advance_loc: 5 to 0000000000465b19
  DW_CFA_def_cfa_offset: 32
  DW_CFA_offset: r13 (r13) at cfa-32
  DW_CFA_advance_loc: 2 to 0000000000465b1b
  DW_CFA_def_cfa_offset: 40
  DW_CFA_offset: r12 (r12) at cfa-40
  DW_CFA_advance_loc: 4 to 0000000000465b1f
  DW_CFA_def_cfa_offset: 48
  DW_CFA_offset: r6 (rbp) at cfa-48
  DW_CFA_advance_loc: 1 to 0000000000465b20
  DW_CFA_def_cfa_offset: 56
  DW_CFA_offset: r3 (rbx) at cfa-56
  DW_CFA_advance_loc: 23 to 0000000000465b37
  DW_CFA_def_cfa_offset: 2144
  DW_CFA_advance_loc2: 586 to 0000000000465d81
  DW_CFA_remember_state
  DW_CFA_def_cfa_offset: 56
  DW_CFA_advance_loc: 1 to 0000000000465d82
  DW_CFA_def_cfa_offset: 48
  DW_CFA_advance_loc: 1 to 0000000000465d83
  DW_CFA_def_cfa_offset: 40
  DW_CFA_advance_loc: 2 to 0000000000465d85
  DW_CFA_def_cfa_offset: 32
  DW_CFA_advance_loc: 2 to 0000000000465d87
  DW_CFA_def_cfa_offset: 24
  DW_CFA_advance_loc: 2 to 0000000000465d89
  DW_CFA_def_cfa_offset: 16
  DW_CFA_advance_loc: 2 to 0000000000465d8b
  DW_CFA_def_cfa_offset: 8
  DW_CFA_advance_loc: 5 to 0000000000465d90
  DW_CFA_restore_state
  DW_CFA_nop
  DW_CFA_nop
  DW_CFA_nop

00006fa0 00000000000000bc 00006f74 FDE cie=00000030 pc=0000000000465f40..000000000046632e
  DW_CFA_advance_loc: 30 to 0000000000465f5e
  DW_CFA_def_cfa_offset: 16
  DW_CFA_offset: r15 (r15) at cfa-16
  DW_CFA_advance_loc: 2 to 0000000000465f60
  DW_CFA_def_cfa_offset: 24
  DW_CFA_offset: r14 (r14) at cfa-24
  DW_CFA_advance_loc: 2 to 0000000000465f62
  DW_CFA_def_cfa_offset: 32
  DW_CFA_offset: r13 (r13) at cfa-32
  DW_CFA_advance_loc: 2 to 0000000000465f64
  DW_CFA_def_cfa_offset: 40
  DW_CFA_offset: r12 (r12) at cfa-40
  DW_CFA_advance_loc: 4 to 0000000000465f68
  DW_CFA_def_cfa_offset: 48
  DW_CFA_offset: r6 (rbp) at cfa-48
  DW_CFA_advance_loc: 1 to 0000000000465f69
  DW_CFA_def_cfa_offset: 56
  DW_CFA_offset: r3 (rbx) at cfa-56
  DW_CFA_advance_loc: 10 to 0000000000465f73
  DW_CFA_def_cfa_offset: 96
  DW_CFA_advance_loc2: 496 to 0000000000466163
  DW_CFA_remember_state
  DW_CFA_def_cfa_offset: 56
  DW_CFA_advance_loc: 1 to 0000000000466164
  DW_CFA_restore: r3 (rbx)
  DW_CFA_def_cfa_offset: 48
  DW_CFA_advance_loc: 1 to 0000000000466165
  DW_CFA_restore: r6 (rbp)
  DW_CFA_def_cfa_offset: 40
  DW_CFA_advance_loc: 2 to 0000000000466167
  DW_CFA_restore: r12 (r12)
  DW_CFA_def_cfa_offset: 32
  DW_CFA_advance_loc: 2 to 0000000000466169
  DW_CFA_restore: r13 (r13)
  DW_CFA_def_cfa_offset: 24
  DW_CFA_advance_loc: 2 to 000000000046616b
  DW_CFA_restore: r14 (r14)
  DW_CFA_def_cfa_offset: 16
  DW_CFA_advance_loc: 2 to 000000000046616d
  DW_CFA_restore: r15 (r15)
  DW_CFA_def_cfa_offset: 8
  DW_CFA_advance_loc: 3 to 0000000000466170
  DW_CFA_restore_state
  DW_CFA_advance_loc1: 64 to 00000000004661b0
  DW_CFA_def_cfa_offset: 8
  DW_CFA_restore: r3 (rbx)
  DW_CFA_restore: r6 (rbp)
  DW_CFA_restore: r12 (r12)
  DW_CFA_restore: r13 (r13)
  DW_CFA_restore: r14 (r14)
  DW_CFA_restore: r15 (r15)
  DW_CFA_advance_loc: 8 to 00000000004661b8
  DW_CFA_def_cfa_offset: 96
  DW_CFA_offset: r3 (rbx) at cfa-56
  DW_CFA_offset: r6 (rbp) at cfa-48
  DW_CFA_offset: r12 (r12) at cfa-40
  DW_CFA_offset: r13 (r13) at cfa-32
  DW_CFA_offset: r14 (r14) at cfa-24
  DW_CFA_offset: r15 (r15) at cfa-16
  DW_CFA_advance_loc: 42 to 00000000004661e2
  DW_CFA_def_cfa_offset: 8
  DW_CFA_restore: r3 (rbx)
  DW_CFA_restore: r6 (rbp)
  DW_CFA_restore: r12 (r12)
  DW_CFA_restore: r13 (r13)
  DW_CFA_restore: r14 (r14)
  DW_CFA_restore: r15 (r15)
  DW_CFA_advance_loc: 5 to 00000000004661e7
  DW_CFA_def_cfa_offset: 96
  DW_CFA_offset: r3 (rbx) at cfa-56
  DW_CFA_offset: r6 (rbp) at cfa-48
  DW_CFA_offset: r12 (r12) at cfa-40
  DW_CFA_offset: r13 (r13) at cfa-32
  DW_CFA_offset: r14 (r14) at cfa-24
  DW_CFA_offset: r15 (r15) at cfa-16
  DW_CFA_advance_loc1: 209 to 00000000004662b8
  DW_CFA_remember_state
  DW_CFA_def_cfa_offset: 56
  DW_CFA_advance_loc: 4 to 00000000004662bc
  DW_CFA_restore: r3 (rbx)
  DW_CFA_def_cfa_offset: 48
  DW_CFA_advance_loc: 1 to 00000000004662bd
  DW_CFA_restore: r6 (rbp)
  DW_CFA_def_cfa_offset: 40
  DW_CFA_advance_loc: 2 to 00000000004662bf
  DW_CFA_restore: r12 (r12)
  DW_CFA_def_cfa_offset: 32
  DW_CFA_advance_loc: 2 to 00000000004662c1
  DW_CFA_restore: r13 (r13)
  DW_CFA_def_cfa_offset: 24
  DW_CFA_advance_loc: 2 to 00000000004662c3
  DW_CFA_restore: r14 (r14)
  DW_CFA_def_cfa_offset: 16
  DW_CFA_advance_loc: 2 to 00000000004662c5
  DW_CFA_restore: r15 (r15)
  DW_CFA_def_cfa_offset: 8
  DW_CFA_advance_loc: 11 to 00000000004662d0
  DW_CFA_restore_state
  DW_CFA_advance_loc1: 81 to 0000000000466321
  DW_CFA_def_cfa_offset: 8
  DW_CFA_restore: r3 (rbx)
  DW_CFA_restore: r6 (rbp)
  DW_CFA_restore: r12 (r12)
  DW_CFA_restore: r13 (r13)
  DW_CFA_restore: r14 (r14)
  DW_CFA_restore: r15 (r15)
  DW_CFA_advance_loc: 3 to 0000000000466324
  DW_CFA_def_cfa_offset: 96
  DW_CFA_offset: r3 (rbx) at cfa-56
  DW_CFA_offset: r6 (rbp) at cfa-48
  DW_CFA_offset: r12 (r12) at cfa-40
  DW_CFA_offset: r13 (r13) at cfa-32
  DW_CFA_offset: r14 (r14) at cfa-24
  DW_CFA_offset: r15 (r15) at cfa-16
  DW_CFA_nop
  DW_CFA_nop
  DW_CFA_nop
  DW_CFA_nop
  DW_CFA_nop

00007060 000000000000004c 00007034 FDE cie=00000030 pc=0000000000466330..00000000004663fb
  DW_CFA_advance_loc: 2 to 0000000000466332
  DW_CFA_def_cfa_offset: 16
  DW_CFA_offset: r14 (r14) at cfa-16
  DW_CFA_advance_loc: 2 to 0000000000466334
  DW_CFA_def_cfa_offset: 24
  DW_CFA_offset: r13 (r13) at cfa-24
  DW_CFA_advance_loc: 5 to 0000000000466339
  DW_CFA_def_cfa_offset: 32
  DW_CFA_offset: r12 (r12) at cfa-32
  DW_CFA_advance_loc: 1 to 000000000046633a
  DW_CFA_def_cfa_offset: 40
  DW_CFA_offset: r6 (rbp) at cfa-40
  DW_CFA_advance_loc: 4 to 000000000046633e
  DW_CFA_def_cfa_offset: 48
  DW_CFA_offset: r3 (rbx) at cfa-48
  DW_CFA_advance_loc1: 139 to 00000000004663c9
  DW_CFA_remember_state
  DW_CFA_def_cfa_offset: 40
  DW_CFA_advance_loc: 1 to 00000000004663ca
  DW_CFA_def_cfa_offset: 32
  DW_CFA_advance_loc: 2 to 00000000004663cc
  DW_CFA_def_cfa_offset: 24
  DW_CFA_advance_loc: 2 to 00000000004663ce
  DW_CFA_def_cfa_offset: 16
  DW_CFA_advance_loc: 2 to 00000000004663d0
  DW_CFA_def_cfa_offset: 8
  DW_CFA_advance_loc: 8 to 00000000004663d8
  DW_CFA_restore_state
  DW_CFA_advance_loc: 27 to 00000000004663f3
  DW_CFA_def_cfa_offset: 40
  DW_CFA_advance_loc: 1 to 00000000004663f4
  DW_CFA_def_cfa_offset: 32
  DW_CFA_advance_loc: 2 to 00000000004663f6
  DW_CFA_def_cfa_offset: 24
  DW_CFA_advance_loc: 2 to 00000000004663f8
  DW_CFA_def_cfa_offset: 16
  DW_CFA_advance_loc: 2 to 00000000004663fa
  DW_CFA_def_cfa_offset: 8
  DW_CFA_nop
  DW_CFA_nop
  DW_CFA_nop
  DW_CFA_nop

000070b0 000000000000003c 00007084 FDE cie=00000030 pc=0000000000466400..00000000004664a6
  DW_CFA_advance_loc: 2 to 0000000000466402
  DW_CFA_def_cfa_offset: 16
  DW_CFA_offset: r14 (r14) at cfa-16
  DW_CFA_advance_loc: 2 to 0000000000466404
  DW_CFA_def_cfa_offset: 24
  DW_CFA_offset: r13 (r13) at cfa-24
  DW_CFA_advance_loc: 5 to 0000000000466409
  DW_CFA_def_cfa_offset: 32
  DW_CFA_offset: r12 (r12) at cfa-32
  DW_CFA_advance_loc: 1 to 000000000046640a
  DW_CFA_def_cfa_offset: 40
  DW_CFA_offset: r6 (rbp) at cfa-40
  DW_CFA_advance_loc: 4 to 000000000046640e
  DW_CFA_def_cfa_offset: 48
  DW_CFA_offset: r3 (rbx) at cfa-48
  DW_CFA_advance_loc1: 137 to 0000000000466497
  DW_CFA_remember_state
  DW_CFA_def_cfa_offset: 40
  DW_CFA_advance_loc: 1 to 0000000000466498
  DW_CFA_def_cfa_offset: 32
  DW_CFA_advance_loc: 2 to 000000000046649a
  DW_CFA_def_cfa_offset: 24
  DW_CFA_advance_loc: 2 to 000000000046649c
  DW_CFA_def_cfa_offset: 16
  DW_CFA_advance_loc: 2 to 000000000046649e
  DW_CFA_def_cfa_offset: 8
  DW_CFA_advance_loc: 2 to 00000000004664a0
  DW_CFA_restore_state
  DW_CFA_nop
  DW_CFA_nop
  DW_CFA_nop

000070f0 0000000000000014 000070c4 FDE cie=00000030 pc=00000000004664b0..0000000000466748
  DW_CFA_nop
  DW_CFA_nop
  DW_CFA_nop
  DW_CFA_nop
  DW_CFA_nop
  DW_CFA_nop
  DW_CFA_nop

00007108 0000000000000014 000070dc FDE cie=00000030 pc=0000000000466750..0000000000466759
  DW_CFA_nop
  DW_CFA_nop
  DW_CFA_nop
  DW_CFA_nop
  DW_CFA_nop
  DW_CFA_nop
  DW_CFA_nop

00007120 0000000000000014 000070f4 FDE cie=00000030 pc=0000000000466760..0000000000466769
  DW_CFA_nop
  DW_CFA_nop
  DW_CFA_nop
  DW_CFA_nop
  DW_CFA_nop
  DW_CFA_nop
  DW_CFA_nop

00007138 0000000000000014 0000710c FDE cie=00000030 pc=0000000000466770..00000000004667e2
  DW_CFA_nop
  DW_CFA_nop
  DW_CFA_nop
  DW_CFA_nop
  DW_CFA_nop
  DW_CFA_nop
  DW_CFA_nop

00007150 000000000000004c 00007124 FDE cie=00000030 pc=00000000004667f0..0000000000466964
  DW_CFA_advance_loc: 30 to 000000000046680e
  DW_CFA_def_cfa_offset: 16
  DW_CFA_offset: r12 (r12) at cfa-16
  DW_CFA_advance_loc: 1 to 000000000046680f
  DW_CFA_def_cfa_offset: 24
  DW_CFA_offset: r6 (rbp) at cfa-24
  DW_CFA_advance_loc: 1 to 0000000000466810
  DW_CFA_def_cfa_offset: 32
  DW_CFA_offset: r3 (rbx) at cfa-32
  DW_CFA_advance_loc: 6 to 0000000000466816
  DW_CFA_def_cfa_offset: 112
  DW_CFA_advance_loc1: 89 to 000000000046686f
  DW_CFA_def_cfa_offset: 32
  DW_CFA_advance_loc: 1 to 0000000000466870
  DW_CFA_restore: r3 (rbx)
  DW_CFA_def_cfa_offset: 24
  DW_CFA_advance_loc: 1 to 0000000000466871
  DW_CFA_restore: r6 (rbp)
  DW_CFA_def_cfa_offset: 16
  DW_CFA_advance_loc: 2 to 0000000000466873
  DW_CFA_restore: r12 (r12)
  DW_CFA_def_cfa_offset: 8
  DW_CFA_advance_loc: 13 to 0000000000466880
  DW_CFA_def_cfa_offset: 112
  DW_CFA_offset: r3 (rbx) at cfa-32
  DW_CFA_offset: r6 (rbp) at cfa-24
  DW_CFA_offset: r12 (r12) at cfa-16
  DW_CFA_advance_loc1: 119 to 00000000004668f7
  DW_CFA_def_cfa_offset: 120
  DW_CFA_advance_loc: 5 to 00000000004668fc
  DW_CFA_def_cfa_offset: 128
  DW_CFA_advance_loc: 31 to 000000000046691b
  DW_CFA_def_cfa_offset: 120
  DW_CFA_advance_loc: 4 to 000000000046691f
  DW_CFA_def_cfa_offset: 112
  DW_CFA_nop
  DW_CFA_nop
  DW_CFA_nop
  DW_CFA_nop
  DW_CFA_nop
  DW_CFA_nop

000071a0 0000000000000064 00007174 FDE cie=00000030 pc=0000000000466970..0000000000466b52
  DW_CFA_advance_loc: 2 to 0000000000466972
  DW_CFA_def_cfa_offset: 16
  DW_CFA_offset: r12 (r12) at cfa-16
  DW_CFA_advance_loc: 1 to 0000000000466973
  DW_CFA_def_cfa_offset: 24
  DW_CFA_offset: r6 (rbp) at cfa-24
  DW_CFA_advance_loc: 6 to 0000000000466979
  DW_CFA_def_cfa_offset: 32
  DW_CFA_offset: r3 (rbx) at cfa-32
  DW_CFA_advance_loc: 7 to 0000000000466980
  DW_CFA_def_cfa_offset: 128
  DW_CFA_advance_loc1: 155 to 0000000000466a1b
  DW_CFA_def_cfa_offset: 136
  DW_CFA_advance_loc: 5 to 0000000000466a20
  DW_CFA_def_cfa_offset: 144
  DW_CFA_advance_loc: 22 to 0000000000466a36
  DW_CFA_def_cfa_offset: 136
  DW_CFA_advance_loc: 1 to 0000000000466a37
  DW_CFA_def_cfa_offset: 128
  DW_CFA_advance_loc1: 84 to 0000000000466a8b
  DW_CFA_remember_state
  DW_CFA_def_cfa_offset: 32
  DW_CFA_advance_loc: 8 to 0000000000466a93
  DW_CFA_def_cfa_offset: 24
  DW_CFA_advance_loc: 1 to 0000000000466a94
  DW_CFA_def_cfa_offset: 16
  DW_CFA_advance_loc: 2 to 0000000000466a96
  DW_CFA_def_cfa_offset: 8
  DW_CFA_advance_loc: 10 to 0000000000466aa0
  DW_CFA_restore_state
  DW_CFA_advance_loc: 33 to 0000000000466ac1
  DW_CFA_def_cfa_offset: 136
  DW_CFA_advance_loc: 2 to 0000000000466ac3
  DW_CFA_def_cfa_offset: 144
  DW_CFA_advance_loc: 22 to 0000000000466ad9
  DW_CFA_def_cfa_offset: 136
  DW_CFA_advance_loc: 1 to 0000000000466ada
  DW_CFA_def_cfa_offset: 128
  DW_CFA_advance_loc: 47 to 0000000000466b09
  DW_CFA_remember_state
  DW_CFA_def_cfa_offset: 32
  DW_CFA_advance_loc: 1 to 0000000000466b0a
  DW_CFA_def_cfa_offset: 24
  DW_CFA_advance_loc: 4 to 0000000000466b0e
  DW_CFA_def_cfa_offset: 16
  DW_CFA_advance_loc: 2 to 0000000000466b10
  DW_CFA_def_cfa_offset: 8
  DW_CFA_advance_loc: 8 to 0000000000466b18
  DW_CFA_restore_state
  DW_CFA_nop
  DW_CFA_nop
  DW_CFA_nop
  DW_CFA_nop

00007208 0000000000000014 000071dc FDE cie=00000030 pc=0000000000466b60..0000000000466b7c
  DW_CFA_nop
  DW_CFA_nop
  DW_CFA_nop
  DW_CFA_nop
  DW_CFA_nop
  DW_CFA_nop
  DW_CFA_nop

00007220 000000000000006c 000071f4 FDE cie=00000030 pc=0000000000466b80..0000000000466dfe
  DW_CFA_advance_loc: 2 to 0000000000466b82
  DW_CFA_def_cfa_offset: 16
  DW_CFA_offset: r15 (r15) at cfa-16
  DW_CFA_advance_loc: 2 to 0000000000466b84
  DW_CFA_def_cfa_offset: 24
  DW_CFA_offset: r14 (r14) at cfa-24
  DW_CFA_advance_loc: 7 to 0000000000466b8b
  DW_CFA_def_cfa_offset: 32
  DW_CFA_offset: r13 (r13) at cfa-32
  DW_CFA_advance_loc: 2 to 0000000000466b8d
  DW_CFA_def_cfa_offset: 40
  DW_CFA_offset: r12 (r12) at cfa-40
  DW_CFA_advance_loc: 4 to 0000000000466b91
  DW_CFA_def_cfa_offset: 48
  DW_CFA_offset: r6 (rbp) at cfa-48
  DW_CFA_advance_loc: 1 to 0000000000466b92
  DW_CFA_def_cfa_offset: 56
  DW_CFA_offset: r3 (rbx) at cfa-56
  DW_CFA_advance_loc: 13 to 0000000000466b9f
  DW_CFA_def_cfa_offset: 400
  DW_CFA_advance_loc1: 144 to 0000000000466c2f
  DW_CFA_def_cfa_offset: 408
  DW_CFA_advance_loc: 2 to 0000000000466c31
  DW_CFA_def_cfa_offset: 416
  DW_CFA_advance_loc: 30 to 0000000000466c4f
  DW_CFA_def_cfa_offset: 408
  DW_CFA_advance_loc: 1 to 0000000000466c50
  DW_CFA_def_cfa_offset: 400
  DW_CFA_advance_loc1: 76 to 0000000000466c9c
  DW_CFA_remember_state
  DW_CFA_def_cfa_offset: 56
  DW_CFA_advance_loc: 4 to 0000000000466ca0
  DW_CFA_def_cfa_offset: 48
  DW_CFA_advance_loc: 1 to 0000000000466ca1
  DW_CFA_def_cfa_offset: 40
  DW_CFA_advance_loc: 2 to 0000000000466ca3
  DW_CFA_def_cfa_offset: 32
  DW_CFA_advance_loc: 2 to 0000000000466ca5
  DW_CFA_def_cfa_offset: 24
  DW_CFA_advance_loc: 2 to 0000000000466ca7
  DW_CFA_def_cfa_offset: 16
  DW_CFA_advance_loc: 2 to 0000000000466ca9
  DW_CFA_def_cfa_offset: 8
  DW_CFA_advance_loc: 7 to 0000000000466cb0
  DW_CFA_restore_state
  DW_CFA_advance_loc1: 127 to 0000000000466d2f
  DW_CFA_def_cfa_offset: 408
  DW_CFA_advance_loc: 2 to 0000000000466d31
  DW_CFA_def_cfa_offset: 416
  DW_CFA_advance_loc: 32 to 0000000000466d51
  DW_CFA_def_cfa_offset: 408
  DW_CFA_advance_loc: 2 to 0000000000466d53
  DW_CFA_def_cfa_offset: 400
  DW_CFA_nop
  DW_CFA_nop

00007290 0000000000000014 00007264 FDE cie=00000030 pc=0000000000466e00..0000000000466e99
  DW_CFA_nop
  DW_CFA_nop
  DW_CFA_nop
  DW_CFA_nop
  DW_CFA_nop
  DW_CFA_nop
  DW_CFA_nop

000072a8 0000000000000014 0000727c FDE cie=00000030 pc=0000000000466ea0..0000000000466ec0
  DW_CFA_nop
  DW_CFA_nop
  DW_CFA_nop
  DW_CFA_nop
  DW_CFA_nop
  DW_CFA_nop
  DW_CFA_nop

000072c0 000000000000006c 00007294 FDE cie=00000030 pc=0000000000466ec0..00000000004671ed
  DW_CFA_advance_loc: 2 to 0000000000466ec2
  DW_CFA_def_cfa_offset: 16
  DW_CFA_offset: r15 (r15) at cfa-16
  DW_CFA_advance_loc: 2 to 0000000000466ec4
  DW_CFA_def_cfa_offset: 24
  DW_CFA_offset: r14 (r14) at cfa-24
  DW_CFA_advance_loc: 2 to 0000000000466ec6
  DW_CFA_def_cfa_offset: 32
  DW_CFA_offset: r13 (r13) at cfa-32
  DW_CFA_advance_loc: 2 to 0000000000466ec8
  DW_CFA_def_cfa_offset: 40
  DW_CFA_offset: r12 (r12) at cfa-40
  DW_CFA_advance_loc: 1 to 0000000000466ec9
  DW_CFA_def_cfa_offset: 48
  DW_CFA_offset: r6 (rbp) at cfa-48
  DW_CFA_advance_loc: 1 to 0000000000466eca
  DW_CFA_def_cfa_offset: 56
  DW_CFA_offset: r3 (rbx) at cfa-56
  DW_CFA_advance_loc: 7 to 0000000000466ed1
  DW_CFA_def_cfa_offset: 432
  DW_CFA_advance_loc1: 213 to 0000000000466fa6
  DW_CFA_def_cfa_offset: 440
  DW_CFA_advance_loc: 5 to 0000000000466fab
  DW_CFA_def_cfa_offset: 448
  DW_CFA_advance_loc: 21 to 0000000000466fc0
  DW_CFA_def_cfa_offset: 440
  DW_CFA_advance_loc: 1 to 0000000000466fc1
  DW_CFA_def_cfa_offset: 432
  DW_CFA_advance_loc1: 175 to 0000000000467070
  DW_CFA_remember_state
  DW_CFA_def_cfa_offset: 56
  DW_CFA_advance_loc: 4 to 0000000000467074
  DW_CFA_def_cfa_offset: 48
  DW_CFA_advance_loc: 1 to 0000000000467075
  DW_CFA_def_cfa_offset: 40
  DW_CFA_advance_loc: 2 to 0000000000467077
  DW_CFA_def_cfa_offset: 32
  DW_CFA_advance_loc: 2 to 0000000000467079
  DW_CFA_def_cfa_offset: 24
  DW_CFA_advance_loc: 2 to 000000000046707b
  DW_CFA_def_cfa_offset: 16
  DW_CFA_advance_loc: 2 to 000000000046707d
  DW_CFA_def_cfa_offset: 8
  DW_CFA_advance_loc: 3 to 0000000000467080
  DW_CFA_restore_state
  DW_CFA_advance_loc1: 159 to 000000000046711f
  DW_CFA_def_cfa_offset: 440
  DW_CFA_advance_loc: 2 to 0000000000467121
  DW_CFA_def_cfa_offset: 448
  DW_CFA_advance_loc: 31 to 0000000000467140
  DW_CFA_def_cfa_offset: 440
  DW_CFA_advance_loc: 2 to 0000000000467142
  DW_CFA_def_cfa_offset: 432
  DW_CFA_nop
  DW_CFA_nop

00007330 0000000000000014 00007304 FDE cie=00000030 pc=00000000004671f0..00000000004671f8
  DW_CFA_nop
  DW_CFA_nop
  DW_CFA_nop
  DW_CFA_nop
  DW_CFA_nop
  DW_CFA_nop
  DW_CFA_nop

00007348 0000000000000014 0000731c FDE cie=00000030 pc=0000000000467200..000000000046722a
  DW_CFA_nop
  DW_CFA_nop
  DW_CFA_nop
  DW_CFA_nop
  DW_CFA_nop
  DW_CFA_nop
  DW_CFA_nop

00007360 0000000000000034 00007334 FDE cie=00000030 pc=0000000000467230..00000000004674f6
  DW_CFA_advance_loc: 5 to 0000000000467235
  DW_CFA_def_cfa_offset: 16
  DW_CFA_offset: r13 (r13) at cfa-16
  DW_CFA_advance_loc: 2 to 0000000000467237
  DW_CFA_def_cfa_offset: 24
  DW_CFA_offset: r12 (r12) at cfa-24
  DW_CFA_advance_loc: 1 to 0000000000467238
  DW_CFA_def_cfa_offset: 32
  DW_CFA_offset: r6 (rbp) at cfa-32
  DW_CFA_advance_loc: 1 to 0000000000467239
  DW_CFA_def_cfa_offset: 40
  DW_CFA_offset: r3 (rbx) at cfa-40
  DW_CFA_advance_loc2: 552 to 0000000000467461
  DW_CFA_remember_state
  DW_CFA_def_cfa_offset: 32
  DW_CFA_advance_loc: 1 to 0000000000467462
  DW_CFA_def_cfa_offset: 24
  DW_CFA_advance_loc: 2 to 0000000000467464
  DW_CFA_def_cfa_offset: 16
  DW_CFA_advance_loc: 2 to 0000000000467466
  DW_CFA_def_cfa_offset: 8
  DW_CFA_advance_loc: 10 to 0000000000467470
  DW_CFA_restore_state
  DW_CFA_nop
  DW_CFA_nop

00007398 0000000000000064 0000736c FDE cie=00000030 pc=0000000000467500..00000000004676a0
  DW_CFA_advance_loc: 2 to 0000000000467502
  DW_CFA_def_cfa_offset: 16
  DW_CFA_offset: r15 (r15) at cfa-16
  DW_CFA_advance_loc: 2 to 0000000000467504
  DW_CFA_def_cfa_offset: 24
  DW_CFA_offset: r14 (r14) at cfa-24
  DW_CFA_advance_loc: 2 to 0000000000467506
  DW_CFA_def_cfa_offset: 32
  DW_CFA_offset: r13 (r13) at cfa-32
  DW_CFA_advance_loc: 2 to 0000000000467508
  DW_CFA_def_cfa_offset: 40
  DW_CFA_offset: r12 (r12) at cfa-40
  DW_CFA_advance_loc: 1 to 0000000000467509
  DW_CFA_def_cfa_offset: 48
  DW_CFA_offset: r6 (rbp) at cfa-48
  DW_CFA_advance_loc: 1 to 000000000046750a
  DW_CFA_def_cfa_offset: 56
  DW_CFA_offset: r3 (rbx) at cfa-56
  DW_CFA_advance_loc: 4 to 000000000046750e
  DW_CFA_def_cfa_offset: 80
  DW_CFA_advance_loc1: 64 to 000000000046754e
  DW_CFA_remember_state
  DW_CFA_def_cfa_offset: 56
  DW_CFA_advance_loc: 3 to 0000000000467551
  DW_CFA_def_cfa_offset: 48
  DW_CFA_advance_loc: 1 to 0000000000467552
  DW_CFA_def_cfa_offset: 40
  DW_CFA_advance_loc: 2 to 0000000000467554
  DW_CFA_def_cfa_offset: 32
  DW_CFA_advance_loc: 2 to 0000000000467556
  DW_CFA_def_cfa_offset: 24
  DW_CFA_advance_loc: 2 to 0000000000467558
  DW_CFA_def_cfa_offset: 16
  DW_CFA_advance_loc: 2 to 000000000046755a
  DW_CFA_def_cfa_offset: 8
  DW_CFA_advance_loc: 6 to 0000000000467560
  DW_CFA_restore_state
  DW_CFA_advance_loc1: 238 to 000000000046764e
  DW_CFA_remember_state
  DW_CFA_def_cfa_offset: 56
  DW_CFA_advance_loc: 1 to 000000000046764f
  DW_CFA_def_cfa_offset: 48
  DW_CFA_advance_loc: 6 to 0000000000467655
  DW_CFA_def_cfa_offset: 40
  DW_CFA_advance_loc: 2 to 0000000000467657
  DW_CFA_def_cfa_offset: 32
  DW_CFA_advance_loc: 2 to 0000000000467659
  DW_CFA_def_cfa_offset: 24
  DW_CFA_advance_loc: 2 to 000000000046765b
  DW_CFA_def_cfa_offset: 16
  DW_CFA_advance_loc: 2 to 000000000046765d
  DW_CFA_def_cfa_offset: 8
  DW_CFA_advance_loc: 1 to 000000000046765e
  DW_CFA_restore_state
  DW_CFA_nop
  DW_CFA_nop
  DW_CFA_nop
  DW_CFA_nop

00007400 000000000000001c 000073d4 FDE cie=00000030 pc=00000000004a08f0..00000000004a0930
  DW_CFA_advance_loc: 8 to 00000000004a08f8
  DW_CFA_def_cfa_offset: 16
  DW_CFA_offset: r3 (rbx) at cfa-16
  DW_CFA_advance_loc: 55 to 00000000004a092f
  DW_CFA_def_cfa_offset: 8
  DW_CFA_nop
  DW_CFA_nop
  DW_CFA_nop
  DW_CFA_nop
  DW_CFA_nop
  DW_CFA_nop
  DW_CFA_nop

00007420 000000000000005c 000073f4 FDE cie=00000030 pc=00000000004676a0..00000000004679a4
  DW_CFA_advance_loc: 2 to 00000000004676a2
  DW_CFA_def_cfa_offset: 16
  DW_CFA_offset: r13 (r13) at cfa-16
  DW_CFA_advance_loc: 2 to 00000000004676a4
  DW_CFA_def_cfa_offset: 24
  DW_CFA_offset: r12 (r12) at cfa-24
  DW_CFA_advance_loc: 4 to 00000000004676a8
  DW_CFA_def_cfa_offset: 32
  DW_CFA_offset: r6 (rbp) at cfa-32
  DW_CFA_advance_loc: 1 to 00000000004676a9
  DW_CFA_def_cfa_offset: 40
  DW_CFA_offset: r3 (rbx) at cfa-40
  DW_CFA_advance_loc: 6 to 00000000004676af
  DW_CFA_def_cfa_offset: 64
  DW_CFA_advance_loc1: 127 to 000000000046772e
  DW_CFA_remember_state
  DW_CFA_def_cfa_offset: 40
  DW_CFA_advance_loc: 1 to 000000000046772f
  DW_CFA_def_cfa_offset: 32
  DW_CFA_advance_loc: 1 to 0000000000467730
  DW_CFA_def_cfa_offset: 24
  DW_CFA_advance_loc: 2 to 0000000000467732
  DW_CFA_def_cfa_offset: 16
  DW_CFA_advance_loc: 2 to 0000000000467734
  DW_CFA_def_cfa_offset: 8
  DW_CFA_advance_loc: 4 to 0000000000467738
  DW_CFA_restore_state
  DW_CFA_advance_loc1: 189 to 00000000004677f5
  DW_CFA_remember_state
  DW_CFA_def_cfa_offset: 40
  DW_CFA_advance_loc: 1 to 00000000004677f6
  DW_CFA_def_cfa_offset: 32
  DW_CFA_advance_loc: 6 to 00000000004677fc
  DW_CFA_def_cfa_offset: 24
  DW_CFA_advance_loc: 2 to 00000000004677fe
  DW_CFA_def_cfa_offset: 16
  DW_CFA_advance_loc: 2 to 0000000000467800
  DW_CFA_def_cfa_offset: 8
  DW_CFA_advance_loc: 8 to 0000000000467808
  DW_CFA_restore_state
  DW_CFA_advance_loc1: 129 to 0000000000467889
  DW_CFA_def_cfa_offset: 72
  DW_CFA_advance_loc: 9 to 0000000000467892
  DW_CFA_def_cfa_offset: 80
  DW_CFA_advance_loc: 25 to 00000000004678ab
  DW_CFA_def_cfa_offset: 72
  DW_CFA_advance_loc: 1 to 00000000004678ac
  DW_CFA_def_cfa_offset: 64
  DW_CFA_nop
  DW_CFA_nop
  DW_CFA_nop
  DW_CFA_nop
  DW_CFA_nop

00007480 000000000000004c 00007454 FDE cie=00000030 pc=00000000004679b0..0000000000467a97
  DW_CFA_advance_loc: 2 to 00000000004679b2
  DW_CFA_def_cfa_offset: 16
  DW_CFA_offset: r14 (r14) at cfa-16
  DW_CFA_advance_loc: 2 to 00000000004679b4
  DW_CFA_def_cfa_offset: 24
  DW_CFA_offset: r13 (r13) at cfa-24
  DW_CFA_advance_loc: 2 to 00000000004679b6
  DW_CFA_def_cfa_offset: 32
  DW_CFA_offset: r12 (r12) at cfa-32
  DW_CFA_advance_loc: 1 to 00000000004679b7
  DW_CFA_def_cfa_offset: 40
  DW_CFA_offset: r6 (rbp) at cfa-40
  DW_CFA_advance_loc: 4 to 00000000004679bb
  DW_CFA_def_cfa_offset: 48
  DW_CFA_offset: r3 (rbx) at cfa-48
  DW_CFA_advance_loc1: 138 to 0000000000467a45
  DW_CFA_remember_state
  DW_CFA_def_cfa_offset: 40
  DW_CFA_advance_loc: 1 to 0000000000467a46
  DW_CFA_def_cfa_offset: 32
  DW_CFA_advance_loc: 2 to 0000000000467a48
  DW_CFA_def_cfa_offset: 24
  DW_CFA_advance_loc: 2 to 0000000000467a4a
  DW_CFA_def_cfa_offset: 16
  DW_CFA_advance_loc: 2 to 0000000000467a4c
  DW_CFA_def_cfa_offset: 8
  DW_CFA_advance_loc: 1 to 0000000000467a4d
  DW_CFA_restore_state
  DW_CFA_advance_loc: 59 to 0000000000467a88
  DW_CFA_remember_state
  DW_CFA_def_cfa_offset: 40
  DW_CFA_advance_loc: 4 to 0000000000467a8c
  DW_CFA_def_cfa_offset: 32
  DW_CFA_advance_loc: 2 to 0000000000467a8e
  DW_CFA_def_cfa_offset: 24
  DW_CFA_advance_loc: 2 to 0000000000467a90
  DW_CFA_def_cfa_offset: 16
  DW_CFA_advance_loc: 2 to 0000000000467a92
  DW_CFA_def_cfa_offset: 8
  DW_CFA_advance_loc: 1 to 0000000000467a93
  DW_CFA_restore_state
  DW_CFA_nop

000074d0 0000000000000054 000074a4 FDE cie=00000030 pc=0000000000467aa0..0000000000467e0a
  DW_CFA_advance_loc: 2 to 0000000000467aa2
  DW_CFA_def_cfa_offset: 16
  DW_CFA_offset: r13 (r13) at cfa-16
  DW_CFA_advance_loc: 2 to 0000000000467aa4
  DW_CFA_def_cfa_offset: 24
  DW_CFA_offset: r12 (r12) at cfa-24
  DW_CFA_advance_loc: 6 to 0000000000467aaa
  DW_CFA_def_cfa_offset: 32
  DW_CFA_offset: r6 (rbp) at cfa-32
  DW_CFA_advance_loc: 1 to 0000000000467aab
  DW_CFA_def_cfa_offset: 40
  DW_CFA_offset: r3 (rbx) at cfa-40
  DW_CFA_advance_loc: 13 to 0000000000467ab8
  DW_CFA_def_cfa_offset: 80
  DW_CFA_advance_loc1: 145 to 0000000000467b49
  DW_CFA_def_cfa_offset: 88
  DW_CFA_advance_loc: 18 to 0000000000467b5b
  DW_CFA_def_cfa_offset: 96
  DW_CFA_advance_loc: 19 to 0000000000467b6e
  DW_CFA_def_cfa_offset: 88
  DW_CFA_advance_loc: 2 to 0000000000467b70
  DW_CFA_def_cfa_offset: 80
  DW_CFA_advance_loc2: 267 to 0000000000467c7b
  DW_CFA_remember_state
  DW_CFA_def_cfa_offset: 40
  DW_CFA_advance_loc: 1 to 0000000000467c7c
  DW_CFA_def_cfa_offset: 32
  DW_CFA_advance_loc: 1 to 0000000000467c7d
  DW_CFA_def_cfa_offset: 24
  DW_CFA_advance_loc: 2 to 0000000000467c7f
  DW_CFA_def_cfa_offset: 16
  DW_CFA_advance_loc: 2 to 0000000000467c81
  DW_CFA_def_cfa_offset: 8
  DW_CFA_advance_loc: 7 to 0000000000467c88
  DW_CFA_restore_state
  DW_CFA_advance_loc1: 189 to 0000000000467d45
  DW_CFA_def_cfa_offset: 88
  DW_CFA_advance_loc: 5 to 0000000000467d4a
  DW_CFA_def_cfa_offset: 96
  DW_CFA_advance_loc: 26 to 0000000000467d64
  DW_CFA_def_cfa_offset: 88
  DW_CFA_advance_loc: 1 to 0000000000467d65
  DW_CFA_def_cfa_offset: 80
  DW_CFA_nop
  DW_CFA_nop

00007528 0000000000000034 000074fc FDE cie=00000030 pc=0000000000467e10..000000000046804c
  DW_CFA_advance_loc: 1 to 0000000000467e11
  DW_CFA_def_cfa_offset: 16
  DW_CFA_offset: r6 (rbp) at cfa-16
  DW_CFA_advance_loc: 1 to 0000000000467e12
  DW_CFA_def_cfa_offset: 24
  DW_CFA_offset: r3 (rbx) at cfa-24
  DW_CFA_advance_loc: 11 to 0000000000467e1d
  DW_CFA_def_cfa_offset: 32
  DW_CFA_advance_loc: 44 to 0000000000467e49
  DW_CFA_def_cfa_offset: 160
  DW_CFA_advance_loc: 12 to 0000000000467e55
  DW_CFA_def_cfa_offset: 32
  DW_CFA_advance_loc: 52 to 0000000000467e89
  DW_CFA_def_cfa_offset: 160
  DW_CFA_advance_loc: 12 to 0000000000467e95
  DW_CFA_def_cfa_offset: 32
  DW_CFA_advance_loc: 11 to 0000000000467ea0
  DW_CFA_remember_state
  DW_CFA_def_cfa_offset: 24
  DW_CFA_advance_loc: 1 to 0000000000467ea1
  DW_CFA_def_cfa_offset: 16
  DW_CFA_advance_loc: 1 to 0000000000467ea2
  DW_CFA_def_cfa_offset: 8
  DW_CFA_advance_loc: 6 to 0000000000467ea8
  DW_CFA_restore_state

00007560 0000000000000044 00007534 FDE cie=00000030 pc=0000000000468050..0000000000468784
  DW_CFA_advance_loc: 6 to 0000000000468056
  DW_CFA_def_cfa_offset: 16
  DW_CFA_offset: r15 (r15) at cfa-16
  DW_CFA_advance_loc: 5 to 000000000046805b
  DW_CFA_def_cfa_offset: 24
  DW_CFA_offset: r14 (r14) at cfa-24
  DW_CFA_advance_loc: 2 to 000000000046805d
  DW_CFA_def_cfa_offset: 32
  DW_CFA_offset: r13 (r13) at cfa-32
  DW_CFA_advance_loc: 2 to 000000000046805f
  DW_CFA_def_cfa_offset: 40
  DW_CFA_offset: r12 (r12) at cfa-40
  DW_CFA_advance_loc: 1 to 0000000000468060
  DW_CFA_def_cfa_offset: 48
  DW_CFA_offset: r6 (rbp) at cfa-48
  DW_CFA_advance_loc: 8 to 0000000000468068
  DW_CFA_def_cfa_offset: 56
  DW_CFA_offset: r3 (rbx) at cfa-56
  DW_CFA_advance_loc2: 1370 to 00000000004685c2
  DW_CFA_remember_state
  DW_CFA_def_cfa_offset: 48
  DW_CFA_advance_loc: 1 to 00000000004685c3
  DW_CFA_def_cfa_offset: 40
  DW_CFA_advance_loc: 2 to 00000000004685c5
  DW_CFA_def_cfa_offset: 32
  DW_CFA_advance_loc: 2 to 00000000004685c7
  DW_CFA_def_cfa_offset: 24
  DW_CFA_advance_loc: 2 to 00000000004685c9
  DW_CFA_def_cfa_offset: 16
  DW_CFA_advance_loc: 2 to 00000000004685cb
  DW_CFA_def_cfa_offset: 8
  DW_CFA_advance_loc: 1 to 00000000004685cc
  DW_CFA_restore_state
  DW_CFA_nop
  DW_CFA_nop

000075a8 000000000000003c 0000757c FDE cie=00000030 pc=0000000000468790..00000000004689f3
  DW_CFA_advance_loc: 1 to 0000000000468791
  DW_CFA_def_cfa_offset: 16
  DW_CFA_offset: r6 (rbp) at cfa-16
  DW_CFA_advance_loc: 1 to 0000000000468792
  DW_CFA_def_cfa_offset: 24
  DW_CFA_offset: r3 (rbx) at cfa-24
  DW_CFA_advance_loc: 11 to 000000000046879d
  DW_CFA_def_cfa_offset: 32
  DW_CFA_advance_loc: 44 to 00000000004687c9
  DW_CFA_def_cfa_offset: 160
  DW_CFA_advance_loc: 12 to 00000000004687d5
  DW_CFA_def_cfa_offset: 32
  DW_CFA_advance_loc2: 371 to 0000000000468948
  DW_CFA_def_cfa_offset: 160
  DW_CFA_advance_loc: 12 to 0000000000468954
  DW_CFA_def_cfa_offset: 32
  DW_CFA_advance_loc: 4 to 0000000000468958
  DW_CFA_remember_state
  DW_CFA_def_cfa_offset: 24
  DW_CFA_advance_loc: 1 to 0000000000468959
  DW_CFA_def_cfa_offset: 16
  DW_CFA_advance_loc: 1 to 000000000046895a
  DW_CFA_def_cfa_offset: 8
  DW_CFA_advance_loc: 6 to 0000000000468960
  DW_CFA_restore_state
  DW_CFA_nop
  DW_CFA_nop
  DW_CFA_nop
  DW_CFA_nop
  DW_CFA_nop
  DW_CFA_nop

000075e8 000000000000007c 000075bc FDE cie=00000030 pc=0000000000468a00..0000000000468dd9
  DW_CFA_advance_loc: 11 to 0000000000468a0b
  DW_CFA_def_cfa_offset: 16
  DW_CFA_offset: r14 (r14) at cfa-16
  DW_CFA_advance_loc: 2 to 0000000000468a0d
  DW_CFA_def_cfa_offset: 24
  DW_CFA_offset: r13 (r13) at cfa-24
  DW_CFA_advance_loc: 4 to 0000000000468a11
  DW_CFA_def_cfa_offset: 32
  DW_CFA_offset: r12 (r12) at cfa-32
  DW_CFA_advance_loc: 1 to 0000000000468a12
  DW_CFA_def_cfa_offset: 40
  DW_CFA_offset: r6 (rbp) at cfa-40
  DW_CFA_advance_loc: 4 to 0000000000468a16
  DW_CFA_def_cfa_offset: 48
  DW_CFA_offset: r3 (rbx) at cfa-48
  DW_CFA_advance_loc: 15 to 0000000000468a25
  DW_CFA_def_cfa_offset: 64
  DW_CFA_advance_loc: 44 to 0000000000468a51
  DW_CFA_def_cfa_offset: 192
  DW_CFA_advance_loc: 12 to 0000000000468a5d
  DW_CFA_def_cfa_offset: 64
  DW_CFA_advance_loc2: 292 to 0000000000468b81
  DW_CFA_def_cfa_offset: 192
  DW_CFA_advance_loc: 12 to 0000000000468b8d
  DW_CFA_def_cfa_offset: 64
  DW_CFA_advance_loc: 56 to 0000000000468bc5
  DW_CFA_remember_state
  DW_CFA_def_cfa_offset: 48
  DW_CFA_advance_loc: 4 to 0000000000468bc9
  DW_CFA_restore: r3 (rbx)
  DW_CFA_def_cfa_offset: 40
  DW_CFA_advance_loc: 1 to 0000000000468bca
  DW_CFA_restore: r6 (rbp)
  DW_CFA_def_cfa_offset: 32
  DW_CFA_advance_loc: 2 to 0000000000468bcc
  DW_CFA_restore: r12 (r12)
  DW_CFA_def_cfa_offset: 24
  DW_CFA_advance_loc: 2 to 0000000000468bce
  DW_CFA_restore: r13 (r13)
  DW_CFA_def_cfa_offset: 16
  DW_CFA_advance_loc: 2 to 0000000000468bd0
  DW_CFA_restore: r14 (r14)
  DW_CFA_def_cfa_offset: 8
  DW_CFA_advance_loc: 8 to 0000000000468bd8
  DW_CFA_restore_state
  DW_CFA_advance_loc2: 284 to 0000000000468cf4
  DW_CFA_remember_state
  DW_CFA_def_cfa_offset: 48
  DW_CFA_advance_loc: 3 to 0000000000468cf7
  DW_CFA_restore: r3 (rbx)
  DW_CFA_def_cfa_offset: 40
  DW_CFA_advance_loc: 1 to 0000000000468cf8
  DW_CFA_restore: r6 (rbp)
  DW_CFA_def_cfa_offset: 32
  DW_CFA_advance_loc: 2 to 0000000000468cfa
  DW_CFA_restore: r12 (r12)
  DW_CFA_def_cfa_offset: 24
  DW_CFA_advance_loc: 2 to 0000000000468cfc
  DW_CFA_restore: r13 (r13)
  DW_CFA_def_cfa_offset: 16
  DW_CFA_advance_loc: 2 to 0000000000468cfe
  DW_CFA_restore: r14 (r14)
  DW_CFA_def_cfa_offset: 8
  DW_CFA_advance_loc: 2 to 0000000000468d00
  DW_CFA_restore_state
  DW_CFA_advance_loc1: 200 to 0000000000468dc8
  DW_CFA_def_cfa_offset: 8
  DW_CFA_restore: r3 (rbx)
  DW_CFA_restore: r6 (rbp)
  DW_CFA_restore: r12 (r12)
  DW_CFA_restore: r13 (r13)
  DW_CFA_restore: r14 (r14)
  DW_CFA_nop
  DW_CFA_nop
  DW_CFA_nop
  DW_CFA_nop

00007668 000000000000004c 0000763c FDE cie=00000030 pc=0000000000468de0..0000000000469b25
  DW_CFA_advance_loc: 2 to 0000000000468de2
  DW_CFA_def_cfa_offset: 16
  DW_CFA_offset: r15 (r15) at cfa-16
  DW_CFA_advance_loc: 2 to 0000000000468de4
  DW_CFA_def_cfa_offset: 24
  DW_CFA_offset: r14 (r14) at cfa-24
  DW_CFA_advance_loc: 2 to 0000000000468de6
  DW_CFA_def_cfa_offset: 32
  DW_CFA_offset: r13 (r13) at cfa-32
  DW_CFA_advance_loc: 2 to 0000000000468de8
  DW_CFA_def_cfa_offset: 40
  DW_CFA_offset: r12 (r12) at cfa-40
  DW_CFA_advance_loc: 4 to 0000000000468dec
  DW_CFA_def_cfa_offset: 48
  DW_CFA_offset: r6 (rbp) at cfa-48
  DW_CFA_advance_loc: 1 to 0000000000468ded
  DW_CFA_def_cfa_offset: 56
  DW_CFA_offset: r3 (rbx) at cfa-56
  DW_CFA_advance_loc: 10 to 0000000000468df7
  DW_CFA_def_cfa_offset: 336
  DW_CFA_advance_loc1: 81 to 0000000000468e48
  DW_CFA_remember_state
  DW_CFA_def_cfa_offset: 56
  DW_CFA_advance_loc: 1 to 0000000000468e49
  DW_CFA_def_cfa_offset: 48
  DW_CFA_advance_loc: 1 to 0000000000468e4a
  DW_CFA_def_cfa_offset: 40
  DW_CFA_advance_loc: 2 to 0000000000468e4c
  DW_CFA_def_cfa_offset: 32
  DW_CFA_advance_loc: 2 to 0000000000468e4e
  DW_CFA_def_cfa_offset: 24
  DW_CFA_advance_loc: 2 to 0000000000468e50
  DW_CFA_def_cfa_offset: 16
  DW_CFA_advance_loc: 2 to 0000000000468e52
  DW_CFA_def_cfa_offset: 8
  DW_CFA_advance_loc: 6 to 0000000000468e58
  DW_CFA_restore_state
  DW_CFA_nop
  DW_CFA_nop
  DW_CFA_nop
  DW_CFA_nop

000076b8 0000000000000064 0000768c FDE cie=00000030 pc=0000000000469b30..0000000000469d30
  DW_CFA_advance_loc: 2 to 0000000000469b32
  DW_CFA_def_cfa_offset: 16
  DW_CFA_offset: r15 (r15) at cfa-16
  DW_CFA_advance_loc: 2 to 0000000000469b34
  DW_CFA_def_cfa_offset: 24
  DW_CFA_offset: r14 (r14) at cfa-24
  DW_CFA_advance_loc: 5 to 0000000000469b39
  DW_CFA_def_cfa_offset: 32
  DW_CFA_offset: r13 (r13) at cfa-32
  DW_CFA_advance_loc: 2 to 0000000000469b3b
  DW_CFA_def_cfa_offset: 40
  DW_CFA_offset: r12 (r12) at cfa-40
  DW_CFA_advance_loc: 4 to 0000000000469b3f
  DW_CFA_def_cfa_offset: 48
  DW_CFA_offset: r6 (rbp) at cfa-48
  DW_CFA_advance_loc: 1 to 0000000000469b40
  DW_CFA_def_cfa_offset: 56
  DW_CFA_offset: r3 (rbx) at cfa-56
  DW_CFA_advance_loc: 7 to 0000000000469b47
  DW_CFA_def_cfa_offset: 96
  DW_CFA_advance_loc2: 453 to 0000000000469d0c
  DW_CFA_remember_state
  DW_CFA_def_cfa_offset: 56
  DW_CFA_advance_loc: 1 to 0000000000469d0d
  DW_CFA_def_cfa_offset: 48
  DW_CFA_advance_loc: 1 to 0000000000469d0e
  DW_CFA_def_cfa_offset: 40
  DW_CFA_advance_loc: 2 to 0000000000469d10
  DW_CFA_def_cfa_offset: 32
  DW_CFA_advance_loc: 2 to 0000000000469d12
  DW_CFA_def_cfa_offset: 24
  DW_CFA_advance_loc: 2 to 0000000000469d14
  DW_CFA_def_cfa_offset: 16
  DW_CFA_advance_loc: 2 to 0000000000469d16
  DW_CFA_def_cfa_offset: 8
  DW_CFA_advance_loc: 1 to 0000000000469d17
  DW_CFA_restore_state
  DW_CFA_advance_loc: 14 to 0000000000469d25
  DW_CFA_def_cfa_offset: 56
  DW_CFA_advance_loc: 1 to 0000000000469d26
  DW_CFA_def_cfa_offset: 48
  DW_CFA_advance_loc: 1 to 0000000000469d27
  DW_CFA_def_cfa_offset: 40
  DW_CFA_advance_loc: 2 to 0000000000469d29
  DW_CFA_def_cfa_offset: 32
  DW_CFA_advance_loc: 2 to 0000000000469d2b
  DW_CFA_def_cfa_offset: 24
  DW_CFA_advance_loc: 2 to 0000000000469d2d
  DW_CFA_def_cfa_offset: 16
  DW_CFA_advance_loc: 2 to 0000000000469d2f
  DW_CFA_def_cfa_offset: 8
  DW_CFA_nop
  DW_CFA_nop
  DW_CFA_nop
  DW_CFA_nop
  DW_CFA_nop
  DW_CFA_nop
  DW_CFA_nop

00007720 000000000000004c 000076f4 FDE cie=00000030 pc=0000000000469d30..000000000046a3ef
  DW_CFA_advance_loc: 2 to 0000000000469d32
  DW_CFA_def_cfa_offset: 16
  DW_CFA_offset: r15 (r15) at cfa-16
  DW_CFA_advance_loc: 2 to 0000000000469d34
  DW_CFA_def_cfa_offset: 24
  DW_CFA_offset: r14 (r14) at cfa-24
  DW_CFA_advance_loc: 2 to 0000000000469d36
  DW_CFA_def_cfa_offset: 32
  DW_CFA_offset: r13 (r13) at cfa-32
  DW_CFA_advance_loc: 2 to 0000000000469d38
  DW_CFA_def_cfa_offset: 40
  DW_CFA_offset: r12 (r12) at cfa-40
  DW_CFA_advance_loc: 4 to 0000000000469d3c
  DW_CFA_def_cfa_offset: 48
  DW_CFA_offset: r6 (rbp) at cfa-48
  DW_CFA_advance_loc: 1 to 0000000000469d3d
  DW_CFA_def_cfa_offset: 56
  DW_CFA_offset: r3 (rbx) at cfa-56
  DW_CFA_advance_loc: 7 to 0000000000469d44
  DW_CFA_def_cfa_offset: 80
  DW_CFA_advance_loc2: 623 to 0000000000469fb3
  DW_CFA_remember_state
  DW_CFA_def_cfa_offset: 56
  DW_CFA_advance_loc: 1 to 0000000000469fb4
  DW_CFA_def_cfa_offset: 48
  DW_CFA_advance_loc: 1 to 0000000000469fb5
  DW_CFA_def_cfa_offset: 40
  DW_CFA_advance_loc: 2 to 0000000000469fb7
  DW_CFA_def_cfa_offset: 32
  DW_CFA_advance_loc: 2 to 0000000000469fb9
  DW_CFA_def_cfa_offset: 24
  DW_CFA_advance_loc: 2 to 0000000000469fbb
  DW_CFA_def_cfa_offset: 16
  DW_CFA_advance_loc: 2 to 0000000000469fbd
  DW_CFA_def_cfa_offset: 8
  DW_CFA_advance_loc: 3 to 0000000000469fc0
  DW_CFA_restore_state
  DW_CFA_nop
  DW_CFA_nop
  DW_CFA_nop
  DW_CFA_nop

00007770 0000000000000044 00007744 FDE cie=00000030 pc=000000000046a3f0..000000000046a55d
  DW_CFA_advance_loc: 10 to 000000000046a3fa
  DW_CFA_def_cfa_offset: 16
  DW_CFA_offset: r6 (rbp) at cfa-16
  DW_CFA_advance_loc: 1 to 000000000046a3fb
  DW_CFA_def_cfa_offset: 24
  DW_CFA_offset: r3 (rbx) at cfa-24
  DW_CFA_advance_loc: 22 to 000000000046a411
  DW_CFA_def_cfa_offset: 176
  DW_CFA_advance_loc1: 152 to 000000000046a4a9
  DW_CFA_remember_state
  DW_CFA_def_cfa_offset: 24
  DW_CFA_advance_loc: 1 to 000000000046a4aa
  DW_CFA_restore: r3 (rbx)
  DW_CFA_def_cfa_offset: 16
  DW_CFA_advance_loc: 1 to 000000000046a4ab
  DW_CFA_restore: r6 (rbp)
  DW_CFA_def_cfa_offset: 8
  DW_CFA_advance_loc: 5 to 000000000046a4b0
  DW_CFA_restore_state
  DW_CFA_advance_loc: 55 to 000000000046a4e7
  DW_CFA_def_cfa_offset: 24
  DW_CFA_advance_loc: 3 to 000000000046a4ea
  DW_CFA_restore: r3 (rbx)
  DW_CFA_def_cfa_offset: 16
  DW_CFA_advance_loc: 1 to 000000000046a4eb
  DW_CFA_restore: r6 (rbp)
  DW_CFA_def_cfa_offset: 8
  DW_CFA_advance_loc: 29 to 000000000046a508
  DW_CFA_def_cfa_offset: 176
  DW_CFA_offset: r3 (rbx) at cfa-24
  DW_CFA_offset: r6 (rbp) at cfa-16
  DW_CFA_nop
  DW_CFA_nop
  DW_CFA_nop
  DW_CFA_nop
  DW_CFA_nop
  DW_CFA_nop
  DW_CFA_nop

000077b8 0000000000000044 0000778c FDE cie=00000030 pc=000000000046a560..000000000046a6cd
  DW_CFA_advance_loc: 10 to 000000000046a56a
  DW_CFA_def_cfa_offset: 16
  DW_CFA_offset: r6 (rbp) at cfa-16
  DW_CFA_advance_loc: 1 to 000000000046a56b
  DW_CFA_def_cfa_offset: 24
  DW_CFA_offset: r3 (rbx) at cfa-24
  DW_CFA_advance_loc: 19 to 000000000046a57e
  DW_CFA_def_cfa_offset: 176
  DW_CFA_advance_loc1: 152 to 000000000046a616
  DW_CFA_remember_state
  DW_CFA_def_cfa_offset: 24
  DW_CFA_advance_loc: 1 to 000000000046a617
  DW_CFA_restore: r3 (rbx)
  DW_CFA_def_cfa_offset: 16
  DW_CFA_advance_loc: 1 to 000000000046a618
  DW_CFA_restore: r6 (rbp)
  DW_CFA_def_cfa_offset: 8
  DW_CFA_advance_loc: 8 to 000000000046a620
  DW_CFA_restore_state
  DW_CFA_advance_loc: 55 to 000000000046a657
  DW_CFA_def_cfa_offset: 24
  DW_CFA_advance_loc: 3 to 000000000046a65a
  DW_CFA_restore: r3 (rbx)
  DW_CFA_def_cfa_offset: 16
  DW_CFA_advance_loc: 1 to 000000000046a65b
  DW_CFA_restore: r6 (rbp)
  DW_CFA_def_cfa_offset: 8
  DW_CFA_advance_loc: 29 to 000000000046a678
  DW_CFA_def_cfa_offset: 176
  DW_CFA_offset: r3 (rbx) at cfa-24
  DW_CFA_offset: r6 (rbp) at cfa-16
  DW_CFA_nop
  DW_CFA_nop
  DW_CFA_nop
  DW_CFA_nop
  DW_CFA_nop
  DW_CFA_nop
